
stm32-claw-machine.elf:     file format elf32-littlearm

Sections:
Idx Name          Size      VMA       LMA       File off  Algn
  0 .isr_vector   000001f8  08000000  08000000  00001000  2**0
                  CONTENTS, ALLOC, LOAD, READONLY, DATA
  1 .text         00006ce4  08000200  08000200  00001200  2**4
                  CONTENTS, ALLOC, LOAD, READONLY, CODE
  2 .rodata       000010b4  08006ee4  08006ee4  00007ee4  2**2
                  CONTENTS, ALLOC, LOAD, READONLY, DATA
  3 .ARM.extab    00000000  08007f98  08007f98  00009070  2**0
                  CONTENTS, READONLY
  4 .ARM          00000008  08007f98  08007f98  00008f98  2**2
                  CONTENTS, ALLOC, LOAD, READONLY, DATA
  5 .preinit_array 00000000  08007fa0  08007fa0  00009070  2**0
                  CONTENTS, ALLOC, LOAD, DATA
  6 .init_array   00000004  08007fa0  08007fa0  00008fa0  2**2
                  CONTENTS, ALLOC, LOAD, READONLY, DATA
  7 .fini_array   00000004  08007fa4  08007fa4  00008fa4  2**2
                  CONTENTS, ALLOC, LOAD, READONLY, DATA
  8 .data         00000070  20000000  08007fa8  00009000  2**2
                  CONTENTS, ALLOC, LOAD, DATA
  9 .bss          00000328  20000070  08008018  00009070  2**2
                  ALLOC
 10 ._user_heap_stack 00000600  20000398  08008018  00009398  2**0
                  ALLOC
 11 .ARM.attributes 0000002e  00000000  00000000  00009070  2**0
                  CONTENTS, READONLY
 12 .debug_info   00015a34  00000000  00000000  0000909e  2**0
                  CONTENTS, READONLY, DEBUGGING, OCTETS
 13 .debug_abbrev 00002e61  00000000  00000000  0001ead2  2**0
                  CONTENTS, READONLY, DEBUGGING, OCTETS
 14 .debug_aranges 00001170  00000000  00000000  00021938  2**3
                  CONTENTS, READONLY, DEBUGGING, OCTETS
 15 .debug_rnglists 00000d9c  00000000  00000000  00022aa8  2**0
                  CONTENTS, READONLY, DEBUGGING, OCTETS
 16 .debug_macro  00029b44  00000000  00000000  00023844  2**0
                  CONTENTS, READONLY, DEBUGGING, OCTETS
 17 .debug_line   000179df  00000000  00000000  0004d388  2**0
                  CONTENTS, READONLY, DEBUGGING, OCTETS
 18 .debug_str    000ff16c  00000000  00000000  00064d67  2**0
                  CONTENTS, READONLY, DEBUGGING, OCTETS
 19 .comment      00000043  00000000  00000000  00163ed3  2**0
                  CONTENTS, READONLY
 20 .debug_frame  00004ca4  00000000  00000000  00163f18  2**2
                  CONTENTS, READONLY, DEBUGGING, OCTETS
 21 .debug_line_str 00000078  00000000  00000000  00168bbc  2**0
                  CONTENTS, READONLY, DEBUGGING, OCTETS

Disassembly of section .text:

08000200 <__do_global_dtors_aux>:
 8000200:	b510      	push	{r4, lr}
 8000202:	4c05      	ldr	r4, [pc, #20]	@ (8000218 <__do_global_dtors_aux+0x18>)
 8000204:	7823      	ldrb	r3, [r4, #0]
 8000206:	b933      	cbnz	r3, 8000216 <__do_global_dtors_aux+0x16>
 8000208:	4b04      	ldr	r3, [pc, #16]	@ (800021c <__do_global_dtors_aux+0x1c>)
 800020a:	b113      	cbz	r3, 8000212 <__do_global_dtors_aux+0x12>
 800020c:	4804      	ldr	r0, [pc, #16]	@ (8000220 <__do_global_dtors_aux+0x20>)
 800020e:	f3af 8000 	nop.w
 8000212:	2301      	movs	r3, #1
 8000214:	7023      	strb	r3, [r4, #0]
 8000216:	bd10      	pop	{r4, pc}
 8000218:	20000070 	.word	0x20000070
 800021c:	00000000 	.word	0x00000000
 8000220:	08006ecc 	.word	0x08006ecc

08000224 <frame_dummy>:
 8000224:	b508      	push	{r3, lr}
 8000226:	4b03      	ldr	r3, [pc, #12]	@ (8000234 <frame_dummy+0x10>)
 8000228:	b11b      	cbz	r3, 8000232 <frame_dummy+0xe>
 800022a:	4903      	ldr	r1, [pc, #12]	@ (8000238 <frame_dummy+0x14>)
 800022c:	4803      	ldr	r0, [pc, #12]	@ (800023c <frame_dummy+0x18>)
 800022e:	f3af 8000 	nop.w
 8000232:	bd08      	pop	{r3, pc}
 8000234:	00000000 	.word	0x00000000
 8000238:	20000074 	.word	0x20000074
 800023c:	08006ecc 	.word	0x08006ecc

08000240 <strlen>:
 8000240:	4603      	mov	r3, r0
 8000242:	f813 2b01 	ldrb.w	r2, [r3], #1
 8000246:	2a00      	cmp	r2, #0
 8000248:	d1fb      	bne.n	8000242 <strlen+0x2>
 800024a:	1a18      	subs	r0, r3, r0
 800024c:	3801      	subs	r0, #1
 800024e:	4770      	bx	lr

08000250 <memchr>:
 8000250:	f001 01ff 	and.w	r1, r1, #255	@ 0xff
 8000254:	2a10      	cmp	r2, #16
 8000256:	db2b      	blt.n	80002b0 <memchr+0x60>
 8000258:	f010 0f07 	tst.w	r0, #7
 800025c:	d008      	beq.n	8000270 <memchr+0x20>
 800025e:	f810 3b01 	ldrb.w	r3, [r0], #1
 8000262:	3a01      	subs	r2, #1
 8000264:	428b      	cmp	r3, r1
 8000266:	d02d      	beq.n	80002c4 <memchr+0x74>
 8000268:	f010 0f07 	tst.w	r0, #7
 800026c:	b342      	cbz	r2, 80002c0 <memchr+0x70>
 800026e:	d1f6      	bne.n	800025e <memchr+0xe>
 8000270:	b4f0      	push	{r4, r5, r6, r7}
 8000272:	ea41 2101 	orr.w	r1, r1, r1, lsl #8
 8000276:	ea41 4101 	orr.w	r1, r1, r1, lsl #16
 800027a:	f022 0407 	bic.w	r4, r2, #7
 800027e:	f07f 0700 	mvns.w	r7, #0
 8000282:	2300      	movs	r3, #0
 8000284:	e8f0 5602 	ldrd	r5, r6, [r0], #8
 8000288:	3c08      	subs	r4, #8
 800028a:	ea85 0501 	eor.w	r5, r5, r1
 800028e:	ea86 0601 	eor.w	r6, r6, r1
 8000292:	fa85 f547 	uadd8	r5, r5, r7
 8000296:	faa3 f587 	sel	r5, r3, r7
 800029a:	fa86 f647 	uadd8	r6, r6, r7
 800029e:	faa5 f687 	sel	r6, r5, r7
 80002a2:	b98e      	cbnz	r6, 80002c8 <memchr+0x78>
 80002a4:	d1ee      	bne.n	8000284 <memchr+0x34>
 80002a6:	bcf0      	pop	{r4, r5, r6, r7}
 80002a8:	f001 01ff 	and.w	r1, r1, #255	@ 0xff
 80002ac:	f002 0207 	and.w	r2, r2, #7
 80002b0:	b132      	cbz	r2, 80002c0 <memchr+0x70>
 80002b2:	f810 3b01 	ldrb.w	r3, [r0], #1
 80002b6:	3a01      	subs	r2, #1
 80002b8:	ea83 0301 	eor.w	r3, r3, r1
 80002bc:	b113      	cbz	r3, 80002c4 <memchr+0x74>
 80002be:	d1f8      	bne.n	80002b2 <memchr+0x62>
 80002c0:	2000      	movs	r0, #0
 80002c2:	4770      	bx	lr
 80002c4:	3801      	subs	r0, #1
 80002c6:	4770      	bx	lr
 80002c8:	2d00      	cmp	r5, #0
 80002ca:	bf06      	itte	eq
 80002cc:	4635      	moveq	r5, r6
 80002ce:	3803      	subeq	r0, #3
 80002d0:	3807      	subne	r0, #7
 80002d2:	f015 0f01 	tst.w	r5, #1
 80002d6:	d107      	bne.n	80002e8 <memchr+0x98>
 80002d8:	3001      	adds	r0, #1
 80002da:	f415 7f80 	tst.w	r5, #256	@ 0x100
 80002de:	bf02      	ittt	eq
 80002e0:	3001      	addeq	r0, #1
 80002e2:	f415 3fc0 	tsteq.w	r5, #98304	@ 0x18000
 80002e6:	3001      	addeq	r0, #1
 80002e8:	bcf0      	pop	{r4, r5, r6, r7}
 80002ea:	3801      	subs	r0, #1
 80002ec:	4770      	bx	lr
 80002ee:	bf00      	nop

080002f0 <__aeabi_uldivmod>:
 80002f0:	b953      	cbnz	r3, 8000308 <__aeabi_uldivmod+0x18>
 80002f2:	b94a      	cbnz	r2, 8000308 <__aeabi_uldivmod+0x18>
 80002f4:	2900      	cmp	r1, #0
 80002f6:	bf08      	it	eq
 80002f8:	2800      	cmpeq	r0, #0
 80002fa:	bf1c      	itt	ne
 80002fc:	f04f 31ff 	movne.w	r1, #4294967295
 8000300:	f04f 30ff 	movne.w	r0, #4294967295
 8000304:	f000 b988 	b.w	8000618 <__aeabi_idiv0>
 8000308:	f1ad 0c08 	sub.w	ip, sp, #8
 800030c:	e96d ce04 	strd	ip, lr, [sp, #-16]!
 8000310:	f000 f806 	bl	8000320 <__udivmoddi4>
 8000314:	f8dd e004 	ldr.w	lr, [sp, #4]
 8000318:	e9dd 2302 	ldrd	r2, r3, [sp, #8]
 800031c:	b004      	add	sp, #16
 800031e:	4770      	bx	lr

08000320 <__udivmoddi4>:
 8000320:	e92d 47f0 	stmdb	sp!, {r4, r5, r6, r7, r8, r9, sl, lr}
 8000324:	9d08      	ldr	r5, [sp, #32]
 8000326:	468e      	mov	lr, r1
 8000328:	4604      	mov	r4, r0
 800032a:	4688      	mov	r8, r1
 800032c:	2b00      	cmp	r3, #0
 800032e:	d14a      	bne.n	80003c6 <__udivmoddi4+0xa6>
 8000330:	428a      	cmp	r2, r1
 8000332:	4617      	mov	r7, r2
 8000334:	d962      	bls.n	80003fc <__udivmoddi4+0xdc>
 8000336:	fab2 f682 	clz	r6, r2
 800033a:	b14e      	cbz	r6, 8000350 <__udivmoddi4+0x30>
 800033c:	f1c6 0320 	rsb	r3, r6, #32
 8000340:	fa01 f806 	lsl.w	r8, r1, r6
 8000344:	fa20 f303 	lsr.w	r3, r0, r3
 8000348:	40b7      	lsls	r7, r6
 800034a:	ea43 0808 	orr.w	r8, r3, r8
 800034e:	40b4      	lsls	r4, r6
 8000350:	ea4f 4e17 	mov.w	lr, r7, lsr #16
 8000354:	fa1f fc87 	uxth.w	ip, r7
 8000358:	fbb8 f1fe 	udiv	r1, r8, lr
 800035c:	0c23      	lsrs	r3, r4, #16
 800035e:	fb0e 8811 	mls	r8, lr, r1, r8
 8000362:	ea43 4308 	orr.w	r3, r3, r8, lsl #16
 8000366:	fb01 f20c 	mul.w	r2, r1, ip
 800036a:	429a      	cmp	r2, r3
 800036c:	d909      	bls.n	8000382 <__udivmoddi4+0x62>
 800036e:	18fb      	adds	r3, r7, r3
 8000370:	f101 30ff 	add.w	r0, r1, #4294967295
 8000374:	f080 80ea 	bcs.w	800054c <__udivmoddi4+0x22c>
 8000378:	429a      	cmp	r2, r3
 800037a:	f240 80e7 	bls.w	800054c <__udivmoddi4+0x22c>
 800037e:	3902      	subs	r1, #2
 8000380:	443b      	add	r3, r7
 8000382:	1a9a      	subs	r2, r3, r2
 8000384:	b2a3      	uxth	r3, r4
 8000386:	fbb2 f0fe 	udiv	r0, r2, lr
 800038a:	fb0e 2210 	mls	r2, lr, r0, r2
 800038e:	ea43 4302 	orr.w	r3, r3, r2, lsl #16
 8000392:	fb00 fc0c 	mul.w	ip, r0, ip
 8000396:	459c      	cmp	ip, r3
 8000398:	d909      	bls.n	80003ae <__udivmoddi4+0x8e>
 800039a:	18fb      	adds	r3, r7, r3
 800039c:	f100 32ff 	add.w	r2, r0, #4294967295
 80003a0:	f080 80d6 	bcs.w	8000550 <__udivmoddi4+0x230>
 80003a4:	459c      	cmp	ip, r3
 80003a6:	f240 80d3 	bls.w	8000550 <__udivmoddi4+0x230>
 80003aa:	443b      	add	r3, r7
 80003ac:	3802      	subs	r0, #2
 80003ae:	ea40 4001 	orr.w	r0, r0, r1, lsl #16
 80003b2:	eba3 030c 	sub.w	r3, r3, ip
 80003b6:	2100      	movs	r1, #0
 80003b8:	b11d      	cbz	r5, 80003c2 <__udivmoddi4+0xa2>
 80003ba:	40f3      	lsrs	r3, r6
 80003bc:	2200      	movs	r2, #0
 80003be:	e9c5 3200 	strd	r3, r2, [r5]
 80003c2:	e8bd 87f0 	ldmia.w	sp!, {r4, r5, r6, r7, r8, r9, sl, pc}
 80003c6:	428b      	cmp	r3, r1
 80003c8:	d905      	bls.n	80003d6 <__udivmoddi4+0xb6>
 80003ca:	b10d      	cbz	r5, 80003d0 <__udivmoddi4+0xb0>
 80003cc:	e9c5 0100 	strd	r0, r1, [r5]
 80003d0:	2100      	movs	r1, #0
 80003d2:	4608      	mov	r0, r1
 80003d4:	e7f5      	b.n	80003c2 <__udivmoddi4+0xa2>
 80003d6:	fab3 f183 	clz	r1, r3
 80003da:	2900      	cmp	r1, #0
 80003dc:	d146      	bne.n	800046c <__udivmoddi4+0x14c>
 80003de:	4573      	cmp	r3, lr
 80003e0:	d302      	bcc.n	80003e8 <__udivmoddi4+0xc8>
 80003e2:	4282      	cmp	r2, r0
 80003e4:	f200 8105 	bhi.w	80005f2 <__udivmoddi4+0x2d2>
 80003e8:	1a84      	subs	r4, r0, r2
 80003ea:	eb6e 0203 	sbc.w	r2, lr, r3
 80003ee:	2001      	movs	r0, #1
 80003f0:	4690      	mov	r8, r2
 80003f2:	2d00      	cmp	r5, #0
 80003f4:	d0e5      	beq.n	80003c2 <__udivmoddi4+0xa2>
 80003f6:	e9c5 4800 	strd	r4, r8, [r5]
 80003fa:	e7e2      	b.n	80003c2 <__udivmoddi4+0xa2>
 80003fc:	2a00      	cmp	r2, #0
 80003fe:	f000 8090 	beq.w	8000522 <__udivmoddi4+0x202>
 8000402:	fab2 f682 	clz	r6, r2
 8000406:	2e00      	cmp	r6, #0
 8000408:	f040 80a4 	bne.w	8000554 <__udivmoddi4+0x234>
 800040c:	1a8a      	subs	r2, r1, r2
 800040e:	0c03      	lsrs	r3, r0, #16
 8000410:	ea4f 4e17 	mov.w	lr, r7, lsr #16
 8000414:	b280      	uxth	r0, r0
 8000416:	b2bc      	uxth	r4, r7
 8000418:	2101      	movs	r1, #1
 800041a:	fbb2 fcfe 	udiv	ip, r2, lr
 800041e:	fb0e 221c 	mls	r2, lr, ip, r2
 8000422:	ea43 4302 	orr.w	r3, r3, r2, lsl #16
 8000426:	fb04 f20c 	mul.w	r2, r4, ip
 800042a:	429a      	cmp	r2, r3
 800042c:	d907      	bls.n	800043e <__udivmoddi4+0x11e>
 800042e:	18fb      	adds	r3, r7, r3
 8000430:	f10c 38ff 	add.w	r8, ip, #4294967295
 8000434:	d202      	bcs.n	800043c <__udivmoddi4+0x11c>
 8000436:	429a      	cmp	r2, r3
 8000438:	f200 80e0 	bhi.w	80005fc <__udivmoddi4+0x2dc>
 800043c:	46c4      	mov	ip, r8
 800043e:	1a9b      	subs	r3, r3, r2
 8000440:	fbb3 f2fe 	udiv	r2, r3, lr
 8000444:	fb0e 3312 	mls	r3, lr, r2, r3
 8000448:	ea40 4303 	orr.w	r3, r0, r3, lsl #16
 800044c:	fb02 f404 	mul.w	r4, r2, r4
 8000450:	429c      	cmp	r4, r3
 8000452:	d907      	bls.n	8000464 <__udivmoddi4+0x144>
 8000454:	18fb      	adds	r3, r7, r3
 8000456:	f102 30ff 	add.w	r0, r2, #4294967295
 800045a:	d202      	bcs.n	8000462 <__udivmoddi4+0x142>
 800045c:	429c      	cmp	r4, r3
 800045e:	f200 80ca 	bhi.w	80005f6 <__udivmoddi4+0x2d6>
 8000462:	4602      	mov	r2, r0
 8000464:	1b1b      	subs	r3, r3, r4
 8000466:	ea42 400c 	orr.w	r0, r2, ip, lsl #16
 800046a:	e7a5      	b.n	80003b8 <__udivmoddi4+0x98>
 800046c:	f1c1 0620 	rsb	r6, r1, #32
 8000470:	408b      	lsls	r3, r1
 8000472:	fa22 f706 	lsr.w	r7, r2, r6
 8000476:	431f      	orrs	r7, r3
 8000478:	fa0e f401 	lsl.w	r4, lr, r1
 800047c:	fa20 f306 	lsr.w	r3, r0, r6
 8000480:	fa2e fe06 	lsr.w	lr, lr, r6
 8000484:	ea4f 4917 	mov.w	r9, r7, lsr #16
 8000488:	4323      	orrs	r3, r4
 800048a:	fa00 f801 	lsl.w	r8, r0, r1
 800048e:	fa1f fc87 	uxth.w	ip, r7
 8000492:	fbbe f0f9 	udiv	r0, lr, r9
 8000496:	0c1c      	lsrs	r4, r3, #16
 8000498:	fb09 ee10 	mls	lr, r9, r0, lr
 800049c:	ea44 440e 	orr.w	r4, r4, lr, lsl #16
 80004a0:	fb00 fe0c 	mul.w	lr, r0, ip
 80004a4:	45a6      	cmp	lr, r4
 80004a6:	fa02 f201 	lsl.w	r2, r2, r1
 80004aa:	d909      	bls.n	80004c0 <__udivmoddi4+0x1a0>
 80004ac:	193c      	adds	r4, r7, r4
 80004ae:	f100 3aff 	add.w	sl, r0, #4294967295
 80004b2:	f080 809c 	bcs.w	80005ee <__udivmoddi4+0x2ce>
 80004b6:	45a6      	cmp	lr, r4
 80004b8:	f240 8099 	bls.w	80005ee <__udivmoddi4+0x2ce>
 80004bc:	3802      	subs	r0, #2
 80004be:	443c      	add	r4, r7
 80004c0:	eba4 040e 	sub.w	r4, r4, lr
 80004c4:	fa1f fe83 	uxth.w	lr, r3
 80004c8:	fbb4 f3f9 	udiv	r3, r4, r9
 80004cc:	fb09 4413 	mls	r4, r9, r3, r4
 80004d0:	ea4e 4404 	orr.w	r4, lr, r4, lsl #16
 80004d4:	fb03 fc0c 	mul.w	ip, r3, ip
 80004d8:	45a4      	cmp	ip, r4
 80004da:	d908      	bls.n	80004ee <__udivmoddi4+0x1ce>
 80004dc:	193c      	adds	r4, r7, r4
 80004de:	f103 3eff 	add.w	lr, r3, #4294967295
 80004e2:	f080 8082 	bcs.w	80005ea <__udivmoddi4+0x2ca>
 80004e6:	45a4      	cmp	ip, r4
 80004e8:	d97f      	bls.n	80005ea <__udivmoddi4+0x2ca>
 80004ea:	3b02      	subs	r3, #2
 80004ec:	443c      	add	r4, r7
 80004ee:	ea43 4000 	orr.w	r0, r3, r0, lsl #16
 80004f2:	eba4 040c 	sub.w	r4, r4, ip
 80004f6:	fba0 ec02 	umull	lr, ip, r0, r2
 80004fa:	4564      	cmp	r4, ip
 80004fc:	4673      	mov	r3, lr
 80004fe:	46e1      	mov	r9, ip
 8000500:	d362      	bcc.n	80005c8 <__udivmoddi4+0x2a8>
 8000502:	d05f      	beq.n	80005c4 <__udivmoddi4+0x2a4>
 8000504:	b15d      	cbz	r5, 800051e <__udivmoddi4+0x1fe>
 8000506:	ebb8 0203 	subs.w	r2, r8, r3
 800050a:	eb64 0409 	sbc.w	r4, r4, r9
 800050e:	fa04 f606 	lsl.w	r6, r4, r6
 8000512:	fa22 f301 	lsr.w	r3, r2, r1
 8000516:	431e      	orrs	r6, r3
 8000518:	40cc      	lsrs	r4, r1
 800051a:	e9c5 6400 	strd	r6, r4, [r5]
 800051e:	2100      	movs	r1, #0
 8000520:	e74f      	b.n	80003c2 <__udivmoddi4+0xa2>
 8000522:	fbb1 fcf2 	udiv	ip, r1, r2
 8000526:	0c01      	lsrs	r1, r0, #16
 8000528:	ea41 410e 	orr.w	r1, r1, lr, lsl #16
 800052c:	b280      	uxth	r0, r0
 800052e:	ea40 4201 	orr.w	r2, r0, r1, lsl #16
 8000532:	463b      	mov	r3, r7
 8000534:	4638      	mov	r0, r7
 8000536:	463c      	mov	r4, r7
 8000538:	46b8      	mov	r8, r7
 800053a:	46be      	mov	lr, r7
 800053c:	2620      	movs	r6, #32
 800053e:	fbb1 f1f7 	udiv	r1, r1, r7
 8000542:	eba2 0208 	sub.w	r2, r2, r8
 8000546:	ea41 410c 	orr.w	r1, r1, ip, lsl #16
 800054a:	e766      	b.n	800041a <__udivmoddi4+0xfa>
 800054c:	4601      	mov	r1, r0
 800054e:	e718      	b.n	8000382 <__udivmoddi4+0x62>
 8000550:	4610      	mov	r0, r2
 8000552:	e72c      	b.n	80003ae <__udivmoddi4+0x8e>
 8000554:	f1c6 0220 	rsb	r2, r6, #32
 8000558:	fa2e f302 	lsr.w	r3, lr, r2
 800055c:	40b7      	lsls	r7, r6
 800055e:	40b1      	lsls	r1, r6
 8000560:	fa20 f202 	lsr.w	r2, r0, r2
 8000564:	ea4f 4e17 	mov.w	lr, r7, lsr #16
 8000568:	430a      	orrs	r2, r1
 800056a:	fbb3 f8fe 	udiv	r8, r3, lr
 800056e:	b2bc      	uxth	r4, r7
 8000570:	fb0e 3318 	mls	r3, lr, r8, r3
 8000574:	0c11      	lsrs	r1, r2, #16
 8000576:	ea41 4103 	orr.w	r1, r1, r3, lsl #16
 800057a:	fb08 f904 	mul.w	r9, r8, r4
 800057e:	40b0      	lsls	r0, r6
 8000580:	4589      	cmp	r9, r1
 8000582:	ea4f 4310 	mov.w	r3, r0, lsr #16
 8000586:	b280      	uxth	r0, r0
 8000588:	d93e      	bls.n	8000608 <__udivmoddi4+0x2e8>
 800058a:	1879      	adds	r1, r7, r1
 800058c:	f108 3cff 	add.w	ip, r8, #4294967295
 8000590:	d201      	bcs.n	8000596 <__udivmoddi4+0x276>
 8000592:	4589      	cmp	r9, r1
 8000594:	d81f      	bhi.n	80005d6 <__udivmoddi4+0x2b6>
 8000596:	eba1 0109 	sub.w	r1, r1, r9
 800059a:	fbb1 f9fe 	udiv	r9, r1, lr
 800059e:	fb09 f804 	mul.w	r8, r9, r4
 80005a2:	fb0e 1119 	mls	r1, lr, r9, r1
 80005a6:	b292      	uxth	r2, r2
 80005a8:	ea42 4201 	orr.w	r2, r2, r1, lsl #16
 80005ac:	4542      	cmp	r2, r8
 80005ae:	d229      	bcs.n	8000604 <__udivmoddi4+0x2e4>
 80005b0:	18ba      	adds	r2, r7, r2
 80005b2:	f109 31ff 	add.w	r1, r9, #4294967295
 80005b6:	d2c4      	bcs.n	8000542 <__udivmoddi4+0x222>
 80005b8:	4542      	cmp	r2, r8
 80005ba:	d2c2      	bcs.n	8000542 <__udivmoddi4+0x222>
 80005bc:	f1a9 0102 	sub.w	r1, r9, #2
 80005c0:	443a      	add	r2, r7
 80005c2:	e7be      	b.n	8000542 <__udivmoddi4+0x222>
 80005c4:	45f0      	cmp	r8, lr
 80005c6:	d29d      	bcs.n	8000504 <__udivmoddi4+0x1e4>
 80005c8:	ebbe 0302 	subs.w	r3, lr, r2
 80005cc:	eb6c 0c07 	sbc.w	ip, ip, r7
 80005d0:	3801      	subs	r0, #1
 80005d2:	46e1      	mov	r9, ip
 80005d4:	e796      	b.n	8000504 <__udivmoddi4+0x1e4>
 80005d6:	eba7 0909 	sub.w	r9, r7, r9
 80005da:	4449      	add	r1, r9
 80005dc:	f1a8 0c02 	sub.w	ip, r8, #2
 80005e0:	fbb1 f9fe 	udiv	r9, r1, lr
 80005e4:	fb09 f804 	mul.w	r8, r9, r4
 80005e8:	e7db      	b.n	80005a2 <__udivmoddi4+0x282>
 80005ea:	4673      	mov	r3, lr
 80005ec:	e77f      	b.n	80004ee <__udivmoddi4+0x1ce>
 80005ee:	4650      	mov	r0, sl
 80005f0:	e766      	b.n	80004c0 <__udivmoddi4+0x1a0>
 80005f2:	4608      	mov	r0, r1
 80005f4:	e6fd      	b.n	80003f2 <__udivmoddi4+0xd2>
 80005f6:	443b      	add	r3, r7
 80005f8:	3a02      	subs	r2, #2
 80005fa:	e733      	b.n	8000464 <__udivmoddi4+0x144>
 80005fc:	f1ac 0c02 	sub.w	ip, ip, #2
 8000600:	443b      	add	r3, r7
 8000602:	e71c      	b.n	800043e <__udivmoddi4+0x11e>
 8000604:	4649      	mov	r1, r9
 8000606:	e79c      	b.n	8000542 <__udivmoddi4+0x222>
 8000608:	eba1 0109 	sub.w	r1, r1, r9
 800060c:	46c4      	mov	ip, r8
 800060e:	fbb1 f9fe 	udiv	r9, r1, lr
 8000612:	fb09 f804 	mul.w	r8, r9, r4
 8000616:	e7c4      	b.n	80005a2 <__udivmoddi4+0x282>

08000618 <__aeabi_idiv0>:
 8000618:	4770      	bx	lr
 800061a:	bf00      	nop

0800061c <renderPage>:
 *      Author: ACER
 */
#include "LCD_pages.h"
#include "usart.h"

void renderPage(uint8_t state){
 800061c:	b5f0      	push	{r4, r5, r6, r7, lr}
 800061e:	b08f      	sub	sp, #60	@ 0x3c
 8000620:	af0c      	add	r7, sp, #48	@ 0x30
 8000622:	4603      	mov	r3, r0
 8000624:	71fb      	strb	r3, [r7, #7]
	switch (state){
 8000626:	79fb      	ldrb	r3, [r7, #7]
 8000628:	2b04      	cmp	r3, #4
 800062a:	d840      	bhi.n	80006ae <renderPage+0x92>
 800062c:	a201      	add	r2, pc, #4	@ (adr r2, 8000634 <renderPage+0x18>)
 800062e:	f852 f023 	ldr.w	pc, [r2, r3, lsl #2]
 8000632:	bf00      	nop
 8000634:	08000649 	.word	0x08000649
 8000638:	080006a9 	.word	0x080006a9
 800063c:	080006a9 	.word	0x080006a9
 8000640:	080006a9 	.word	0x080006a9
 8000644:	080006a9 	.word	0x080006a9
		case IDLE:
			static uint8_t rendered = 0;
			if (!rendered){
 8000648:	4b1b      	ldr	r3, [pc, #108]	@ (80006b8 <renderPage+0x9c>)
 800064a:	781b      	ldrb	r3, [r3, #0]
 800064c:	2b00      	cmp	r3, #0
 800064e:	d12d      	bne.n	80006ac <renderPage+0x90>
				ILI9341_FillScreen(&ili9341, ILI9341_COLOR_WHITE);
 8000650:	f64f 71ff 	movw	r1, #65535	@ 0xffff
 8000654:	4819      	ldr	r0, [pc, #100]	@ (80006bc <renderPage+0xa0>)
 8000656:	f000 fdd6 	bl	8001206 <ILI9341_FillScreen>
				ILI9341_WriteString(&ili9341, 20, ili9341.height/2, "PLEASE INSERT COIN", ILI9341_Font_Spleen16x32, ILI9341_COLOR_BLACK, ILI9341_COLOR_WHITE, 1, 1, 0, 0);
 800065a:	4b18      	ldr	r3, [pc, #96]	@ (80006bc <renderPage+0xa0>)
 800065c:	6a5b      	ldr	r3, [r3, #36]	@ 0x24
 800065e:	2b00      	cmp	r3, #0
 8000660:	da00      	bge.n	8000664 <renderPage+0x48>
 8000662:	3301      	adds	r3, #1
 8000664:	105b      	asrs	r3, r3, #1
 8000666:	461e      	mov	r6, r3
 8000668:	2300      	movs	r3, #0
 800066a:	930b      	str	r3, [sp, #44]	@ 0x2c
 800066c:	2300      	movs	r3, #0
 800066e:	930a      	str	r3, [sp, #40]	@ 0x28
 8000670:	2301      	movs	r3, #1
 8000672:	9309      	str	r3, [sp, #36]	@ 0x24
 8000674:	2301      	movs	r3, #1
 8000676:	9308      	str	r3, [sp, #32]
 8000678:	f64f 73ff 	movw	r3, #65535	@ 0xffff
 800067c:	9307      	str	r3, [sp, #28]
 800067e:	2300      	movs	r3, #0
 8000680:	9306      	str	r3, [sp, #24]
 8000682:	4b0f      	ldr	r3, [pc, #60]	@ (80006c0 <renderPage+0xa4>)
 8000684:	466c      	mov	r4, sp
 8000686:	461d      	mov	r5, r3
 8000688:	cd0f      	ldmia	r5!, {r0, r1, r2, r3}
 800068a:	c40f      	stmia	r4!, {r0, r1, r2, r3}
 800068c:	e895 0003 	ldmia.w	r5, {r0, r1}
 8000690:	e884 0003 	stmia.w	r4, {r0, r1}
 8000694:	4b0b      	ldr	r3, [pc, #44]	@ (80006c4 <renderPage+0xa8>)
 8000696:	4632      	mov	r2, r6
 8000698:	2114      	movs	r1, #20
 800069a:	4808      	ldr	r0, [pc, #32]	@ (80006bc <renderPage+0xa0>)
 800069c:	f000 ff84 	bl	80015a8 <ILI9341_WriteString>
				rendered = 1;
 80006a0:	4b05      	ldr	r3, [pc, #20]	@ (80006b8 <renderPage+0x9c>)
 80006a2:	2201      	movs	r2, #1
 80006a4:	701a      	strb	r2, [r3, #0]
			}
			break;
 80006a6:	e001      	b.n	80006ac <renderPage+0x90>
		case WAIT_COIN:
			break;
 80006a8:	bf00      	nop
 80006aa:	e000      	b.n	80006ae <renderPage+0x92>
			break;
 80006ac:	bf00      	nop
		case GAME:
			break;
		case DEPOSIT:
			break;
	}
}
 80006ae:	bf00      	nop
 80006b0:	370c      	adds	r7, #12
 80006b2:	46bd      	mov	sp, r7
 80006b4:	bdf0      	pop	{r4, r5, r6, r7, pc}
 80006b6:	bf00      	nop
 80006b8:	2000008c 	.word	0x2000008c
 80006bc:	20000098 	.word	0x20000098
 80006c0:	08007f34 	.word	0x08007f34
 80006c4:	08006ee4 	.word	0x08006ee4

080006c8 <MX_GPIO_Init>:
        * Output
        * EVENT_OUT
        * EXTI
*/
void MX_GPIO_Init(void)
{
 80006c8:	b580      	push	{r7, lr}
 80006ca:	b08e      	sub	sp, #56	@ 0x38
 80006cc:	af00      	add	r7, sp, #0

  GPIO_InitTypeDef GPIO_InitStruct = {0};
 80006ce:	f107 0324 	add.w	r3, r7, #36	@ 0x24
 80006d2:	2200      	movs	r2, #0
 80006d4:	601a      	str	r2, [r3, #0]
 80006d6:	605a      	str	r2, [r3, #4]
 80006d8:	609a      	str	r2, [r3, #8]
 80006da:	60da      	str	r2, [r3, #12]
 80006dc:	611a      	str	r2, [r3, #16]

  /* GPIO Ports Clock Enable */
  __HAL_RCC_GPIOC_CLK_ENABLE();
 80006de:	4b85      	ldr	r3, [pc, #532]	@ (80008f4 <MX_GPIO_Init+0x22c>)
 80006e0:	6b1b      	ldr	r3, [r3, #48]	@ 0x30
 80006e2:	4a84      	ldr	r2, [pc, #528]	@ (80008f4 <MX_GPIO_Init+0x22c>)
 80006e4:	f043 0304 	orr.w	r3, r3, #4
 80006e8:	6313      	str	r3, [r2, #48]	@ 0x30
 80006ea:	4b82      	ldr	r3, [pc, #520]	@ (80008f4 <MX_GPIO_Init+0x22c>)
 80006ec:	6b1b      	ldr	r3, [r3, #48]	@ 0x30
 80006ee:	f003 0304 	and.w	r3, r3, #4
 80006f2:	623b      	str	r3, [r7, #32]
 80006f4:	6a3b      	ldr	r3, [r7, #32]
  __HAL_RCC_GPIOF_CLK_ENABLE();
 80006f6:	4b7f      	ldr	r3, [pc, #508]	@ (80008f4 <MX_GPIO_Init+0x22c>)
 80006f8:	6b1b      	ldr	r3, [r3, #48]	@ 0x30
 80006fa:	4a7e      	ldr	r2, [pc, #504]	@ (80008f4 <MX_GPIO_Init+0x22c>)
 80006fc:	f043 0320 	orr.w	r3, r3, #32
 8000700:	6313      	str	r3, [r2, #48]	@ 0x30
 8000702:	4b7c      	ldr	r3, [pc, #496]	@ (80008f4 <MX_GPIO_Init+0x22c>)
 8000704:	6b1b      	ldr	r3, [r3, #48]	@ 0x30
 8000706:	f003 0320 	and.w	r3, r3, #32
 800070a:	61fb      	str	r3, [r7, #28]
 800070c:	69fb      	ldr	r3, [r7, #28]
  __HAL_RCC_GPIOH_CLK_ENABLE();
 800070e:	4b79      	ldr	r3, [pc, #484]	@ (80008f4 <MX_GPIO_Init+0x22c>)
 8000710:	6b1b      	ldr	r3, [r3, #48]	@ 0x30
 8000712:	4a78      	ldr	r2, [pc, #480]	@ (80008f4 <MX_GPIO_Init+0x22c>)
 8000714:	f043 0380 	orr.w	r3, r3, #128	@ 0x80
 8000718:	6313      	str	r3, [r2, #48]	@ 0x30
 800071a:	4b76      	ldr	r3, [pc, #472]	@ (80008f4 <MX_GPIO_Init+0x22c>)
 800071c:	6b1b      	ldr	r3, [r3, #48]	@ 0x30
 800071e:	f003 0380 	and.w	r3, r3, #128	@ 0x80
 8000722:	61bb      	str	r3, [r7, #24]
 8000724:	69bb      	ldr	r3, [r7, #24]
  __HAL_RCC_GPIOA_CLK_ENABLE();
 8000726:	4b73      	ldr	r3, [pc, #460]	@ (80008f4 <MX_GPIO_Init+0x22c>)
 8000728:	6b1b      	ldr	r3, [r3, #48]	@ 0x30
 800072a:	4a72      	ldr	r2, [pc, #456]	@ (80008f4 <MX_GPIO_Init+0x22c>)
 800072c:	f043 0301 	orr.w	r3, r3, #1
 8000730:	6313      	str	r3, [r2, #48]	@ 0x30
 8000732:	4b70      	ldr	r3, [pc, #448]	@ (80008f4 <MX_GPIO_Init+0x22c>)
 8000734:	6b1b      	ldr	r3, [r3, #48]	@ 0x30
 8000736:	f003 0301 	and.w	r3, r3, #1
 800073a:	617b      	str	r3, [r7, #20]
 800073c:	697b      	ldr	r3, [r7, #20]
  __HAL_RCC_GPIOB_CLK_ENABLE();
 800073e:	4b6d      	ldr	r3, [pc, #436]	@ (80008f4 <MX_GPIO_Init+0x22c>)
 8000740:	6b1b      	ldr	r3, [r3, #48]	@ 0x30
 8000742:	4a6c      	ldr	r2, [pc, #432]	@ (80008f4 <MX_GPIO_Init+0x22c>)
 8000744:	f043 0302 	orr.w	r3, r3, #2
 8000748:	6313      	str	r3, [r2, #48]	@ 0x30
 800074a:	4b6a      	ldr	r3, [pc, #424]	@ (80008f4 <MX_GPIO_Init+0x22c>)
 800074c:	6b1b      	ldr	r3, [r3, #48]	@ 0x30
 800074e:	f003 0302 	and.w	r3, r3, #2
 8000752:	613b      	str	r3, [r7, #16]
 8000754:	693b      	ldr	r3, [r7, #16]
  __HAL_RCC_GPIOE_CLK_ENABLE();
 8000756:	4b67      	ldr	r3, [pc, #412]	@ (80008f4 <MX_GPIO_Init+0x22c>)
 8000758:	6b1b      	ldr	r3, [r3, #48]	@ 0x30
 800075a:	4a66      	ldr	r2, [pc, #408]	@ (80008f4 <MX_GPIO_Init+0x22c>)
 800075c:	f043 0310 	orr.w	r3, r3, #16
 8000760:	6313      	str	r3, [r2, #48]	@ 0x30
 8000762:	4b64      	ldr	r3, [pc, #400]	@ (80008f4 <MX_GPIO_Init+0x22c>)
 8000764:	6b1b      	ldr	r3, [r3, #48]	@ 0x30
 8000766:	f003 0310 	and.w	r3, r3, #16
 800076a:	60fb      	str	r3, [r7, #12]
 800076c:	68fb      	ldr	r3, [r7, #12]
  __HAL_RCC_GPIOD_CLK_ENABLE();
 800076e:	4b61      	ldr	r3, [pc, #388]	@ (80008f4 <MX_GPIO_Init+0x22c>)
 8000770:	6b1b      	ldr	r3, [r3, #48]	@ 0x30
 8000772:	4a60      	ldr	r2, [pc, #384]	@ (80008f4 <MX_GPIO_Init+0x22c>)
 8000774:	f043 0308 	orr.w	r3, r3, #8
 8000778:	6313      	str	r3, [r2, #48]	@ 0x30
 800077a:	4b5e      	ldr	r3, [pc, #376]	@ (80008f4 <MX_GPIO_Init+0x22c>)
 800077c:	6b1b      	ldr	r3, [r3, #48]	@ 0x30
 800077e:	f003 0308 	and.w	r3, r3, #8
 8000782:	60bb      	str	r3, [r7, #8]
 8000784:	68bb      	ldr	r3, [r7, #8]
  __HAL_RCC_GPIOG_CLK_ENABLE();
 8000786:	4b5b      	ldr	r3, [pc, #364]	@ (80008f4 <MX_GPIO_Init+0x22c>)
 8000788:	6b1b      	ldr	r3, [r3, #48]	@ 0x30
 800078a:	4a5a      	ldr	r2, [pc, #360]	@ (80008f4 <MX_GPIO_Init+0x22c>)
 800078c:	f043 0340 	orr.w	r3, r3, #64	@ 0x40
 8000790:	6313      	str	r3, [r2, #48]	@ 0x30
 8000792:	4b58      	ldr	r3, [pc, #352]	@ (80008f4 <MX_GPIO_Init+0x22c>)
 8000794:	6b1b      	ldr	r3, [r3, #48]	@ 0x30
 8000796:	f003 0340 	and.w	r3, r3, #64	@ 0x40
 800079a:	607b      	str	r3, [r7, #4]
 800079c:	687b      	ldr	r3, [r7, #4]

  /*Configure GPIO pin Output Level */
  HAL_GPIO_WritePin(GPIOB, LD1_Pin|LD3_Pin|LD2_Pin, GPIO_PIN_RESET);
 800079e:	2200      	movs	r2, #0
 80007a0:	f244 0181 	movw	r1, #16513	@ 0x4081
 80007a4:	4854      	ldr	r0, [pc, #336]	@ (80008f8 <MX_GPIO_Init+0x230>)
 80007a6:	f002 fad1 	bl	8002d4c <HAL_GPIO_WritePin>

  /*Configure GPIO pin Output Level */
  HAL_GPIO_WritePin(GPIOF, GPIO_PIN_15, GPIO_PIN_RESET);
 80007aa:	2200      	movs	r2, #0
 80007ac:	f44f 4100 	mov.w	r1, #32768	@ 0x8000
 80007b0:	4852      	ldr	r0, [pc, #328]	@ (80008fc <MX_GPIO_Init+0x234>)
 80007b2:	f002 facb 	bl	8002d4c <HAL_GPIO_WritePin>

  /*Configure GPIO pin Output Level */
  HAL_GPIO_WritePin(GPIOE, GPIO_PIN_7|GPIO_PIN_8|GPIO_PIN_10|GPIO_PIN_13, GPIO_PIN_RESET);
 80007b6:	2200      	movs	r2, #0
 80007b8:	f44f 5116 	mov.w	r1, #9600	@ 0x2580
 80007bc:	4850      	ldr	r0, [pc, #320]	@ (8000900 <MX_GPIO_Init+0x238>)
 80007be:	f002 fac5 	bl	8002d4c <HAL_GPIO_WritePin>

  /*Configure GPIO pin Output Level */
  HAL_GPIO_WritePin(GPIOC, CS_Pin|DC_Pin|RESET_Pin, GPIO_PIN_RESET);
 80007c2:	2200      	movs	r2, #0
 80007c4:	f44f 61e0 	mov.w	r1, #1792	@ 0x700
 80007c8:	484e      	ldr	r0, [pc, #312]	@ (8000904 <MX_GPIO_Init+0x23c>)
 80007ca:	f002 fabf 	bl	8002d4c <HAL_GPIO_WritePin>

  /*Configure GPIO pin Output Level */
  HAL_GPIO_WritePin(GPIOG, GPIO_PIN_9|GPIO_PIN_14, GPIO_PIN_RESET);
 80007ce:	2200      	movs	r2, #0
 80007d0:	f44f 4184 	mov.w	r1, #16896	@ 0x4200
 80007d4:	484c      	ldr	r0, [pc, #304]	@ (8000908 <MX_GPIO_Init+0x240>)
 80007d6:	f002 fab9 	bl	8002d4c <HAL_GPIO_WritePin>

  /*Configure GPIO pins : LD1_Pin LD3_Pin LD2_Pin */
  GPIO_InitStruct.Pin = LD1_Pin|LD3_Pin|LD2_Pin;
 80007da:	f244 0381 	movw	r3, #16513	@ 0x4081
 80007de:	627b      	str	r3, [r7, #36]	@ 0x24
  GPIO_InitStruct.Mode = GPIO_MODE_OUTPUT_PP;
 80007e0:	2301      	movs	r3, #1
 80007e2:	62bb      	str	r3, [r7, #40]	@ 0x28
  GPIO_InitStruct.Pull = GPIO_NOPULL;
 80007e4:	2300      	movs	r3, #0
 80007e6:	62fb      	str	r3, [r7, #44]	@ 0x2c
  GPIO_InitStruct.Speed = GPIO_SPEED_FREQ_LOW;
 80007e8:	2300      	movs	r3, #0
 80007ea:	633b      	str	r3, [r7, #48]	@ 0x30
  HAL_GPIO_Init(GPIOB, &GPIO_InitStruct);
 80007ec:	f107 0324 	add.w	r3, r7, #36	@ 0x24
 80007f0:	4619      	mov	r1, r3
 80007f2:	4841      	ldr	r0, [pc, #260]	@ (80008f8 <MX_GPIO_Init+0x230>)
 80007f4:	f002 f8e6 	bl	80029c4 <HAL_GPIO_Init>

  /*Configure GPIO pins : PF13 PF14 */
  GPIO_InitStruct.Pin = GPIO_PIN_13|GPIO_PIN_14;
 80007f8:	f44f 43c0 	mov.w	r3, #24576	@ 0x6000
 80007fc:	627b      	str	r3, [r7, #36]	@ 0x24
  GPIO_InitStruct.Mode = GPIO_MODE_INPUT;
 80007fe:	2300      	movs	r3, #0
 8000800:	62bb      	str	r3, [r7, #40]	@ 0x28
  GPIO_InitStruct.Pull = GPIO_PULLUP;
 8000802:	2301      	movs	r3, #1
 8000804:	62fb      	str	r3, [r7, #44]	@ 0x2c
  HAL_GPIO_Init(GPIOF, &GPIO_InitStruct);
 8000806:	f107 0324 	add.w	r3, r7, #36	@ 0x24
 800080a:	4619      	mov	r1, r3
 800080c:	483b      	ldr	r0, [pc, #236]	@ (80008fc <MX_GPIO_Init+0x234>)
 800080e:	f002 f8d9 	bl	80029c4 <HAL_GPIO_Init>

  /*Configure GPIO pin : PF15 */
  GPIO_InitStruct.Pin = GPIO_PIN_15;
 8000812:	f44f 4300 	mov.w	r3, #32768	@ 0x8000
 8000816:	627b      	str	r3, [r7, #36]	@ 0x24
  GPIO_InitStruct.Mode = GPIO_MODE_OUTPUT_PP;
 8000818:	2301      	movs	r3, #1
 800081a:	62bb      	str	r3, [r7, #40]	@ 0x28
  GPIO_InitStruct.Pull = GPIO_NOPULL;
 800081c:	2300      	movs	r3, #0
 800081e:	62fb      	str	r3, [r7, #44]	@ 0x2c
  GPIO_InitStruct.Speed = GPIO_SPEED_FREQ_LOW;
 8000820:	2300      	movs	r3, #0
 8000822:	633b      	str	r3, [r7, #48]	@ 0x30
  HAL_GPIO_Init(GPIOF, &GPIO_InitStruct);
 8000824:	f107 0324 	add.w	r3, r7, #36	@ 0x24
 8000828:	4619      	mov	r1, r3
 800082a:	4834      	ldr	r0, [pc, #208]	@ (80008fc <MX_GPIO_Init+0x234>)
 800082c:	f002 f8ca 	bl	80029c4 <HAL_GPIO_Init>

  /*Configure GPIO pins : PE7 PE8 PE10 PE13 */
  GPIO_InitStruct.Pin = GPIO_PIN_7|GPIO_PIN_8|GPIO_PIN_10|GPIO_PIN_13;
 8000830:	f44f 5316 	mov.w	r3, #9600	@ 0x2580
 8000834:	627b      	str	r3, [r7, #36]	@ 0x24
  GPIO_InitStruct.Mode = GPIO_MODE_OUTPUT_PP;
 8000836:	2301      	movs	r3, #1
 8000838:	62bb      	str	r3, [r7, #40]	@ 0x28
  GPIO_InitStruct.Pull = GPIO_NOPULL;
 800083a:	2300      	movs	r3, #0
 800083c:	62fb      	str	r3, [r7, #44]	@ 0x2c
  GPIO_InitStruct.Speed = GPIO_SPEED_FREQ_LOW;
 800083e:	2300      	movs	r3, #0
 8000840:	633b      	str	r3, [r7, #48]	@ 0x30
  HAL_GPIO_Init(GPIOE, &GPIO_InitStruct);
 8000842:	f107 0324 	add.w	r3, r7, #36	@ 0x24
 8000846:	4619      	mov	r1, r3
 8000848:	482d      	ldr	r0, [pc, #180]	@ (8000900 <MX_GPIO_Init+0x238>)
 800084a:	f002 f8bb 	bl	80029c4 <HAL_GPIO_Init>

  /*Configure GPIO pins : PE9 PE11 */
  GPIO_InitStruct.Pin = GPIO_PIN_9|GPIO_PIN_11;
 800084e:	f44f 6320 	mov.w	r3, #2560	@ 0xa00
 8000852:	627b      	str	r3, [r7, #36]	@ 0x24
  GPIO_InitStruct.Mode = GPIO_MODE_INPUT;
 8000854:	2300      	movs	r3, #0
 8000856:	62bb      	str	r3, [r7, #40]	@ 0x28
  GPIO_InitStruct.Pull = GPIO_PULLUP;
 8000858:	2301      	movs	r3, #1
 800085a:	62fb      	str	r3, [r7, #44]	@ 0x2c
  HAL_GPIO_Init(GPIOE, &GPIO_InitStruct);
 800085c:	f107 0324 	add.w	r3, r7, #36	@ 0x24
 8000860:	4619      	mov	r1, r3
 8000862:	4827      	ldr	r0, [pc, #156]	@ (8000900 <MX_GPIO_Init+0x238>)
 8000864:	f002 f8ae 	bl	80029c4 <HAL_GPIO_Init>

  /*Configure GPIO pin : PD13 */
  GPIO_InitStruct.Pin = GPIO_PIN_13;
 8000868:	f44f 5300 	mov.w	r3, #8192	@ 0x2000
 800086c:	627b      	str	r3, [r7, #36]	@ 0x24
  GPIO_InitStruct.Mode = GPIO_MODE_INPUT;
 800086e:	2300      	movs	r3, #0
 8000870:	62bb      	str	r3, [r7, #40]	@ 0x28
  GPIO_InitStruct.Pull = GPIO_NOPULL;
 8000872:	2300      	movs	r3, #0
 8000874:	62fb      	str	r3, [r7, #44]	@ 0x2c
  HAL_GPIO_Init(GPIOD, &GPIO_InitStruct);
 8000876:	f107 0324 	add.w	r3, r7, #36	@ 0x24
 800087a:	4619      	mov	r1, r3
 800087c:	4823      	ldr	r0, [pc, #140]	@ (800090c <MX_GPIO_Init+0x244>)
 800087e:	f002 f8a1 	bl	80029c4 <HAL_GPIO_Init>

  /*Configure GPIO pins : CS_Pin DC_Pin RESET_Pin */
  GPIO_InitStruct.Pin = CS_Pin|DC_Pin|RESET_Pin;
 8000882:	f44f 63e0 	mov.w	r3, #1792	@ 0x700
 8000886:	627b      	str	r3, [r7, #36]	@ 0x24
  GPIO_InitStruct.Mode = GPIO_MODE_OUTPUT_PP;
 8000888:	2301      	movs	r3, #1
 800088a:	62bb      	str	r3, [r7, #40]	@ 0x28
  GPIO_InitStruct.Pull = GPIO_NOPULL;
 800088c:	2300      	movs	r3, #0
 800088e:	62fb      	str	r3, [r7, #44]	@ 0x2c
  GPIO_InitStruct.Speed = GPIO_SPEED_FREQ_LOW;
 8000890:	2300      	movs	r3, #0
 8000892:	633b      	str	r3, [r7, #48]	@ 0x30
  HAL_GPIO_Init(GPIOC, &GPIO_InitStruct);
 8000894:	f107 0324 	add.w	r3, r7, #36	@ 0x24
 8000898:	4619      	mov	r1, r3
 800089a:	481a      	ldr	r0, [pc, #104]	@ (8000904 <MX_GPIO_Init+0x23c>)
 800089c:	f002 f892 	bl	80029c4 <HAL_GPIO_Init>

  /*Configure GPIO pins : PG9 PG14 */
  GPIO_InitStruct.Pin = GPIO_PIN_9|GPIO_PIN_14;
 80008a0:	f44f 4384 	mov.w	r3, #16896	@ 0x4200
 80008a4:	627b      	str	r3, [r7, #36]	@ 0x24
  GPIO_InitStruct.Mode = GPIO_MODE_OUTPUT_PP;
 80008a6:	2301      	movs	r3, #1
 80008a8:	62bb      	str	r3, [r7, #40]	@ 0x28
  GPIO_InitStruct.Pull = GPIO_NOPULL;
 80008aa:	2300      	movs	r3, #0
 80008ac:	62fb      	str	r3, [r7, #44]	@ 0x2c
  GPIO_InitStruct.Speed = GPIO_SPEED_FREQ_LOW;
 80008ae:	2300      	movs	r3, #0
 80008b0:	633b      	str	r3, [r7, #48]	@ 0x30
  HAL_GPIO_Init(GPIOG, &GPIO_InitStruct);
 80008b2:	f107 0324 	add.w	r3, r7, #36	@ 0x24
 80008b6:	4619      	mov	r1, r3
 80008b8:	4813      	ldr	r0, [pc, #76]	@ (8000908 <MX_GPIO_Init+0x240>)
 80008ba:	f002 f883 	bl	80029c4 <HAL_GPIO_Init>

  /*Configure GPIO pin : PB8 */
  GPIO_InitStruct.Pin = GPIO_PIN_8;
 80008be:	f44f 7380 	mov.w	r3, #256	@ 0x100
 80008c2:	627b      	str	r3, [r7, #36]	@ 0x24
  GPIO_InitStruct.Mode = GPIO_MODE_IT_RISING;
 80008c4:	f44f 1388 	mov.w	r3, #1114112	@ 0x110000
 80008c8:	62bb      	str	r3, [r7, #40]	@ 0x28
  GPIO_InitStruct.Pull = GPIO_NOPULL;
 80008ca:	2300      	movs	r3, #0
 80008cc:	62fb      	str	r3, [r7, #44]	@ 0x2c
  HAL_GPIO_Init(GPIOB, &GPIO_InitStruct);
 80008ce:	f107 0324 	add.w	r3, r7, #36	@ 0x24
 80008d2:	4619      	mov	r1, r3
 80008d4:	4808      	ldr	r0, [pc, #32]	@ (80008f8 <MX_GPIO_Init+0x230>)
 80008d6:	f002 f875 	bl	80029c4 <HAL_GPIO_Init>

  /* EXTI interrupt init*/
  HAL_NVIC_SetPriority(EXTI9_5_IRQn, 1, 0);
 80008da:	2200      	movs	r2, #0
 80008dc:	2101      	movs	r1, #1
 80008de:	2017      	movs	r0, #23
 80008e0:	f002 f839 	bl	8002956 <HAL_NVIC_SetPriority>
  HAL_NVIC_EnableIRQ(EXTI9_5_IRQn);
 80008e4:	2017      	movs	r0, #23
 80008e6:	f002 f852 	bl	800298e <HAL_NVIC_EnableIRQ>

}
 80008ea:	bf00      	nop
 80008ec:	3738      	adds	r7, #56	@ 0x38
 80008ee:	46bd      	mov	sp, r7
 80008f0:	bd80      	pop	{r7, pc}
 80008f2:	bf00      	nop
 80008f4:	40023800 	.word	0x40023800
 80008f8:	40020400 	.word	0x40020400
 80008fc:	40021400 	.word	0x40021400
 8000900:	40021000 	.word	0x40021000
 8000904:	40020800 	.word	0x40020800
 8000908:	40021800 	.word	0x40021800
 800090c:	40020c00 	.word	0x40020c00

08000910 <ILI9341_Select>:
 8000910:	b580      	push	{r7, lr}
 8000912:	b082      	sub	sp, #8
 8000914:	af00      	add	r7, sp, #0
 8000916:	6078      	str	r0, [r7, #4]
 8000918:	687b      	ldr	r3, [r7, #4]
 800091a:	6858      	ldr	r0, [r3, #4]
 800091c:	687b      	ldr	r3, [r7, #4]
 800091e:	891b      	ldrh	r3, [r3, #8]
 8000920:	2200      	movs	r2, #0
 8000922:	4619      	mov	r1, r3
 8000924:	f002 fa12 	bl	8002d4c <HAL_GPIO_WritePin>
 8000928:	bf00      	nop
 800092a:	3708      	adds	r7, #8
 800092c:	46bd      	mov	sp, r7
 800092e:	bd80      	pop	{r7, pc}

08000930 <ILI9341_Deselect>:
 8000930:	b580      	push	{r7, lr}
 8000932:	b082      	sub	sp, #8
 8000934:	af00      	add	r7, sp, #0
 8000936:	6078      	str	r0, [r7, #4]
 8000938:	687b      	ldr	r3, [r7, #4]
 800093a:	6858      	ldr	r0, [r3, #4]
 800093c:	687b      	ldr	r3, [r7, #4]
 800093e:	891b      	ldrh	r3, [r3, #8]
 8000940:	2201      	movs	r2, #1
 8000942:	4619      	mov	r1, r3
 8000944:	f002 fa02 	bl	8002d4c <HAL_GPIO_WritePin>
 8000948:	bf00      	nop
 800094a:	3708      	adds	r7, #8
 800094c:	46bd      	mov	sp, r7
 800094e:	bd80      	pop	{r7, pc}

08000950 <ILI9341_Reset>:
 8000950:	b580      	push	{r7, lr}
 8000952:	b082      	sub	sp, #8
 8000954:	af00      	add	r7, sp, #0
 8000956:	6078      	str	r0, [r7, #4]
 8000958:	687b      	ldr	r3, [r7, #4]
 800095a:	6958      	ldr	r0, [r3, #20]
 800095c:	687b      	ldr	r3, [r7, #4]
 800095e:	8b1b      	ldrh	r3, [r3, #24]
 8000960:	2200      	movs	r2, #0
 8000962:	4619      	mov	r1, r3
 8000964:	f002 f9f2 	bl	8002d4c <HAL_GPIO_WritePin>
 8000968:	2005      	movs	r0, #5
 800096a:	f001 fef5 	bl	8002758 <HAL_Delay>
 800096e:	687b      	ldr	r3, [r7, #4]
 8000970:	6958      	ldr	r0, [r3, #20]
 8000972:	687b      	ldr	r3, [r7, #4]
 8000974:	8b1b      	ldrh	r3, [r3, #24]
 8000976:	2201      	movs	r2, #1
 8000978:	4619      	mov	r1, r3
 800097a:	f002 f9e7 	bl	8002d4c <HAL_GPIO_WritePin>
 800097e:	bf00      	nop
 8000980:	3708      	adds	r7, #8
 8000982:	46bd      	mov	sp, r7
 8000984:	bd80      	pop	{r7, pc}

08000986 <ILI9341_WriteCommand>:
 8000986:	b580      	push	{r7, lr}
 8000988:	b082      	sub	sp, #8
 800098a:	af00      	add	r7, sp, #0
 800098c:	6078      	str	r0, [r7, #4]
 800098e:	460b      	mov	r3, r1
 8000990:	70fb      	strb	r3, [r7, #3]
 8000992:	687b      	ldr	r3, [r7, #4]
 8000994:	68d8      	ldr	r0, [r3, #12]
 8000996:	687b      	ldr	r3, [r7, #4]
 8000998:	8a1b      	ldrh	r3, [r3, #16]
 800099a:	2200      	movs	r2, #0
 800099c:	4619      	mov	r1, r3
 800099e:	f002 f9d5 	bl	8002d4c <HAL_GPIO_WritePin>
 80009a2:	687b      	ldr	r3, [r7, #4]
 80009a4:	6818      	ldr	r0, [r3, #0]
 80009a6:	1cf9      	adds	r1, r7, #3
 80009a8:	f04f 33ff 	mov.w	r3, #4294967295
 80009ac:	2201      	movs	r2, #1
 80009ae:	f003 fc06 	bl	80041be <HAL_SPI_Transmit>
 80009b2:	bf00      	nop
 80009b4:	3708      	adds	r7, #8
 80009b6:	46bd      	mov	sp, r7
 80009b8:	bd80      	pop	{r7, pc}

080009ba <ILI9341_WriteData>:
 80009ba:	b580      	push	{r7, lr}
 80009bc:	b086      	sub	sp, #24
 80009be:	af00      	add	r7, sp, #0
 80009c0:	60f8      	str	r0, [r7, #12]
 80009c2:	60b9      	str	r1, [r7, #8]
 80009c4:	607a      	str	r2, [r7, #4]
 80009c6:	68fb      	ldr	r3, [r7, #12]
 80009c8:	68d8      	ldr	r0, [r3, #12]
 80009ca:	68fb      	ldr	r3, [r7, #12]
 80009cc:	8a1b      	ldrh	r3, [r3, #16]
 80009ce:	2201      	movs	r2, #1
 80009d0:	4619      	mov	r1, r3
 80009d2:	f002 f9bb 	bl	8002d4c <HAL_GPIO_WritePin>
 80009d6:	e016      	b.n	8000a06 <ILI9341_WriteData+0x4c>
 80009d8:	687b      	ldr	r3, [r7, #4]
 80009da:	f5b3 4f00 	cmp.w	r3, #32768	@ 0x8000
 80009de:	bf28      	it	cs
 80009e0:	f44f 4300 	movcs.w	r3, #32768	@ 0x8000
 80009e4:	82fb      	strh	r3, [r7, #22]
 80009e6:	68fb      	ldr	r3, [r7, #12]
 80009e8:	6818      	ldr	r0, [r3, #0]
 80009ea:	8afa      	ldrh	r2, [r7, #22]
 80009ec:	f04f 33ff 	mov.w	r3, #4294967295
 80009f0:	68b9      	ldr	r1, [r7, #8]
 80009f2:	f003 fbe4 	bl	80041be <HAL_SPI_Transmit>
 80009f6:	8afb      	ldrh	r3, [r7, #22]
 80009f8:	68ba      	ldr	r2, [r7, #8]
 80009fa:	4413      	add	r3, r2
 80009fc:	60bb      	str	r3, [r7, #8]
 80009fe:	8afb      	ldrh	r3, [r7, #22]
 8000a00:	687a      	ldr	r2, [r7, #4]
 8000a02:	1ad3      	subs	r3, r2, r3
 8000a04:	607b      	str	r3, [r7, #4]
 8000a06:	687b      	ldr	r3, [r7, #4]
 8000a08:	2b00      	cmp	r3, #0
 8000a0a:	d1e5      	bne.n	80009d8 <ILI9341_WriteData+0x1e>
 8000a0c:	bf00      	nop
 8000a0e:	bf00      	nop
 8000a10:	3718      	adds	r7, #24
 8000a12:	46bd      	mov	sp, r7
 8000a14:	bd80      	pop	{r7, pc}
	...

08000a18 <ILI9341_Init>:
 8000a18:	b5b0      	push	{r4, r5, r7, lr}
 8000a1a:	b0ae      	sub	sp, #184	@ 0xb8
 8000a1c:	af00      	add	r7, sp, #0
 8000a1e:	60f8      	str	r0, [r7, #12]
 8000a20:	60b9      	str	r1, [r7, #8]
 8000a22:	607a      	str	r2, [r7, #4]
 8000a24:	807b      	strh	r3, [r7, #2]
 8000a26:	f8d7 30dc 	ldr.w	r3, [r7, #220]	@ 0xdc
 8000a2a:	2b00      	cmp	r3, #0
 8000a2c:	bfb8      	it	lt
 8000a2e:	425b      	neglt	r3, r3
 8000a30:	f8c7 30dc 	str.w	r3, [r7, #220]	@ 0xdc
 8000a34:	f8d7 30e0 	ldr.w	r3, [r7, #224]	@ 0xe0
 8000a38:	2b00      	cmp	r3, #0
 8000a3a:	bfb8      	it	lt
 8000a3c:	425b      	neglt	r3, r3
 8000a3e:	f8c7 30e0 	str.w	r3, [r7, #224]	@ 0xe0
 8000a42:	68bb      	ldr	r3, [r7, #8]
 8000a44:	f8c7 3088 	str.w	r3, [r7, #136]	@ 0x88
 8000a48:	687b      	ldr	r3, [r7, #4]
 8000a4a:	f8c7 308c 	str.w	r3, [r7, #140]	@ 0x8c
 8000a4e:	887b      	ldrh	r3, [r7, #2]
 8000a50:	f8a7 3090 	strh.w	r3, [r7, #144]	@ 0x90
 8000a54:	f8d7 30c8 	ldr.w	r3, [r7, #200]	@ 0xc8
 8000a58:	f8c7 3094 	str.w	r3, [r7, #148]	@ 0x94
 8000a5c:	f8b7 30cc 	ldrh.w	r3, [r7, #204]	@ 0xcc
 8000a60:	f8a7 3098 	strh.w	r3, [r7, #152]	@ 0x98
 8000a64:	f8d7 30d0 	ldr.w	r3, [r7, #208]	@ 0xd0
 8000a68:	f8c7 309c 	str.w	r3, [r7, #156]	@ 0x9c
 8000a6c:	f8b7 30d4 	ldrh.w	r3, [r7, #212]	@ 0xd4
 8000a70:	f8a7 30a0 	strh.w	r3, [r7, #160]	@ 0xa0
 8000a74:	f8d7 30d8 	ldr.w	r3, [r7, #216]	@ 0xd8
 8000a78:	f8c7 30a4 	str.w	r3, [r7, #164]	@ 0xa4
 8000a7c:	f8d7 30dc 	ldr.w	r3, [r7, #220]	@ 0xdc
 8000a80:	f8c7 30a8 	str.w	r3, [r7, #168]	@ 0xa8
 8000a84:	f8d7 30e0 	ldr.w	r3, [r7, #224]	@ 0xe0
 8000a88:	f8c7 30ac 	str.w	r3, [r7, #172]	@ 0xac
 8000a8c:	f107 0388 	add.w	r3, r7, #136	@ 0x88
 8000a90:	f8c7 30b4 	str.w	r3, [r7, #180]	@ 0xb4
 8000a94:	f8d7 00b4 	ldr.w	r0, [r7, #180]	@ 0xb4
 8000a98:	f7ff ff3a 	bl	8000910 <ILI9341_Select>
 8000a9c:	f8d7 00b4 	ldr.w	r0, [r7, #180]	@ 0xb4
 8000aa0:	f7ff ff56 	bl	8000950 <ILI9341_Reset>
 8000aa4:	2101      	movs	r1, #1
 8000aa6:	f8d7 00b4 	ldr.w	r0, [r7, #180]	@ 0xb4
 8000aaa:	f7ff ff6c 	bl	8000986 <ILI9341_WriteCommand>
 8000aae:	f44f 707a 	mov.w	r0, #1000	@ 0x3e8
 8000ab2:	f001 fe51 	bl	8002758 <HAL_Delay>
 8000ab6:	21cb      	movs	r1, #203	@ 0xcb
 8000ab8:	f8d7 00b4 	ldr.w	r0, [r7, #180]	@ 0xb4
 8000abc:	f7ff ff63 	bl	8000986 <ILI9341_WriteCommand>
 8000ac0:	4ad9      	ldr	r2, [pc, #868]	@ (8000e28 <ILI9341_Init+0x410>)
 8000ac2:	f107 0380 	add.w	r3, r7, #128	@ 0x80
 8000ac6:	e892 0003 	ldmia.w	r2, {r0, r1}
 8000aca:	6018      	str	r0, [r3, #0]
 8000acc:	3304      	adds	r3, #4
 8000ace:	7019      	strb	r1, [r3, #0]
 8000ad0:	f107 0380 	add.w	r3, r7, #128	@ 0x80
 8000ad4:	2205      	movs	r2, #5
 8000ad6:	4619      	mov	r1, r3
 8000ad8:	f8d7 00b4 	ldr.w	r0, [r7, #180]	@ 0xb4
 8000adc:	f7ff ff6d 	bl	80009ba <ILI9341_WriteData>
 8000ae0:	21cf      	movs	r1, #207	@ 0xcf
 8000ae2:	f8d7 00b4 	ldr.w	r0, [r7, #180]	@ 0xb4
 8000ae6:	f7ff ff4e 	bl	8000986 <ILI9341_WriteCommand>
 8000aea:	4ad0      	ldr	r2, [pc, #832]	@ (8000e2c <ILI9341_Init+0x414>)
 8000aec:	f107 037c 	add.w	r3, r7, #124	@ 0x7c
 8000af0:	6812      	ldr	r2, [r2, #0]
 8000af2:	4611      	mov	r1, r2
 8000af4:	8019      	strh	r1, [r3, #0]
 8000af6:	3302      	adds	r3, #2
 8000af8:	0c12      	lsrs	r2, r2, #16
 8000afa:	701a      	strb	r2, [r3, #0]
 8000afc:	f107 037c 	add.w	r3, r7, #124	@ 0x7c
 8000b00:	2203      	movs	r2, #3
 8000b02:	4619      	mov	r1, r3
 8000b04:	f8d7 00b4 	ldr.w	r0, [r7, #180]	@ 0xb4
 8000b08:	f7ff ff57 	bl	80009ba <ILI9341_WriteData>
 8000b0c:	21e8      	movs	r1, #232	@ 0xe8
 8000b0e:	f8d7 00b4 	ldr.w	r0, [r7, #180]	@ 0xb4
 8000b12:	f7ff ff38 	bl	8000986 <ILI9341_WriteCommand>
 8000b16:	4ac6      	ldr	r2, [pc, #792]	@ (8000e30 <ILI9341_Init+0x418>)
 8000b18:	f107 0378 	add.w	r3, r7, #120	@ 0x78
 8000b1c:	6812      	ldr	r2, [r2, #0]
 8000b1e:	4611      	mov	r1, r2
 8000b20:	8019      	strh	r1, [r3, #0]
 8000b22:	3302      	adds	r3, #2
 8000b24:	0c12      	lsrs	r2, r2, #16
 8000b26:	701a      	strb	r2, [r3, #0]
 8000b28:	f107 0378 	add.w	r3, r7, #120	@ 0x78
 8000b2c:	2203      	movs	r2, #3
 8000b2e:	4619      	mov	r1, r3
 8000b30:	f8d7 00b4 	ldr.w	r0, [r7, #180]	@ 0xb4
 8000b34:	f7ff ff41 	bl	80009ba <ILI9341_WriteData>
 8000b38:	21ea      	movs	r1, #234	@ 0xea
 8000b3a:	f8d7 00b4 	ldr.w	r0, [r7, #180]	@ 0xb4
 8000b3e:	f7ff ff22 	bl	8000986 <ILI9341_WriteCommand>
 8000b42:	2300      	movs	r3, #0
 8000b44:	f8a7 3074 	strh.w	r3, [r7, #116]	@ 0x74
 8000b48:	f107 0374 	add.w	r3, r7, #116	@ 0x74
 8000b4c:	2202      	movs	r2, #2
 8000b4e:	4619      	mov	r1, r3
 8000b50:	f8d7 00b4 	ldr.w	r0, [r7, #180]	@ 0xb4
 8000b54:	f7ff ff31 	bl	80009ba <ILI9341_WriteData>
 8000b58:	21ed      	movs	r1, #237	@ 0xed
 8000b5a:	f8d7 00b4 	ldr.w	r0, [r7, #180]	@ 0xb4
 8000b5e:	f7ff ff12 	bl	8000986 <ILI9341_WriteCommand>
 8000b62:	4bb4      	ldr	r3, [pc, #720]	@ (8000e34 <ILI9341_Init+0x41c>)
 8000b64:	673b      	str	r3, [r7, #112]	@ 0x70
 8000b66:	f107 0370 	add.w	r3, r7, #112	@ 0x70
 8000b6a:	2204      	movs	r2, #4
 8000b6c:	4619      	mov	r1, r3
 8000b6e:	f8d7 00b4 	ldr.w	r0, [r7, #180]	@ 0xb4
 8000b72:	f7ff ff22 	bl	80009ba <ILI9341_WriteData>
 8000b76:	21f7      	movs	r1, #247	@ 0xf7
 8000b78:	f8d7 00b4 	ldr.w	r0, [r7, #180]	@ 0xb4
 8000b7c:	f7ff ff03 	bl	8000986 <ILI9341_WriteCommand>
 8000b80:	2320      	movs	r3, #32
 8000b82:	f887 306c 	strb.w	r3, [r7, #108]	@ 0x6c
 8000b86:	f107 036c 	add.w	r3, r7, #108	@ 0x6c
 8000b8a:	2201      	movs	r2, #1
 8000b8c:	4619      	mov	r1, r3
 8000b8e:	f8d7 00b4 	ldr.w	r0, [r7, #180]	@ 0xb4
 8000b92:	f7ff ff12 	bl	80009ba <ILI9341_WriteData>
 8000b96:	21c0      	movs	r1, #192	@ 0xc0
 8000b98:	f8d7 00b4 	ldr.w	r0, [r7, #180]	@ 0xb4
 8000b9c:	f7ff fef3 	bl	8000986 <ILI9341_WriteCommand>
 8000ba0:	2323      	movs	r3, #35	@ 0x23
 8000ba2:	f887 3068 	strb.w	r3, [r7, #104]	@ 0x68
 8000ba6:	f107 0368 	add.w	r3, r7, #104	@ 0x68
 8000baa:	2201      	movs	r2, #1
 8000bac:	4619      	mov	r1, r3
 8000bae:	f8d7 00b4 	ldr.w	r0, [r7, #180]	@ 0xb4
 8000bb2:	f7ff ff02 	bl	80009ba <ILI9341_WriteData>
 8000bb6:	21c1      	movs	r1, #193	@ 0xc1
 8000bb8:	f8d7 00b4 	ldr.w	r0, [r7, #180]	@ 0xb4
 8000bbc:	f7ff fee3 	bl	8000986 <ILI9341_WriteCommand>
 8000bc0:	2310      	movs	r3, #16
 8000bc2:	f887 3064 	strb.w	r3, [r7, #100]	@ 0x64
 8000bc6:	f107 0364 	add.w	r3, r7, #100	@ 0x64
 8000bca:	2201      	movs	r2, #1
 8000bcc:	4619      	mov	r1, r3
 8000bce:	f8d7 00b4 	ldr.w	r0, [r7, #180]	@ 0xb4
 8000bd2:	f7ff fef2 	bl	80009ba <ILI9341_WriteData>
 8000bd6:	21c5      	movs	r1, #197	@ 0xc5
 8000bd8:	f8d7 00b4 	ldr.w	r0, [r7, #180]	@ 0xb4
 8000bdc:	f7ff fed3 	bl	8000986 <ILI9341_WriteCommand>
 8000be0:	f642 033e 	movw	r3, #10302	@ 0x283e
 8000be4:	f8a7 3060 	strh.w	r3, [r7, #96]	@ 0x60
 8000be8:	f107 0360 	add.w	r3, r7, #96	@ 0x60
 8000bec:	2202      	movs	r2, #2
 8000bee:	4619      	mov	r1, r3
 8000bf0:	f8d7 00b4 	ldr.w	r0, [r7, #180]	@ 0xb4
 8000bf4:	f7ff fee1 	bl	80009ba <ILI9341_WriteData>
 8000bf8:	21c7      	movs	r1, #199	@ 0xc7
 8000bfa:	f8d7 00b4 	ldr.w	r0, [r7, #180]	@ 0xb4
 8000bfe:	f7ff fec2 	bl	8000986 <ILI9341_WriteCommand>
 8000c02:	2386      	movs	r3, #134	@ 0x86
 8000c04:	f887 305c 	strb.w	r3, [r7, #92]	@ 0x5c
 8000c08:	f107 035c 	add.w	r3, r7, #92	@ 0x5c
 8000c0c:	2201      	movs	r2, #1
 8000c0e:	4619      	mov	r1, r3
 8000c10:	f8d7 00b4 	ldr.w	r0, [r7, #180]	@ 0xb4
 8000c14:	f7ff fed1 	bl	80009ba <ILI9341_WriteData>
 8000c18:	2136      	movs	r1, #54	@ 0x36
 8000c1a:	f8d7 00b4 	ldr.w	r0, [r7, #180]	@ 0xb4
 8000c1e:	f7ff feb2 	bl	8000986 <ILI9341_WriteCommand>
 8000c22:	2348      	movs	r3, #72	@ 0x48
 8000c24:	f887 3058 	strb.w	r3, [r7, #88]	@ 0x58
 8000c28:	f107 0358 	add.w	r3, r7, #88	@ 0x58
 8000c2c:	2201      	movs	r2, #1
 8000c2e:	4619      	mov	r1, r3
 8000c30:	f8d7 00b4 	ldr.w	r0, [r7, #180]	@ 0xb4
 8000c34:	f7ff fec1 	bl	80009ba <ILI9341_WriteData>
 8000c38:	213a      	movs	r1, #58	@ 0x3a
 8000c3a:	f8d7 00b4 	ldr.w	r0, [r7, #180]	@ 0xb4
 8000c3e:	f7ff fea2 	bl	8000986 <ILI9341_WriteCommand>
 8000c42:	2355      	movs	r3, #85	@ 0x55
 8000c44:	f887 3054 	strb.w	r3, [r7, #84]	@ 0x54
 8000c48:	f107 0354 	add.w	r3, r7, #84	@ 0x54
 8000c4c:	2201      	movs	r2, #1
 8000c4e:	4619      	mov	r1, r3
 8000c50:	f8d7 00b4 	ldr.w	r0, [r7, #180]	@ 0xb4
 8000c54:	f7ff feb1 	bl	80009ba <ILI9341_WriteData>
 8000c58:	21b1      	movs	r1, #177	@ 0xb1
 8000c5a:	f8d7 00b4 	ldr.w	r0, [r7, #180]	@ 0xb4
 8000c5e:	f7ff fe92 	bl	8000986 <ILI9341_WriteCommand>
 8000c62:	f44f 53c0 	mov.w	r3, #6144	@ 0x1800
 8000c66:	f8a7 3050 	strh.w	r3, [r7, #80]	@ 0x50
 8000c6a:	f107 0350 	add.w	r3, r7, #80	@ 0x50
 8000c6e:	2202      	movs	r2, #2
 8000c70:	4619      	mov	r1, r3
 8000c72:	f8d7 00b4 	ldr.w	r0, [r7, #180]	@ 0xb4
 8000c76:	f7ff fea0 	bl	80009ba <ILI9341_WriteData>
 8000c7a:	21b6      	movs	r1, #182	@ 0xb6
 8000c7c:	f8d7 00b4 	ldr.w	r0, [r7, #180]	@ 0xb4
 8000c80:	f7ff fe81 	bl	8000986 <ILI9341_WriteCommand>
 8000c84:	4a6c      	ldr	r2, [pc, #432]	@ (8000e38 <ILI9341_Init+0x420>)
 8000c86:	f107 034c 	add.w	r3, r7, #76	@ 0x4c
 8000c8a:	6812      	ldr	r2, [r2, #0]
 8000c8c:	4611      	mov	r1, r2
 8000c8e:	8019      	strh	r1, [r3, #0]
 8000c90:	3302      	adds	r3, #2
 8000c92:	0c12      	lsrs	r2, r2, #16
 8000c94:	701a      	strb	r2, [r3, #0]
 8000c96:	f107 034c 	add.w	r3, r7, #76	@ 0x4c
 8000c9a:	2203      	movs	r2, #3
 8000c9c:	4619      	mov	r1, r3
 8000c9e:	f8d7 00b4 	ldr.w	r0, [r7, #180]	@ 0xb4
 8000ca2:	f7ff fe8a 	bl	80009ba <ILI9341_WriteData>
 8000ca6:	21f2      	movs	r1, #242	@ 0xf2
 8000ca8:	f8d7 00b4 	ldr.w	r0, [r7, #180]	@ 0xb4
 8000cac:	f7ff fe6b 	bl	8000986 <ILI9341_WriteCommand>
 8000cb0:	2300      	movs	r3, #0
 8000cb2:	f887 3048 	strb.w	r3, [r7, #72]	@ 0x48
 8000cb6:	f107 0348 	add.w	r3, r7, #72	@ 0x48
 8000cba:	2201      	movs	r2, #1
 8000cbc:	4619      	mov	r1, r3
 8000cbe:	f8d7 00b4 	ldr.w	r0, [r7, #180]	@ 0xb4
 8000cc2:	f7ff fe7a 	bl	80009ba <ILI9341_WriteData>
 8000cc6:	2126      	movs	r1, #38	@ 0x26
 8000cc8:	f8d7 00b4 	ldr.w	r0, [r7, #180]	@ 0xb4
 8000ccc:	f7ff fe5b 	bl	8000986 <ILI9341_WriteCommand>
 8000cd0:	2301      	movs	r3, #1
 8000cd2:	f887 3044 	strb.w	r3, [r7, #68]	@ 0x44
 8000cd6:	f107 0344 	add.w	r3, r7, #68	@ 0x44
 8000cda:	2201      	movs	r2, #1
 8000cdc:	4619      	mov	r1, r3
 8000cde:	f8d7 00b4 	ldr.w	r0, [r7, #180]	@ 0xb4
 8000ce2:	f7ff fe6a 	bl	80009ba <ILI9341_WriteData>
 8000ce6:	21e0      	movs	r1, #224	@ 0xe0
 8000ce8:	f8d7 00b4 	ldr.w	r0, [r7, #180]	@ 0xb4
 8000cec:	f7ff fe4b 	bl	8000986 <ILI9341_WriteCommand>
 8000cf0:	4b52      	ldr	r3, [pc, #328]	@ (8000e3c <ILI9341_Init+0x424>)
 8000cf2:	f107 0434 	add.w	r4, r7, #52	@ 0x34
 8000cf6:	cb0f      	ldmia	r3, {r0, r1, r2, r3}
 8000cf8:	c407      	stmia	r4!, {r0, r1, r2}
 8000cfa:	8023      	strh	r3, [r4, #0]
 8000cfc:	3402      	adds	r4, #2
 8000cfe:	0c1b      	lsrs	r3, r3, #16
 8000d00:	7023      	strb	r3, [r4, #0]
 8000d02:	f107 0334 	add.w	r3, r7, #52	@ 0x34
 8000d06:	220f      	movs	r2, #15
 8000d08:	4619      	mov	r1, r3
 8000d0a:	f8d7 00b4 	ldr.w	r0, [r7, #180]	@ 0xb4
 8000d0e:	f7ff fe54 	bl	80009ba <ILI9341_WriteData>
 8000d12:	21e1      	movs	r1, #225	@ 0xe1
 8000d14:	f8d7 00b4 	ldr.w	r0, [r7, #180]	@ 0xb4
 8000d18:	f7ff fe35 	bl	8000986 <ILI9341_WriteCommand>
 8000d1c:	4b48      	ldr	r3, [pc, #288]	@ (8000e40 <ILI9341_Init+0x428>)
 8000d1e:	f107 0424 	add.w	r4, r7, #36	@ 0x24
 8000d22:	cb0f      	ldmia	r3, {r0, r1, r2, r3}
 8000d24:	c407      	stmia	r4!, {r0, r1, r2}
 8000d26:	8023      	strh	r3, [r4, #0]
 8000d28:	3402      	adds	r4, #2
 8000d2a:	0c1b      	lsrs	r3, r3, #16
 8000d2c:	7023      	strb	r3, [r4, #0]
 8000d2e:	f107 0324 	add.w	r3, r7, #36	@ 0x24
 8000d32:	220f      	movs	r2, #15
 8000d34:	4619      	mov	r1, r3
 8000d36:	f8d7 00b4 	ldr.w	r0, [r7, #180]	@ 0xb4
 8000d3a:	f7ff fe3e 	bl	80009ba <ILI9341_WriteData>
 8000d3e:	2111      	movs	r1, #17
 8000d40:	f8d7 00b4 	ldr.w	r0, [r7, #180]	@ 0xb4
 8000d44:	f7ff fe1f 	bl	8000986 <ILI9341_WriteCommand>
 8000d48:	2078      	movs	r0, #120	@ 0x78
 8000d4a:	f001 fd05 	bl	8002758 <HAL_Delay>
 8000d4e:	2129      	movs	r1, #41	@ 0x29
 8000d50:	f8d7 00b4 	ldr.w	r0, [r7, #180]	@ 0xb4
 8000d54:	f7ff fe17 	bl	8000986 <ILI9341_WriteCommand>
 8000d58:	2136      	movs	r1, #54	@ 0x36
 8000d5a:	f8d7 00b4 	ldr.w	r0, [r7, #180]	@ 0xb4
 8000d5e:	f7ff fe12 	bl	8000986 <ILI9341_WriteCommand>
 8000d62:	f8d7 30b4 	ldr.w	r3, [r7, #180]	@ 0xb4
 8000d66:	69db      	ldr	r3, [r3, #28]
 8000d68:	2b03      	cmp	r3, #3
 8000d6a:	d848      	bhi.n	8000dfe <ILI9341_Init+0x3e6>
 8000d6c:	a201      	add	r2, pc, #4	@ (adr r2, 8000d74 <ILI9341_Init+0x35c>)
 8000d6e:	f852 f023 	ldr.w	pc, [r2, r3, lsl #2]
 8000d72:	bf00      	nop
 8000d74:	08000d85 	.word	0x08000d85
 8000d78:	08000da5 	.word	0x08000da5
 8000d7c:	08000dc3 	.word	0x08000dc3
 8000d80:	08000de1 	.word	0x08000de1
 8000d84:	2348      	movs	r3, #72	@ 0x48
 8000d86:	f887 30b0 	strb.w	r3, [r7, #176]	@ 0xb0
 8000d8a:	f897 30b0 	ldrb.w	r3, [r7, #176]	@ 0xb0
 8000d8e:	f887 3020 	strb.w	r3, [r7, #32]
 8000d92:	f107 0320 	add.w	r3, r7, #32
 8000d96:	2201      	movs	r2, #1
 8000d98:	4619      	mov	r1, r3
 8000d9a:	f8d7 00b4 	ldr.w	r0, [r7, #180]	@ 0xb4
 8000d9e:	f7ff fe0c 	bl	80009ba <ILI9341_WriteData>
 8000da2:	e02d      	b.n	8000e00 <ILI9341_Init+0x3e8>
 8000da4:	23e8      	movs	r3, #232	@ 0xe8
 8000da6:	f887 30b1 	strb.w	r3, [r7, #177]	@ 0xb1
 8000daa:	f897 30b1 	ldrb.w	r3, [r7, #177]	@ 0xb1
 8000dae:	773b      	strb	r3, [r7, #28]
 8000db0:	f107 031c 	add.w	r3, r7, #28
 8000db4:	2201      	movs	r2, #1
 8000db6:	4619      	mov	r1, r3
 8000db8:	f8d7 00b4 	ldr.w	r0, [r7, #180]	@ 0xb4
 8000dbc:	f7ff fdfd 	bl	80009ba <ILI9341_WriteData>
 8000dc0:	e01e      	b.n	8000e00 <ILI9341_Init+0x3e8>
 8000dc2:	2328      	movs	r3, #40	@ 0x28
 8000dc4:	f887 30b2 	strb.w	r3, [r7, #178]	@ 0xb2
 8000dc8:	f897 30b2 	ldrb.w	r3, [r7, #178]	@ 0xb2
 8000dcc:	763b      	strb	r3, [r7, #24]
 8000dce:	f107 0318 	add.w	r3, r7, #24
 8000dd2:	2201      	movs	r2, #1
 8000dd4:	4619      	mov	r1, r3
 8000dd6:	f8d7 00b4 	ldr.w	r0, [r7, #180]	@ 0xb4
 8000dda:	f7ff fdee 	bl	80009ba <ILI9341_WriteData>
 8000dde:	e00f      	b.n	8000e00 <ILI9341_Init+0x3e8>
 8000de0:	2388      	movs	r3, #136	@ 0x88
 8000de2:	f887 30b3 	strb.w	r3, [r7, #179]	@ 0xb3
 8000de6:	f897 30b3 	ldrb.w	r3, [r7, #179]	@ 0xb3
 8000dea:	753b      	strb	r3, [r7, #20]
 8000dec:	f107 0314 	add.w	r3, r7, #20
 8000df0:	2201      	movs	r2, #1
 8000df2:	4619      	mov	r1, r3
 8000df4:	f8d7 00b4 	ldr.w	r0, [r7, #180]	@ 0xb4
 8000df8:	f7ff fddf 	bl	80009ba <ILI9341_WriteData>
 8000dfc:	e000      	b.n	8000e00 <ILI9341_Init+0x3e8>
 8000dfe:	bf00      	nop
 8000e00:	f8d7 00b4 	ldr.w	r0, [r7, #180]	@ 0xb4
 8000e04:	f7ff fd94 	bl	8000930 <ILI9341_Deselect>
 8000e08:	68fb      	ldr	r3, [r7, #12]
 8000e0a:	461d      	mov	r5, r3
 8000e0c:	f107 0488 	add.w	r4, r7, #136	@ 0x88
 8000e10:	cc0f      	ldmia	r4!, {r0, r1, r2, r3}
 8000e12:	c50f      	stmia	r5!, {r0, r1, r2, r3}
 8000e14:	cc0f      	ldmia	r4!, {r0, r1, r2, r3}
 8000e16:	c50f      	stmia	r5!, {r0, r1, r2, r3}
 8000e18:	e894 0003 	ldmia.w	r4, {r0, r1}
 8000e1c:	e885 0003 	stmia.w	r5, {r0, r1}
 8000e20:	68f8      	ldr	r0, [r7, #12]
 8000e22:	37b8      	adds	r7, #184	@ 0xb8
 8000e24:	46bd      	mov	sp, r7
 8000e26:	bdb0      	pop	{r4, r5, r7, pc}
 8000e28:	08006ef8 	.word	0x08006ef8
 8000e2c:	08006f00 	.word	0x08006f00
 8000e30:	08006f04 	.word	0x08006f04
 8000e34:	81120364 	.word	0x81120364
 8000e38:	08006f08 	.word	0x08006f08
 8000e3c:	08006f0c 	.word	0x08006f0c
 8000e40:	08006f1c 	.word	0x08006f1c

08000e44 <ILI9341_SetAddressWindow>:
 8000e44:	b580      	push	{r7, lr}
 8000e46:	b086      	sub	sp, #24
 8000e48:	af00      	add	r7, sp, #0
 8000e4a:	60f8      	str	r0, [r7, #12]
 8000e4c:	4608      	mov	r0, r1
 8000e4e:	4611      	mov	r1, r2
 8000e50:	461a      	mov	r2, r3
 8000e52:	4603      	mov	r3, r0
 8000e54:	817b      	strh	r3, [r7, #10]
 8000e56:	460b      	mov	r3, r1
 8000e58:	813b      	strh	r3, [r7, #8]
 8000e5a:	4613      	mov	r3, r2
 8000e5c:	80fb      	strh	r3, [r7, #6]
 8000e5e:	212a      	movs	r1, #42	@ 0x2a
 8000e60:	68f8      	ldr	r0, [r7, #12]
 8000e62:	f7ff fd90 	bl	8000986 <ILI9341_WriteCommand>
 8000e66:	897b      	ldrh	r3, [r7, #10]
 8000e68:	0a1b      	lsrs	r3, r3, #8
 8000e6a:	b29b      	uxth	r3, r3
 8000e6c:	b2db      	uxtb	r3, r3
 8000e6e:	753b      	strb	r3, [r7, #20]
 8000e70:	897b      	ldrh	r3, [r7, #10]
 8000e72:	b2db      	uxtb	r3, r3
 8000e74:	757b      	strb	r3, [r7, #21]
 8000e76:	88fb      	ldrh	r3, [r7, #6]
 8000e78:	0a1b      	lsrs	r3, r3, #8
 8000e7a:	b29b      	uxth	r3, r3
 8000e7c:	b2db      	uxtb	r3, r3
 8000e7e:	75bb      	strb	r3, [r7, #22]
 8000e80:	88fb      	ldrh	r3, [r7, #6]
 8000e82:	b2db      	uxtb	r3, r3
 8000e84:	75fb      	strb	r3, [r7, #23]
 8000e86:	f107 0314 	add.w	r3, r7, #20
 8000e8a:	2204      	movs	r2, #4
 8000e8c:	4619      	mov	r1, r3
 8000e8e:	68f8      	ldr	r0, [r7, #12]
 8000e90:	f7ff fd93 	bl	80009ba <ILI9341_WriteData>
 8000e94:	212b      	movs	r1, #43	@ 0x2b
 8000e96:	68f8      	ldr	r0, [r7, #12]
 8000e98:	f7ff fd75 	bl	8000986 <ILI9341_WriteCommand>
 8000e9c:	893b      	ldrh	r3, [r7, #8]
 8000e9e:	0a1b      	lsrs	r3, r3, #8
 8000ea0:	b29b      	uxth	r3, r3
 8000ea2:	b2db      	uxtb	r3, r3
 8000ea4:	743b      	strb	r3, [r7, #16]
 8000ea6:	893b      	ldrh	r3, [r7, #8]
 8000ea8:	b2db      	uxtb	r3, r3
 8000eaa:	747b      	strb	r3, [r7, #17]
 8000eac:	8c3b      	ldrh	r3, [r7, #32]
 8000eae:	0a1b      	lsrs	r3, r3, #8
 8000eb0:	b29b      	uxth	r3, r3
 8000eb2:	b2db      	uxtb	r3, r3
 8000eb4:	74bb      	strb	r3, [r7, #18]
 8000eb6:	8c3b      	ldrh	r3, [r7, #32]
 8000eb8:	b2db      	uxtb	r3, r3
 8000eba:	74fb      	strb	r3, [r7, #19]
 8000ebc:	f107 0310 	add.w	r3, r7, #16
 8000ec0:	2204      	movs	r2, #4
 8000ec2:	4619      	mov	r1, r3
 8000ec4:	68f8      	ldr	r0, [r7, #12]
 8000ec6:	f7ff fd78 	bl	80009ba <ILI9341_WriteData>
 8000eca:	212c      	movs	r1, #44	@ 0x2c
 8000ecc:	68f8      	ldr	r0, [r7, #12]
 8000ece:	f7ff fd5a 	bl	8000986 <ILI9341_WriteCommand>
 8000ed2:	bf00      	nop
 8000ed4:	3718      	adds	r7, #24
 8000ed6:	46bd      	mov	sp, r7
 8000ed8:	bd80      	pop	{r7, pc}

08000eda <ILI9341_FillRectangleFast>:
 8000eda:	b5b0      	push	{r4, r5, r7, lr}
 8000edc:	f5ad 6d85 	sub.w	sp, sp, #1064	@ 0x428
 8000ee0:	af02      	add	r7, sp, #8
 8000ee2:	f507 6484 	add.w	r4, r7, #1056	@ 0x420
 8000ee6:	f2a4 4414 	subw	r4, r4, #1044	@ 0x414
 8000eea:	6020      	str	r0, [r4, #0]
 8000eec:	f507 6084 	add.w	r0, r7, #1056	@ 0x420
 8000ef0:	f5a0 6083 	sub.w	r0, r0, #1048	@ 0x418
 8000ef4:	6001      	str	r1, [r0, #0]
 8000ef6:	f507 6184 	add.w	r1, r7, #1056	@ 0x420
 8000efa:	f2a1 411c 	subw	r1, r1, #1052	@ 0x41c
 8000efe:	600a      	str	r2, [r1, #0]
 8000f00:	f507 6284 	add.w	r2, r7, #1056	@ 0x420
 8000f04:	f5a2 6284 	sub.w	r2, r2, #1056	@ 0x420
 8000f08:	6013      	str	r3, [r2, #0]
 8000f0a:	f507 6384 	add.w	r3, r7, #1056	@ 0x420
 8000f0e:	f5a3 6384 	sub.w	r3, r3, #1056	@ 0x420
 8000f12:	681b      	ldr	r3, [r3, #0]
 8000f14:	2b00      	cmp	r3, #0
 8000f16:	da1b      	bge.n	8000f50 <ILI9341_FillRectangleFast+0x76>
 8000f18:	f507 6384 	add.w	r3, r7, #1056	@ 0x420
 8000f1c:	f5a3 6384 	sub.w	r3, r3, #1056	@ 0x420
 8000f20:	f507 6284 	add.w	r2, r7, #1056	@ 0x420
 8000f24:	f5a2 6284 	sub.w	r2, r2, #1056	@ 0x420
 8000f28:	6812      	ldr	r2, [r2, #0]
 8000f2a:	4252      	negs	r2, r2
 8000f2c:	601a      	str	r2, [r3, #0]
 8000f2e:	f507 6384 	add.w	r3, r7, #1056	@ 0x420
 8000f32:	f5a3 6384 	sub.w	r3, r3, #1056	@ 0x420
 8000f36:	681b      	ldr	r3, [r3, #0]
 8000f38:	1e5a      	subs	r2, r3, #1
 8000f3a:	f507 6384 	add.w	r3, r7, #1056	@ 0x420
 8000f3e:	f5a3 6383 	sub.w	r3, r3, #1048	@ 0x418
 8000f42:	f507 6184 	add.w	r1, r7, #1056	@ 0x420
 8000f46:	f5a1 6183 	sub.w	r1, r1, #1048	@ 0x418
 8000f4a:	6809      	ldr	r1, [r1, #0]
 8000f4c:	1a8a      	subs	r2, r1, r2
 8000f4e:	601a      	str	r2, [r3, #0]
 8000f50:	f8d7 3430 	ldr.w	r3, [r7, #1072]	@ 0x430
 8000f54:	2b00      	cmp	r3, #0
 8000f56:	da12      	bge.n	8000f7e <ILI9341_FillRectangleFast+0xa4>
 8000f58:	f8d7 3430 	ldr.w	r3, [r7, #1072]	@ 0x430
 8000f5c:	425b      	negs	r3, r3
 8000f5e:	f8c7 3430 	str.w	r3, [r7, #1072]	@ 0x430
 8000f62:	f8d7 3430 	ldr.w	r3, [r7, #1072]	@ 0x430
 8000f66:	1e5a      	subs	r2, r3, #1
 8000f68:	f507 6384 	add.w	r3, r7, #1056	@ 0x420
 8000f6c:	f2a3 431c 	subw	r3, r3, #1052	@ 0x41c
 8000f70:	f507 6184 	add.w	r1, r7, #1056	@ 0x420
 8000f74:	f2a1 411c 	subw	r1, r1, #1052	@ 0x41c
 8000f78:	6809      	ldr	r1, [r1, #0]
 8000f7a:	1a8a      	subs	r2, r1, r2
 8000f7c:	601a      	str	r2, [r3, #0]
 8000f7e:	f507 6384 	add.w	r3, r7, #1056	@ 0x420
 8000f82:	f2a3 4314 	subw	r3, r3, #1044	@ 0x414
 8000f86:	681b      	ldr	r3, [r3, #0]
 8000f88:	6a1b      	ldr	r3, [r3, #32]
 8000f8a:	f507 6284 	add.w	r2, r7, #1056	@ 0x420
 8000f8e:	f5a2 6283 	sub.w	r2, r2, #1048	@ 0x418
 8000f92:	6812      	ldr	r2, [r2, #0]
 8000f94:	429a      	cmp	r2, r3
 8000f96:	f280 812d 	bge.w	80011f4 <ILI9341_FillRectangleFast+0x31a>
 8000f9a:	f507 6384 	add.w	r3, r7, #1056	@ 0x420
 8000f9e:	f2a3 4314 	subw	r3, r3, #1044	@ 0x414
 8000fa2:	681b      	ldr	r3, [r3, #0]
 8000fa4:	6a5b      	ldr	r3, [r3, #36]	@ 0x24
 8000fa6:	f507 6284 	add.w	r2, r7, #1056	@ 0x420
 8000faa:	f2a2 421c 	subw	r2, r2, #1052	@ 0x41c
 8000fae:	6812      	ldr	r2, [r2, #0]
 8000fb0:	429a      	cmp	r2, r3
 8000fb2:	f280 811f 	bge.w	80011f4 <ILI9341_FillRectangleFast+0x31a>
 8000fb6:	f507 6384 	add.w	r3, r7, #1056	@ 0x420
 8000fba:	f5a3 6384 	sub.w	r3, r3, #1056	@ 0x420
 8000fbe:	681b      	ldr	r3, [r3, #0]
 8000fc0:	2b00      	cmp	r3, #0
 8000fc2:	f000 8117 	beq.w	80011f4 <ILI9341_FillRectangleFast+0x31a>
 8000fc6:	f8d7 3430 	ldr.w	r3, [r7, #1072]	@ 0x430
 8000fca:	2b00      	cmp	r3, #0
 8000fcc:	f000 8112 	beq.w	80011f4 <ILI9341_FillRectangleFast+0x31a>
 8000fd0:	f507 6384 	add.w	r3, r7, #1056	@ 0x420
 8000fd4:	f5a3 6383 	sub.w	r3, r3, #1048	@ 0x418
 8000fd8:	681b      	ldr	r3, [r3, #0]
 8000fda:	2b00      	cmp	r3, #0
 8000fdc:	da1d      	bge.n	800101a <ILI9341_FillRectangleFast+0x140>
 8000fde:	f507 6384 	add.w	r3, r7, #1056	@ 0x420
 8000fe2:	f5a3 6384 	sub.w	r3, r3, #1056	@ 0x420
 8000fe6:	f507 6284 	add.w	r2, r7, #1056	@ 0x420
 8000fea:	f5a2 6184 	sub.w	r1, r2, #1056	@ 0x420
 8000fee:	f507 6284 	add.w	r2, r7, #1056	@ 0x420
 8000ff2:	f5a2 6283 	sub.w	r2, r2, #1048	@ 0x418
 8000ff6:	6809      	ldr	r1, [r1, #0]
 8000ff8:	6812      	ldr	r2, [r2, #0]
 8000ffa:	440a      	add	r2, r1
 8000ffc:	601a      	str	r2, [r3, #0]
 8000ffe:	f507 6384 	add.w	r3, r7, #1056	@ 0x420
 8001002:	f5a3 6383 	sub.w	r3, r3, #1048	@ 0x418
 8001006:	2200      	movs	r2, #0
 8001008:	601a      	str	r2, [r3, #0]
 800100a:	f507 6384 	add.w	r3, r7, #1056	@ 0x420
 800100e:	f5a3 6384 	sub.w	r3, r3, #1056	@ 0x420
 8001012:	681b      	ldr	r3, [r3, #0]
 8001014:	2b00      	cmp	r3, #0
 8001016:	f340 80ef 	ble.w	80011f8 <ILI9341_FillRectangleFast+0x31e>
 800101a:	f507 6384 	add.w	r3, r7, #1056	@ 0x420
 800101e:	f2a3 431c 	subw	r3, r3, #1052	@ 0x41c
 8001022:	681b      	ldr	r3, [r3, #0]
 8001024:	2b00      	cmp	r3, #0
 8001026:	da14      	bge.n	8001052 <ILI9341_FillRectangleFast+0x178>
 8001028:	f507 6384 	add.w	r3, r7, #1056	@ 0x420
 800102c:	f2a3 431c 	subw	r3, r3, #1052	@ 0x41c
 8001030:	f8d7 2430 	ldr.w	r2, [r7, #1072]	@ 0x430
 8001034:	681b      	ldr	r3, [r3, #0]
 8001036:	4413      	add	r3, r2
 8001038:	f8c7 3430 	str.w	r3, [r7, #1072]	@ 0x430
 800103c:	f507 6384 	add.w	r3, r7, #1056	@ 0x420
 8001040:	f2a3 431c 	subw	r3, r3, #1052	@ 0x41c
 8001044:	2200      	movs	r2, #0
 8001046:	601a      	str	r2, [r3, #0]
 8001048:	f8d7 3430 	ldr.w	r3, [r7, #1072]	@ 0x430
 800104c:	2b00      	cmp	r3, #0
 800104e:	f340 80d5 	ble.w	80011fc <ILI9341_FillRectangleFast+0x322>
 8001052:	f507 6384 	add.w	r3, r7, #1056	@ 0x420
 8001056:	f5a3 6283 	sub.w	r2, r3, #1048	@ 0x418
 800105a:	f507 6384 	add.w	r3, r7, #1056	@ 0x420
 800105e:	f5a3 6384 	sub.w	r3, r3, #1056	@ 0x420
 8001062:	6812      	ldr	r2, [r2, #0]
 8001064:	681b      	ldr	r3, [r3, #0]
 8001066:	441a      	add	r2, r3
 8001068:	f507 6384 	add.w	r3, r7, #1056	@ 0x420
 800106c:	f2a3 4314 	subw	r3, r3, #1044	@ 0x414
 8001070:	681b      	ldr	r3, [r3, #0]
 8001072:	6a1b      	ldr	r3, [r3, #32]
 8001074:	429a      	cmp	r2, r3
 8001076:	dd10      	ble.n	800109a <ILI9341_FillRectangleFast+0x1c0>
 8001078:	f507 6384 	add.w	r3, r7, #1056	@ 0x420
 800107c:	f2a3 4314 	subw	r3, r3, #1044	@ 0x414
 8001080:	681b      	ldr	r3, [r3, #0]
 8001082:	6a19      	ldr	r1, [r3, #32]
 8001084:	f507 6384 	add.w	r3, r7, #1056	@ 0x420
 8001088:	f5a3 6384 	sub.w	r3, r3, #1056	@ 0x420
 800108c:	f507 6284 	add.w	r2, r7, #1056	@ 0x420
 8001090:	f5a2 6283 	sub.w	r2, r2, #1048	@ 0x418
 8001094:	6812      	ldr	r2, [r2, #0]
 8001096:	1a8a      	subs	r2, r1, r2
 8001098:	601a      	str	r2, [r3, #0]
 800109a:	f507 6384 	add.w	r3, r7, #1056	@ 0x420
 800109e:	f2a3 431c 	subw	r3, r3, #1052	@ 0x41c
 80010a2:	681a      	ldr	r2, [r3, #0]
 80010a4:	f8d7 3430 	ldr.w	r3, [r7, #1072]	@ 0x430
 80010a8:	441a      	add	r2, r3
 80010aa:	f507 6384 	add.w	r3, r7, #1056	@ 0x420
 80010ae:	f2a3 4314 	subw	r3, r3, #1044	@ 0x414
 80010b2:	681b      	ldr	r3, [r3, #0]
 80010b4:	6a5b      	ldr	r3, [r3, #36]	@ 0x24
 80010b6:	429a      	cmp	r2, r3
 80010b8:	dd0d      	ble.n	80010d6 <ILI9341_FillRectangleFast+0x1fc>
 80010ba:	f507 6384 	add.w	r3, r7, #1056	@ 0x420
 80010be:	f2a3 4314 	subw	r3, r3, #1044	@ 0x414
 80010c2:	681b      	ldr	r3, [r3, #0]
 80010c4:	6a5a      	ldr	r2, [r3, #36]	@ 0x24
 80010c6:	f507 6384 	add.w	r3, r7, #1056	@ 0x420
 80010ca:	f2a3 431c 	subw	r3, r3, #1052	@ 0x41c
 80010ce:	681b      	ldr	r3, [r3, #0]
 80010d0:	1ad3      	subs	r3, r2, r3
 80010d2:	f8c7 3430 	str.w	r3, [r7, #1072]	@ 0x430
 80010d6:	f507 6384 	add.w	r3, r7, #1056	@ 0x420
 80010da:	f5a3 6384 	sub.w	r3, r3, #1056	@ 0x420
 80010de:	681b      	ldr	r3, [r3, #0]
 80010e0:	f8d7 2430 	ldr.w	r2, [r7, #1072]	@ 0x430
 80010e4:	fb02 f303 	mul.w	r3, r2, r3
 80010e8:	f8c7 341c 	str.w	r3, [r7, #1052]	@ 0x41c
 80010ec:	f8d7 341c 	ldr.w	r3, [r7, #1052]	@ 0x41c
 80010f0:	f5b3 7f00 	cmp.w	r3, #512	@ 0x200
 80010f4:	bf28      	it	cs
 80010f6:	f44f 7300 	movcs.w	r3, #512	@ 0x200
 80010fa:	f8c7 3418 	str.w	r3, [r7, #1048]	@ 0x418
 80010fe:	f8b7 3434 	ldrh.w	r3, [r7, #1076]	@ 0x434
 8001102:	0a1b      	lsrs	r3, r3, #8
 8001104:	b29b      	uxth	r3, r3
 8001106:	b21a      	sxth	r2, r3
 8001108:	f9b7 3434 	ldrsh.w	r3, [r7, #1076]	@ 0x434
 800110c:	021b      	lsls	r3, r3, #8
 800110e:	b21b      	sxth	r3, r3
 8001110:	4313      	orrs	r3, r2
 8001112:	b21b      	sxth	r3, r3
 8001114:	f8a7 3434 	strh.w	r3, [r7, #1076]	@ 0x434
 8001118:	2300      	movs	r3, #0
 800111a:	f8c7 3414 	str.w	r3, [r7, #1044]	@ 0x414
 800111e:	e00e      	b.n	800113e <ILI9341_FillRectangleFast+0x264>
 8001120:	f507 6384 	add.w	r3, r7, #1056	@ 0x420
 8001124:	f2a3 430c 	subw	r3, r3, #1036	@ 0x40c
 8001128:	f8d7 2414 	ldr.w	r2, [r7, #1044]	@ 0x414
 800112c:	f8b7 1434 	ldrh.w	r1, [r7, #1076]	@ 0x434
 8001130:	f823 1012 	strh.w	r1, [r3, r2, lsl #1]
 8001134:	f8d7 3414 	ldr.w	r3, [r7, #1044]	@ 0x414
 8001138:	3301      	adds	r3, #1
 800113a:	f8c7 3414 	str.w	r3, [r7, #1044]	@ 0x414
 800113e:	f8d7 2414 	ldr.w	r2, [r7, #1044]	@ 0x414
 8001142:	f8d7 3418 	ldr.w	r3, [r7, #1048]	@ 0x418
 8001146:	429a      	cmp	r2, r3
 8001148:	d3ea      	bcc.n	8001120 <ILI9341_FillRectangleFast+0x246>
 800114a:	f507 6384 	add.w	r3, r7, #1056	@ 0x420
 800114e:	f5a3 6383 	sub.w	r3, r3, #1048	@ 0x418
 8001152:	681b      	ldr	r3, [r3, #0]
 8001154:	b299      	uxth	r1, r3
 8001156:	f507 6384 	add.w	r3, r7, #1056	@ 0x420
 800115a:	f2a3 431c 	subw	r3, r3, #1052	@ 0x41c
 800115e:	681b      	ldr	r3, [r3, #0]
 8001160:	b29c      	uxth	r4, r3
 8001162:	f507 6384 	add.w	r3, r7, #1056	@ 0x420
 8001166:	f5a3 6383 	sub.w	r3, r3, #1048	@ 0x418
 800116a:	681b      	ldr	r3, [r3, #0]
 800116c:	b29a      	uxth	r2, r3
 800116e:	f507 6384 	add.w	r3, r7, #1056	@ 0x420
 8001172:	f5a3 6384 	sub.w	r3, r3, #1056	@ 0x420
 8001176:	681b      	ldr	r3, [r3, #0]
 8001178:	b29b      	uxth	r3, r3
 800117a:	4413      	add	r3, r2
 800117c:	b29b      	uxth	r3, r3
 800117e:	3b01      	subs	r3, #1
 8001180:	b29d      	uxth	r5, r3
 8001182:	f507 6384 	add.w	r3, r7, #1056	@ 0x420
 8001186:	f2a3 431c 	subw	r3, r3, #1052	@ 0x41c
 800118a:	681b      	ldr	r3, [r3, #0]
 800118c:	b29a      	uxth	r2, r3
 800118e:	f8d7 3430 	ldr.w	r3, [r7, #1072]	@ 0x430
 8001192:	b29b      	uxth	r3, r3
 8001194:	4413      	add	r3, r2
 8001196:	b29b      	uxth	r3, r3
 8001198:	3b01      	subs	r3, #1
 800119a:	b29b      	uxth	r3, r3
 800119c:	f507 6284 	add.w	r2, r7, #1056	@ 0x420
 80011a0:	f2a2 4014 	subw	r0, r2, #1044	@ 0x414
 80011a4:	9300      	str	r3, [sp, #0]
 80011a6:	462b      	mov	r3, r5
 80011a8:	4622      	mov	r2, r4
 80011aa:	6800      	ldr	r0, [r0, #0]
 80011ac:	f7ff fe4a 	bl	8000e44 <ILI9341_SetAddressWindow>
 80011b0:	e01b      	b.n	80011ea <ILI9341_FillRectangleFast+0x310>
 80011b2:	f8d7 3418 	ldr.w	r3, [r7, #1048]	@ 0x418
 80011b6:	005a      	lsls	r2, r3, #1
 80011b8:	f107 0114 	add.w	r1, r7, #20
 80011bc:	f507 6384 	add.w	r3, r7, #1056	@ 0x420
 80011c0:	f2a3 4314 	subw	r3, r3, #1044	@ 0x414
 80011c4:	6818      	ldr	r0, [r3, #0]
 80011c6:	f7ff fbf8 	bl	80009ba <ILI9341_WriteData>
 80011ca:	f8d7 241c 	ldr.w	r2, [r7, #1052]	@ 0x41c
 80011ce:	f8d7 3418 	ldr.w	r3, [r7, #1048]	@ 0x418
 80011d2:	1ad3      	subs	r3, r2, r3
 80011d4:	f8c7 341c 	str.w	r3, [r7, #1052]	@ 0x41c
 80011d8:	f8d7 341c 	ldr.w	r3, [r7, #1052]	@ 0x41c
 80011dc:	f5b3 7f00 	cmp.w	r3, #512	@ 0x200
 80011e0:	bf28      	it	cs
 80011e2:	f44f 7300 	movcs.w	r3, #512	@ 0x200
 80011e6:	f8c7 3418 	str.w	r3, [r7, #1048]	@ 0x418
 80011ea:	f8d7 341c 	ldr.w	r3, [r7, #1052]	@ 0x41c
 80011ee:	2b00      	cmp	r3, #0
 80011f0:	d1df      	bne.n	80011b2 <ILI9341_FillRectangleFast+0x2d8>
 80011f2:	e004      	b.n	80011fe <ILI9341_FillRectangleFast+0x324>
 80011f4:	bf00      	nop
 80011f6:	e002      	b.n	80011fe <ILI9341_FillRectangleFast+0x324>
 80011f8:	bf00      	nop
 80011fa:	e000      	b.n	80011fe <ILI9341_FillRectangleFast+0x324>
 80011fc:	bf00      	nop
 80011fe:	f507 6784 	add.w	r7, r7, #1056	@ 0x420
 8001202:	46bd      	mov	sp, r7
 8001204:	bdb0      	pop	{r4, r5, r7, pc}

08001206 <ILI9341_FillScreen>:
 8001206:	b580      	push	{r7, lr}
 8001208:	b084      	sub	sp, #16
 800120a:	af02      	add	r7, sp, #8
 800120c:	6078      	str	r0, [r7, #4]
 800120e:	460b      	mov	r3, r1
 8001210:	807b      	strh	r3, [r7, #2]
 8001212:	6878      	ldr	r0, [r7, #4]
 8001214:	f7ff fb7c 	bl	8000910 <ILI9341_Select>
 8001218:	687b      	ldr	r3, [r7, #4]
 800121a:	6a19      	ldr	r1, [r3, #32]
 800121c:	687b      	ldr	r3, [r7, #4]
 800121e:	6a5b      	ldr	r3, [r3, #36]	@ 0x24
 8001220:	887a      	ldrh	r2, [r7, #2]
 8001222:	9201      	str	r2, [sp, #4]
 8001224:	9300      	str	r3, [sp, #0]
 8001226:	460b      	mov	r3, r1
 8001228:	2200      	movs	r2, #0
 800122a:	2100      	movs	r1, #0
 800122c:	6878      	ldr	r0, [r7, #4]
 800122e:	f7ff fe54 	bl	8000eda <ILI9341_FillRectangleFast>
 8001232:	6878      	ldr	r0, [r7, #4]
 8001234:	f7ff fb7c 	bl	8000930 <ILI9341_Deselect>
 8001238:	bf00      	nop
 800123a:	3708      	adds	r7, #8
 800123c:	46bd      	mov	sp, r7
 800123e:	bd80      	pop	{r7, pc}

08001240 <ILI9341_DrawGlyphFast>:
 8001240:	b082      	sub	sp, #8
 8001242:	b5b0      	push	{r4, r5, r7, lr}
 8001244:	f5ad 6d8a 	sub.w	sp, sp, #1104	@ 0x450
 8001248:	af02      	add	r7, sp, #8
 800124a:	f507 6489 	add.w	r4, r7, #1096	@ 0x448
 800124e:	f2a4 443c 	subw	r4, r4, #1084	@ 0x43c
 8001252:	6020      	str	r0, [r4, #0]
 8001254:	f507 6089 	add.w	r0, r7, #1096	@ 0x448
 8001258:	f5a0 6088 	sub.w	r0, r0, #1088	@ 0x440
 800125c:	6001      	str	r1, [r0, #0]
 800125e:	f507 6189 	add.w	r1, r7, #1096	@ 0x448
 8001262:	f2a1 4144 	subw	r1, r1, #1092	@ 0x444
 8001266:	600a      	str	r2, [r1, #0]
 8001268:	f8c7 345c 	str.w	r3, [r7, #1116]	@ 0x45c
 800126c:	f997 345c 	ldrsb.w	r3, [r7, #1116]	@ 0x45c
 8001270:	461a      	mov	r2, r3
 8001272:	f8d7 3470 	ldr.w	r3, [r7, #1136]	@ 0x470
 8001276:	fb02 f303 	mul.w	r3, r2, r3
 800127a:	f507 6289 	add.w	r2, r7, #1096	@ 0x448
 800127e:	f5a2 6288 	sub.w	r2, r2, #1088	@ 0x440
 8001282:	6812      	ldr	r2, [r2, #0]
 8001284:	4413      	add	r3, r2
 8001286:	f8c7 3438 	str.w	r3, [r7, #1080]	@ 0x438
 800128a:	f997 345d 	ldrsb.w	r3, [r7, #1117]	@ 0x45d
 800128e:	461a      	mov	r2, r3
 8001290:	f8d7 3470 	ldr.w	r3, [r7, #1136]	@ 0x470
 8001294:	fb02 f303 	mul.w	r3, r2, r3
 8001298:	f507 6289 	add.w	r2, r7, #1096	@ 0x448
 800129c:	f2a2 4244 	subw	r2, r2, #1092	@ 0x444
 80012a0:	6812      	ldr	r2, [r2, #0]
 80012a2:	1ad2      	subs	r2, r2, r3
 80012a4:	f997 345f 	ldrsb.w	r3, [r7, #1119]	@ 0x45f
 80012a8:	4619      	mov	r1, r3
 80012aa:	f8d7 3470 	ldr.w	r3, [r7, #1136]	@ 0x470
 80012ae:	fb01 f303 	mul.w	r3, r1, r3
 80012b2:	1ad3      	subs	r3, r2, r3
 80012b4:	3301      	adds	r3, #1
 80012b6:	f8c7 3434 	str.w	r3, [r7, #1076]	@ 0x434
 80012ba:	f997 345e 	ldrsb.w	r3, [r7, #1118]	@ 0x45e
 80012be:	461a      	mov	r2, r3
 80012c0:	f8d7 3470 	ldr.w	r3, [r7, #1136]	@ 0x470
 80012c4:	fb03 f202 	mul.w	r2, r3, r2
 80012c8:	f8d7 3438 	ldr.w	r3, [r7, #1080]	@ 0x438
 80012cc:	4413      	add	r3, r2
 80012ce:	3b01      	subs	r3, #1
 80012d0:	f8c7 3430 	str.w	r3, [r7, #1072]	@ 0x430
 80012d4:	f997 345f 	ldrsb.w	r3, [r7, #1119]	@ 0x45f
 80012d8:	461a      	mov	r2, r3
 80012da:	f8d7 3470 	ldr.w	r3, [r7, #1136]	@ 0x470
 80012de:	fb03 f202 	mul.w	r2, r3, r2
 80012e2:	f8d7 3434 	ldr.w	r3, [r7, #1076]	@ 0x434
 80012e6:	4413      	add	r3, r2
 80012e8:	3b01      	subs	r3, #1
 80012ea:	f8c7 342c 	str.w	r3, [r7, #1068]	@ 0x42c
 80012ee:	f8d7 3430 	ldr.w	r3, [r7, #1072]	@ 0x430
 80012f2:	2b00      	cmp	r3, #0
 80012f4:	f2c0 8150 	blt.w	8001598 <ILI9341_DrawGlyphFast+0x358>
 80012f8:	f8d7 342c 	ldr.w	r3, [r7, #1068]	@ 0x42c
 80012fc:	2b00      	cmp	r3, #0
 80012fe:	f2c0 814b 	blt.w	8001598 <ILI9341_DrawGlyphFast+0x358>
 8001302:	f507 6389 	add.w	r3, r7, #1096	@ 0x448
 8001306:	f2a3 433c 	subw	r3, r3, #1084	@ 0x43c
 800130a:	681b      	ldr	r3, [r3, #0]
 800130c:	6a1b      	ldr	r3, [r3, #32]
 800130e:	f8d7 2438 	ldr.w	r2, [r7, #1080]	@ 0x438
 8001312:	429a      	cmp	r2, r3
 8001314:	f280 8140 	bge.w	8001598 <ILI9341_DrawGlyphFast+0x358>
 8001318:	f507 6389 	add.w	r3, r7, #1096	@ 0x448
 800131c:	f2a3 433c 	subw	r3, r3, #1084	@ 0x43c
 8001320:	681b      	ldr	r3, [r3, #0]
 8001322:	6a5b      	ldr	r3, [r3, #36]	@ 0x24
 8001324:	f8d7 2434 	ldr.w	r2, [r7, #1076]	@ 0x434
 8001328:	429a      	cmp	r2, r3
 800132a:	f280 8135 	bge.w	8001598 <ILI9341_DrawGlyphFast+0x358>
 800132e:	f997 345e 	ldrsb.w	r3, [r7, #1118]	@ 0x45e
 8001332:	2b00      	cmp	r3, #0
 8001334:	f000 8130 	beq.w	8001598 <ILI9341_DrawGlyphFast+0x358>
 8001338:	f997 345f 	ldrsb.w	r3, [r7, #1119]	@ 0x45f
 800133c:	2b00      	cmp	r3, #0
 800133e:	f000 812b 	beq.w	8001598 <ILI9341_DrawGlyphFast+0x358>
 8001342:	f8d7 3438 	ldr.w	r3, [r7, #1080]	@ 0x438
 8001346:	2b00      	cmp	r3, #0
 8001348:	da03      	bge.n	8001352 <ILI9341_DrawGlyphFast+0x112>
 800134a:	f8d7 3438 	ldr.w	r3, [r7, #1080]	@ 0x438
 800134e:	425b      	negs	r3, r3
 8001350:	e000      	b.n	8001354 <ILI9341_DrawGlyphFast+0x114>
 8001352:	2300      	movs	r3, #0
 8001354:	f8c7 3428 	str.w	r3, [r7, #1064]	@ 0x428
 8001358:	f8d7 3434 	ldr.w	r3, [r7, #1076]	@ 0x434
 800135c:	2b00      	cmp	r3, #0
 800135e:	da03      	bge.n	8001368 <ILI9341_DrawGlyphFast+0x128>
 8001360:	f8d7 3434 	ldr.w	r3, [r7, #1076]	@ 0x434
 8001364:	425b      	negs	r3, r3
 8001366:	e000      	b.n	800136a <ILI9341_DrawGlyphFast+0x12a>
 8001368:	2300      	movs	r3, #0
 800136a:	f8c7 3424 	str.w	r3, [r7, #1060]	@ 0x424
 800136e:	f507 6389 	add.w	r3, r7, #1096	@ 0x448
 8001372:	f2a3 433c 	subw	r3, r3, #1084	@ 0x43c
 8001376:	681b      	ldr	r3, [r3, #0]
 8001378:	6a1b      	ldr	r3, [r3, #32]
 800137a:	f8d7 2430 	ldr.w	r2, [r7, #1072]	@ 0x430
 800137e:	429a      	cmp	r2, r3
 8001380:	db0a      	blt.n	8001398 <ILI9341_DrawGlyphFast+0x158>
 8001382:	f507 6389 	add.w	r3, r7, #1096	@ 0x448
 8001386:	f2a3 433c 	subw	r3, r3, #1084	@ 0x43c
 800138a:	681b      	ldr	r3, [r3, #0]
 800138c:	6a1a      	ldr	r2, [r3, #32]
 800138e:	f8d7 3438 	ldr.w	r3, [r7, #1080]	@ 0x438
 8001392:	1ad3      	subs	r3, r2, r3
 8001394:	3b01      	subs	r3, #1
 8001396:	e007      	b.n	80013a8 <ILI9341_DrawGlyphFast+0x168>
 8001398:	f997 345e 	ldrsb.w	r3, [r7, #1118]	@ 0x45e
 800139c:	461a      	mov	r2, r3
 800139e:	f8d7 3470 	ldr.w	r3, [r7, #1136]	@ 0x470
 80013a2:	fb02 f303 	mul.w	r3, r2, r3
 80013a6:	3b01      	subs	r3, #1
 80013a8:	f8c7 3420 	str.w	r3, [r7, #1056]	@ 0x420
 80013ac:	f507 6389 	add.w	r3, r7, #1096	@ 0x448
 80013b0:	f2a3 433c 	subw	r3, r3, #1084	@ 0x43c
 80013b4:	681b      	ldr	r3, [r3, #0]
 80013b6:	6a5b      	ldr	r3, [r3, #36]	@ 0x24
 80013b8:	f8d7 242c 	ldr.w	r2, [r7, #1068]	@ 0x42c
 80013bc:	429a      	cmp	r2, r3
 80013be:	db0a      	blt.n	80013d6 <ILI9341_DrawGlyphFast+0x196>
 80013c0:	f507 6389 	add.w	r3, r7, #1096	@ 0x448
 80013c4:	f2a3 433c 	subw	r3, r3, #1084	@ 0x43c
 80013c8:	681b      	ldr	r3, [r3, #0]
 80013ca:	6a5a      	ldr	r2, [r3, #36]	@ 0x24
 80013cc:	f8d7 3434 	ldr.w	r3, [r7, #1076]	@ 0x434
 80013d0:	1ad3      	subs	r3, r2, r3
 80013d2:	3b01      	subs	r3, #1
 80013d4:	e007      	b.n	80013e6 <ILI9341_DrawGlyphFast+0x1a6>
 80013d6:	f997 345f 	ldrsb.w	r3, [r7, #1119]	@ 0x45f
 80013da:	461a      	mov	r2, r3
 80013dc:	f8d7 3470 	ldr.w	r3, [r7, #1136]	@ 0x470
 80013e0:	fb02 f303 	mul.w	r3, r2, r3
 80013e4:	3b01      	subs	r3, #1
 80013e6:	f8c7 341c 	str.w	r3, [r7, #1052]	@ 0x41c
 80013ea:	f8b7 3468 	ldrh.w	r3, [r7, #1128]	@ 0x468
 80013ee:	0a1b      	lsrs	r3, r3, #8
 80013f0:	b29b      	uxth	r3, r3
 80013f2:	b21a      	sxth	r2, r3
 80013f4:	f9b7 3468 	ldrsh.w	r3, [r7, #1128]	@ 0x468
 80013f8:	021b      	lsls	r3, r3, #8
 80013fa:	b21b      	sxth	r3, r3
 80013fc:	4313      	orrs	r3, r2
 80013fe:	b21b      	sxth	r3, r3
 8001400:	f8a7 3468 	strh.w	r3, [r7, #1128]	@ 0x468
 8001404:	f8b7 346c 	ldrh.w	r3, [r7, #1132]	@ 0x46c
 8001408:	0a1b      	lsrs	r3, r3, #8
 800140a:	b29b      	uxth	r3, r3
 800140c:	b21a      	sxth	r2, r3
 800140e:	f9b7 346c 	ldrsh.w	r3, [r7, #1132]	@ 0x46c
 8001412:	021b      	lsls	r3, r3, #8
 8001414:	b21b      	sxth	r3, r3
 8001416:	4313      	orrs	r3, r2
 8001418:	b21b      	sxth	r3, r3
 800141a:	f8a7 346c 	strh.w	r3, [r7, #1132]	@ 0x46c
 800141e:	2300      	movs	r3, #0
 8001420:	f8c7 3444 	str.w	r3, [r7, #1092]	@ 0x444
 8001424:	f8d7 3438 	ldr.w	r3, [r7, #1080]	@ 0x438
 8001428:	b29a      	uxth	r2, r3
 800142a:	f8d7 3428 	ldr.w	r3, [r7, #1064]	@ 0x428
 800142e:	b29b      	uxth	r3, r3
 8001430:	4413      	add	r3, r2
 8001432:	b299      	uxth	r1, r3
 8001434:	f8d7 3434 	ldr.w	r3, [r7, #1076]	@ 0x434
 8001438:	b29a      	uxth	r2, r3
 800143a:	f8d7 3424 	ldr.w	r3, [r7, #1060]	@ 0x424
 800143e:	b29b      	uxth	r3, r3
 8001440:	4413      	add	r3, r2
 8001442:	b29c      	uxth	r4, r3
 8001444:	f8d7 3438 	ldr.w	r3, [r7, #1080]	@ 0x438
 8001448:	b29a      	uxth	r2, r3
 800144a:	f8d7 3420 	ldr.w	r3, [r7, #1056]	@ 0x420
 800144e:	b29b      	uxth	r3, r3
 8001450:	4413      	add	r3, r2
 8001452:	b29d      	uxth	r5, r3
 8001454:	f8d7 3434 	ldr.w	r3, [r7, #1076]	@ 0x434
 8001458:	b29a      	uxth	r2, r3
 800145a:	f8d7 341c 	ldr.w	r3, [r7, #1052]	@ 0x41c
 800145e:	b29b      	uxth	r3, r3
 8001460:	4413      	add	r3, r2
 8001462:	b29b      	uxth	r3, r3
 8001464:	f507 6289 	add.w	r2, r7, #1096	@ 0x448
 8001468:	f2a2 403c 	subw	r0, r2, #1084	@ 0x43c
 800146c:	9300      	str	r3, [sp, #0]
 800146e:	462b      	mov	r3, r5
 8001470:	4622      	mov	r2, r4
 8001472:	6800      	ldr	r0, [r0, #0]
 8001474:	f7ff fce6 	bl	8000e44 <ILI9341_SetAddressWindow>
 8001478:	f8d7 3424 	ldr.w	r3, [r7, #1060]	@ 0x424
 800147c:	f8c7 3440 	str.w	r3, [r7, #1088]	@ 0x440
 8001480:	e073      	b.n	800156a <ILI9341_DrawGlyphFast+0x32a>
 8001482:	f8d7 3428 	ldr.w	r3, [r7, #1064]	@ 0x428
 8001486:	f8c7 343c 	str.w	r3, [r7, #1084]	@ 0x43c
 800148a:	e063      	b.n	8001554 <ILI9341_DrawGlyphFast+0x314>
 800148c:	f8d7 2440 	ldr.w	r2, [r7, #1088]	@ 0x440
 8001490:	f8d7 3470 	ldr.w	r3, [r7, #1136]	@ 0x470
 8001494:	fb92 f3f3 	sdiv	r3, r2, r3
 8001498:	f997 245e 	ldrsb.w	r2, [r7, #1118]	@ 0x45e
 800149c:	fb03 f202 	mul.w	r2, r3, r2
 80014a0:	f8d7 143c 	ldr.w	r1, [r7, #1084]	@ 0x43c
 80014a4:	f8d7 3470 	ldr.w	r3, [r7, #1136]	@ 0x470
 80014a8:	fb91 f3f3 	sdiv	r3, r1, r3
 80014ac:	4413      	add	r3, r2
 80014ae:	f8c7 3418 	str.w	r3, [r7, #1048]	@ 0x418
 80014b2:	f8d7 3418 	ldr.w	r3, [r7, #1048]	@ 0x418
 80014b6:	f003 0307 	and.w	r3, r3, #7
 80014ba:	2280      	movs	r2, #128	@ 0x80
 80014bc:	fa42 f303 	asr.w	r3, r2, r3
 80014c0:	f887 3417 	strb.w	r3, [r7, #1047]	@ 0x417
 80014c4:	f8d7 3418 	ldr.w	r3, [r7, #1048]	@ 0x418
 80014c8:	2b00      	cmp	r3, #0
 80014ca:	da00      	bge.n	80014ce <ILI9341_DrawGlyphFast+0x28e>
 80014cc:	3307      	adds	r3, #7
 80014ce:	10db      	asrs	r3, r3, #3
 80014d0:	f8c7 3410 	str.w	r3, [r7, #1040]	@ 0x410
 80014d4:	f8d7 2464 	ldr.w	r2, [r7, #1124]	@ 0x464
 80014d8:	f8d7 3410 	ldr.w	r3, [r7, #1040]	@ 0x410
 80014dc:	4413      	add	r3, r2
 80014de:	781a      	ldrb	r2, [r3, #0]
 80014e0:	f897 3417 	ldrb.w	r3, [r7, #1047]	@ 0x417
 80014e4:	4013      	ands	r3, r2
 80014e6:	b2db      	uxtb	r3, r3
 80014e8:	2b00      	cmp	r3, #0
 80014ea:	d00d      	beq.n	8001508 <ILI9341_DrawGlyphFast+0x2c8>
 80014ec:	f8d7 3444 	ldr.w	r3, [r7, #1092]	@ 0x444
 80014f0:	1c5a      	adds	r2, r3, #1
 80014f2:	f8c7 2444 	str.w	r2, [r7, #1092]	@ 0x444
 80014f6:	f507 6289 	add.w	r2, r7, #1096	@ 0x448
 80014fa:	f5a2 6287 	sub.w	r2, r2, #1080	@ 0x438
 80014fe:	f8b7 1468 	ldrh.w	r1, [r7, #1128]	@ 0x468
 8001502:	f822 1013 	strh.w	r1, [r2, r3, lsl #1]
 8001506:	e00c      	b.n	8001522 <ILI9341_DrawGlyphFast+0x2e2>
 8001508:	f8d7 3444 	ldr.w	r3, [r7, #1092]	@ 0x444
 800150c:	1c5a      	adds	r2, r3, #1
 800150e:	f8c7 2444 	str.w	r2, [r7, #1092]	@ 0x444
 8001512:	f507 6289 	add.w	r2, r7, #1096	@ 0x448
 8001516:	f5a2 6287 	sub.w	r2, r2, #1080	@ 0x438
 800151a:	f8b7 146c 	ldrh.w	r1, [r7, #1132]	@ 0x46c
 800151e:	f822 1013 	strh.w	r1, [r2, r3, lsl #1]
 8001522:	f8d7 3444 	ldr.w	r3, [r7, #1092]	@ 0x444
 8001526:	f5b3 7f00 	cmp.w	r3, #512	@ 0x200
 800152a:	d30e      	bcc.n	800154a <ILI9341_DrawGlyphFast+0x30a>
 800152c:	f8d7 3444 	ldr.w	r3, [r7, #1092]	@ 0x444
 8001530:	005a      	lsls	r2, r3, #1
 8001532:	f107 0110 	add.w	r1, r7, #16
 8001536:	f507 6389 	add.w	r3, r7, #1096	@ 0x448
 800153a:	f2a3 433c 	subw	r3, r3, #1084	@ 0x43c
 800153e:	6818      	ldr	r0, [r3, #0]
 8001540:	f7ff fa3b 	bl	80009ba <ILI9341_WriteData>
 8001544:	2300      	movs	r3, #0
 8001546:	f8c7 3444 	str.w	r3, [r7, #1092]	@ 0x444
 800154a:	f8d7 343c 	ldr.w	r3, [r7, #1084]	@ 0x43c
 800154e:	3301      	adds	r3, #1
 8001550:	f8c7 343c 	str.w	r3, [r7, #1084]	@ 0x43c
 8001554:	f8d7 243c 	ldr.w	r2, [r7, #1084]	@ 0x43c
 8001558:	f8d7 3420 	ldr.w	r3, [r7, #1056]	@ 0x420
 800155c:	429a      	cmp	r2, r3
 800155e:	dd95      	ble.n	800148c <ILI9341_DrawGlyphFast+0x24c>
 8001560:	f8d7 3440 	ldr.w	r3, [r7, #1088]	@ 0x440
 8001564:	3301      	adds	r3, #1
 8001566:	f8c7 3440 	str.w	r3, [r7, #1088]	@ 0x440
 800156a:	f8d7 2440 	ldr.w	r2, [r7, #1088]	@ 0x440
 800156e:	f8d7 341c 	ldr.w	r3, [r7, #1052]	@ 0x41c
 8001572:	429a      	cmp	r2, r3
 8001574:	dd85      	ble.n	8001482 <ILI9341_DrawGlyphFast+0x242>
 8001576:	f8d7 3444 	ldr.w	r3, [r7, #1092]	@ 0x444
 800157a:	2b00      	cmp	r3, #0
 800157c:	d00d      	beq.n	800159a <ILI9341_DrawGlyphFast+0x35a>
 800157e:	f8d7 3444 	ldr.w	r3, [r7, #1092]	@ 0x444
 8001582:	005a      	lsls	r2, r3, #1
 8001584:	f107 0110 	add.w	r1, r7, #16
 8001588:	f507 6389 	add.w	r3, r7, #1096	@ 0x448
 800158c:	f2a3 433c 	subw	r3, r3, #1084	@ 0x43c
 8001590:	6818      	ldr	r0, [r3, #0]
 8001592:	f7ff fa12 	bl	80009ba <ILI9341_WriteData>
 8001596:	e000      	b.n	800159a <ILI9341_DrawGlyphFast+0x35a>
 8001598:	bf00      	nop
 800159a:	f507 6789 	add.w	r7, r7, #1096	@ 0x448
 800159e:	46bd      	mov	sp, r7
 80015a0:	e8bd 40b0 	ldmia.w	sp!, {r4, r5, r7, lr}
 80015a4:	b002      	add	sp, #8
 80015a6:	4770      	bx	lr

080015a8 <ILI9341_WriteString>:
 80015a8:	b580      	push	{r7, lr}
 80015aa:	b092      	sub	sp, #72	@ 0x48
 80015ac:	af06      	add	r7, sp, #24
 80015ae:	60f8      	str	r0, [r7, #12]
 80015b0:	60b9      	str	r1, [r7, #8]
 80015b2:	607a      	str	r2, [r7, #4]
 80015b4:	603b      	str	r3, [r7, #0]
 80015b6:	6dfb      	ldr	r3, [r7, #92]	@ 0x5c
 80015b8:	2b00      	cmp	r3, #0
 80015ba:	f340 80f1 	ble.w	80017a0 <ILI9341_WriteString+0x1f8>
 80015be:	6cbb      	ldr	r3, [r7, #72]	@ 0x48
 80015c0:	6dfa      	ldr	r2, [r7, #92]	@ 0x5c
 80015c2:	fb03 f202 	mul.w	r2, r3, r2
 80015c6:	687b      	ldr	r3, [r7, #4]
 80015c8:	4413      	add	r3, r2
 80015ca:	2b00      	cmp	r3, #0
 80015cc:	f2c0 80e8 	blt.w	80017a0 <ILI9341_WriteString+0x1f8>
 80015d0:	6c7b      	ldr	r3, [r7, #68]	@ 0x44
 80015d2:	6dfa      	ldr	r2, [r7, #92]	@ 0x5c
 80015d4:	fb02 f303 	mul.w	r3, r2, r3
 80015d8:	687a      	ldr	r2, [r7, #4]
 80015da:	1ad2      	subs	r2, r2, r3
 80015dc:	68fb      	ldr	r3, [r7, #12]
 80015de:	6a5b      	ldr	r3, [r3, #36]	@ 0x24
 80015e0:	429a      	cmp	r2, r3
 80015e2:	f280 80dd 	bge.w	80017a0 <ILI9341_WriteString+0x1f8>
 80015e6:	68bb      	ldr	r3, [r7, #8]
 80015e8:	62bb      	str	r3, [r7, #40]	@ 0x28
 80015ea:	68f8      	ldr	r0, [r7, #12]
 80015ec:	f7ff f990 	bl	8000910 <ILI9341_Select>
 80015f0:	e0c5      	b.n	800177e <ILI9341_WriteString+0x1d6>
 80015f2:	f897 302f 	ldrb.w	r3, [r7, #47]	@ 0x2f
 80015f6:	2b0d      	cmp	r3, #13
 80015f8:	d102      	bne.n	8001600 <ILI9341_WriteString+0x58>
 80015fa:	6abb      	ldr	r3, [r7, #40]	@ 0x28
 80015fc:	60bb      	str	r3, [r7, #8]
 80015fe:	e0be      	b.n	800177e <ILI9341_WriteString+0x1d6>
 8001600:	f897 302f 	ldrb.w	r3, [r7, #47]	@ 0x2f
 8001604:	2b0a      	cmp	r3, #10
 8001606:	d118      	bne.n	800163a <ILI9341_WriteString+0x92>
 8001608:	6c7a      	ldr	r2, [r7, #68]	@ 0x44
 800160a:	6cbb      	ldr	r3, [r7, #72]	@ 0x48
 800160c:	4413      	add	r3, r2
 800160e:	6dfa      	ldr	r2, [r7, #92]	@ 0x5c
 8001610:	fb03 f202 	mul.w	r2, r3, r2
 8001614:	6e7b      	ldr	r3, [r7, #100]	@ 0x64
 8001616:	4413      	add	r3, r2
 8001618:	687a      	ldr	r2, [r7, #4]
 800161a:	4413      	add	r3, r2
 800161c:	607b      	str	r3, [r7, #4]
 800161e:	6abb      	ldr	r3, [r7, #40]	@ 0x28
 8001620:	60bb      	str	r3, [r7, #8]
 8001622:	6c7b      	ldr	r3, [r7, #68]	@ 0x44
 8001624:	6dfa      	ldr	r2, [r7, #92]	@ 0x5c
 8001626:	fb02 f303 	mul.w	r3, r2, r3
 800162a:	687a      	ldr	r2, [r7, #4]
 800162c:	1ad2      	subs	r2, r2, r3
 800162e:	68fb      	ldr	r3, [r7, #12]
 8001630:	6a5b      	ldr	r3, [r3, #36]	@ 0x24
 8001632:	429a      	cmp	r2, r3
 8001634:	f2c0 80a0 	blt.w	8001778 <ILI9341_WriteString+0x1d0>
 8001638:	e0ae      	b.n	8001798 <ILI9341_WriteString+0x1f0>
 800163a:	f897 202f 	ldrb.w	r2, [r7, #47]	@ 0x2f
 800163e:	6bbb      	ldr	r3, [r7, #56]	@ 0x38
 8001640:	429a      	cmp	r2, r3
 8001642:	d304      	bcc.n	800164e <ILI9341_WriteString+0xa6>
 8001644:	f897 202f 	ldrb.w	r2, [r7, #47]	@ 0x2f
 8001648:	6bfb      	ldr	r3, [r7, #60]	@ 0x3c
 800164a:	429a      	cmp	r2, r3
 800164c:	d902      	bls.n	8001654 <ILI9341_WriteString+0xac>
 800164e:	237f      	movs	r3, #127	@ 0x7f
 8001650:	f887 302f 	strb.w	r3, [r7, #47]	@ 0x2f
 8001654:	6cf9      	ldr	r1, [r7, #76]	@ 0x4c
 8001656:	f897 202f 	ldrb.w	r2, [r7, #47]	@ 0x2f
 800165a:	6bbb      	ldr	r3, [r7, #56]	@ 0x38
 800165c:	1ad2      	subs	r2, r2, r3
 800165e:	4613      	mov	r3, r2
 8001660:	005b      	lsls	r3, r3, #1
 8001662:	4413      	add	r3, r2
 8001664:	009b      	lsls	r3, r3, #2
 8001666:	18ca      	adds	r2, r1, r3
 8001668:	f107 031c 	add.w	r3, r7, #28
 800166c:	ca07      	ldmia	r2, {r0, r1, r2}
 800166e:	e883 0007 	stmia.w	r3, {r0, r1, r2}
 8001672:	f897 3058 	ldrb.w	r3, [r7, #88]	@ 0x58
 8001676:	2b00      	cmp	r3, #0
 8001678:	d032      	beq.n	80016e0 <ILI9341_WriteString+0x138>
 800167a:	f997 3020 	ldrsb.w	r3, [r7, #32]
 800167e:	2b00      	cmp	r3, #0
 8001680:	dd2e      	ble.n	80016e0 <ILI9341_WriteString+0x138>
 8001682:	f997 301c 	ldrsb.w	r3, [r7, #28]
 8001686:	461a      	mov	r2, r3
 8001688:	f997 301e 	ldrsb.w	r3, [r7, #30]
 800168c:	4413      	add	r3, r2
 800168e:	6dfa      	ldr	r2, [r7, #92]	@ 0x5c
 8001690:	fb03 f202 	mul.w	r2, r3, r2
 8001694:	68bb      	ldr	r3, [r7, #8]
 8001696:	4413      	add	r3, r2
 8001698:	1c5a      	adds	r2, r3, #1
 800169a:	68fb      	ldr	r3, [r7, #12]
 800169c:	6a1b      	ldr	r3, [r3, #32]
 800169e:	429a      	cmp	r2, r3
 80016a0:	db1e      	blt.n	80016e0 <ILI9341_WriteString+0x138>
 80016a2:	6c7a      	ldr	r2, [r7, #68]	@ 0x44
 80016a4:	6cbb      	ldr	r3, [r7, #72]	@ 0x48
 80016a6:	4413      	add	r3, r2
 80016a8:	6dfa      	ldr	r2, [r7, #92]	@ 0x5c
 80016aa:	fb03 f202 	mul.w	r2, r3, r2
 80016ae:	6e7b      	ldr	r3, [r7, #100]	@ 0x64
 80016b0:	4413      	add	r3, r2
 80016b2:	687a      	ldr	r2, [r7, #4]
 80016b4:	4413      	add	r3, r2
 80016b6:	607b      	str	r3, [r7, #4]
 80016b8:	6abb      	ldr	r3, [r7, #40]	@ 0x28
 80016ba:	60bb      	str	r3, [r7, #8]
 80016bc:	6c7b      	ldr	r3, [r7, #68]	@ 0x44
 80016be:	6dfa      	ldr	r2, [r7, #92]	@ 0x5c
 80016c0:	fb02 f303 	mul.w	r3, r2, r3
 80016c4:	687a      	ldr	r2, [r7, #4]
 80016c6:	1ad2      	subs	r2, r2, r3
 80016c8:	68fb      	ldr	r3, [r7, #12]
 80016ca:	6a5b      	ldr	r3, [r3, #36]	@ 0x24
 80016cc:	429a      	cmp	r2, r3
 80016ce:	da62      	bge.n	8001796 <ILI9341_WriteString+0x1ee>
 80016d0:	f897 302f 	ldrb.w	r3, [r7, #47]	@ 0x2f
 80016d4:	2b20      	cmp	r3, #32
 80016d6:	d051      	beq.n	800177c <ILI9341_WriteString+0x1d4>
 80016d8:	f897 302f 	ldrb.w	r3, [r7, #47]	@ 0x2f
 80016dc:	2ba0      	cmp	r3, #160	@ 0xa0
 80016de:	d04d      	beq.n	800177c <ILI9341_WriteString+0x1d4>
 80016e0:	6dfb      	ldr	r3, [r7, #92]	@ 0x5c
 80016e2:	9304      	str	r3, [sp, #16]
 80016e4:	f8b7 3054 	ldrh.w	r3, [r7, #84]	@ 0x54
 80016e8:	9303      	str	r3, [sp, #12]
 80016ea:	f8b7 3050 	ldrh.w	r3, [r7, #80]	@ 0x50
 80016ee:	9302      	str	r3, [sp, #8]
 80016f0:	466a      	mov	r2, sp
 80016f2:	f107 0320 	add.w	r3, r7, #32
 80016f6:	e893 0003 	ldmia.w	r3, {r0, r1}
 80016fa:	e882 0003 	stmia.w	r2, {r0, r1}
 80016fe:	69fb      	ldr	r3, [r7, #28]
 8001700:	687a      	ldr	r2, [r7, #4]
 8001702:	68b9      	ldr	r1, [r7, #8]
 8001704:	68f8      	ldr	r0, [r7, #12]
 8001706:	f7ff fd9b 	bl	8001240 <ILI9341_DrawGlyphFast>
 800170a:	f997 3020 	ldrsb.w	r3, [r7, #32]
 800170e:	461a      	mov	r2, r3
 8001710:	6dfb      	ldr	r3, [r7, #92]	@ 0x5c
 8001712:	fb02 f303 	mul.w	r3, r2, r3
 8001716:	68ba      	ldr	r2, [r7, #8]
 8001718:	4413      	add	r3, r2
 800171a:	60bb      	str	r3, [r7, #8]
 800171c:	683b      	ldr	r3, [r7, #0]
 800171e:	781b      	ldrb	r3, [r3, #0]
 8001720:	f887 302f 	strb.w	r3, [r7, #47]	@ 0x2f
 8001724:	f897 202f 	ldrb.w	r2, [r7, #47]	@ 0x2f
 8001728:	6bbb      	ldr	r3, [r7, #56]	@ 0x38
 800172a:	429a      	cmp	r2, r3
 800172c:	d304      	bcc.n	8001738 <ILI9341_WriteString+0x190>
 800172e:	f897 202f 	ldrb.w	r2, [r7, #47]	@ 0x2f
 8001732:	6bfb      	ldr	r3, [r7, #60]	@ 0x3c
 8001734:	429a      	cmp	r2, r3
 8001736:	d902      	bls.n	800173e <ILI9341_WriteString+0x196>
 8001738:	237f      	movs	r3, #127	@ 0x7f
 800173a:	f887 302f 	strb.w	r3, [r7, #47]	@ 0x2f
 800173e:	6e3b      	ldr	r3, [r7, #96]	@ 0x60
 8001740:	2b00      	cmp	r3, #0
 8001742:	d01c      	beq.n	800177e <ILI9341_WriteString+0x1d6>
 8001744:	6cf9      	ldr	r1, [r7, #76]	@ 0x4c
 8001746:	f897 202f 	ldrb.w	r2, [r7, #47]	@ 0x2f
 800174a:	6bbb      	ldr	r3, [r7, #56]	@ 0x38
 800174c:	1ad2      	subs	r2, r2, r3
 800174e:	4613      	mov	r3, r2
 8001750:	005b      	lsls	r3, r3, #1
 8001752:	4413      	add	r3, r2
 8001754:	009b      	lsls	r3, r3, #2
 8001756:	18ca      	adds	r2, r1, r3
 8001758:	f107 0310 	add.w	r3, r7, #16
 800175c:	ca07      	ldmia	r2, {r0, r1, r2}
 800175e:	e883 0007 	stmia.w	r3, {r0, r1, r2}
 8001762:	f997 3014 	ldrsb.w	r3, [r7, #20]
 8001766:	2b00      	cmp	r3, #0
 8001768:	dd01      	ble.n	800176e <ILI9341_WriteString+0x1c6>
 800176a:	6e3b      	ldr	r3, [r7, #96]	@ 0x60
 800176c:	e000      	b.n	8001770 <ILI9341_WriteString+0x1c8>
 800176e:	2300      	movs	r3, #0
 8001770:	68ba      	ldr	r2, [r7, #8]
 8001772:	4413      	add	r3, r2
 8001774:	60bb      	str	r3, [r7, #8]
 8001776:	e002      	b.n	800177e <ILI9341_WriteString+0x1d6>
 8001778:	bf00      	nop
 800177a:	e000      	b.n	800177e <ILI9341_WriteString+0x1d6>
 800177c:	bf00      	nop
 800177e:	683b      	ldr	r3, [r7, #0]
 8001780:	1c5a      	adds	r2, r3, #1
 8001782:	603a      	str	r2, [r7, #0]
 8001784:	781b      	ldrb	r3, [r3, #0]
 8001786:	f887 302f 	strb.w	r3, [r7, #47]	@ 0x2f
 800178a:	f897 302f 	ldrb.w	r3, [r7, #47]	@ 0x2f
 800178e:	2b00      	cmp	r3, #0
 8001790:	f47f af2f 	bne.w	80015f2 <ILI9341_WriteString+0x4a>
 8001794:	e000      	b.n	8001798 <ILI9341_WriteString+0x1f0>
 8001796:	bf00      	nop
 8001798:	68f8      	ldr	r0, [r7, #12]
 800179a:	f7ff f8c9 	bl	8000930 <ILI9341_Deselect>
 800179e:	e000      	b.n	80017a2 <ILI9341_WriteString+0x1fa>
 80017a0:	bf00      	nop
 80017a2:	3730      	adds	r7, #48	@ 0x30
 80017a4:	46bd      	mov	sp, r7
 80017a6:	bd80      	pop	{r7, pc}

080017a8 <home>:
void motorStop() {
	HAL_GPIO_WritePin(GPIOE, GPIO_PIN_13, 0);
	HAL_GPIO_WritePin(GPIOF, GPIO_PIN_15, 0);
}

void home() {
 80017a8:	b580      	push	{r7, lr}
 80017aa:	b082      	sub	sp, #8
 80017ac:	af02      	add	r7, sp, #8
	posX *= 1.0;
 80017ae:	4b45      	ldr	r3, [pc, #276]	@ (80018c4 <home+0x11c>)
 80017b0:	681b      	ldr	r3, [r3, #0]
 80017b2:	4a44      	ldr	r2, [pc, #272]	@ (80018c4 <home+0x11c>)
 80017b4:	6013      	str	r3, [r2, #0]
	posY *= 1.0;
 80017b6:	4b44      	ldr	r3, [pc, #272]	@ (80018c8 <home+0x120>)
 80017b8:	681b      	ldr	r3, [r3, #0]
 80017ba:	4a43      	ldr	r2, [pc, #268]	@ (80018c8 <home+0x120>)
 80017bc:	6013      	str	r3, [r2, #0]
	while (posX > 0) {
 80017be:	e026      	b.n	800180e <home+0x66>
		  HAL_GPIO_WritePin(GPIOE, GPIO_PIN_13, 1);
 80017c0:	2201      	movs	r2, #1
 80017c2:	f44f 5100 	mov.w	r1, #8192	@ 0x2000
 80017c6:	4841      	ldr	r0, [pc, #260]	@ (80018cc <home+0x124>)
 80017c8:	f001 fac0 	bl	8002d4c <HAL_GPIO_WritePin>
		  HAL_GPIO_WritePin(GPIOF, GPIO_PIN_15, 0);
 80017cc:	2200      	movs	r2, #0
 80017ce:	f44f 4100 	mov.w	r1, #32768	@ 0x8000
 80017d2:	483f      	ldr	r0, [pc, #252]	@ (80018d0 <home+0x128>)
 80017d4:	f001 faba 	bl	8002d4c <HAL_GPIO_WritePin>
		  posX -= 1;
 80017d8:	4b3a      	ldr	r3, [pc, #232]	@ (80018c4 <home+0x11c>)
 80017da:	edd3 7a00 	vldr	s15, [r3]
 80017de:	eeb7 7a00 	vmov.f32	s14, #112	@ 0x3f800000  1.0
 80017e2:	ee77 7ac7 	vsub.f32	s15, s15, s14
 80017e6:	4b37      	ldr	r3, [pc, #220]	@ (80018c4 <home+0x11c>)
 80017e8:	edc3 7a00 	vstr	s15, [r3]
		  transmitStringUART("Position (%.1f, %.1f)\r\n", posX, posY);
 80017ec:	4b35      	ldr	r3, [pc, #212]	@ (80018c4 <home+0x11c>)
 80017ee:	edd3 7a00 	vldr	s15, [r3]
 80017f2:	eeb7 6ae7 	vcvt.f64.f32	d6, s15
 80017f6:	4b34      	ldr	r3, [pc, #208]	@ (80018c8 <home+0x120>)
 80017f8:	edd3 7a00 	vldr	s15, [r3]
 80017fc:	eeb7 7ae7 	vcvt.f64.f32	d7, s15
 8001800:	ed8d 7b00 	vstr	d7, [sp]
 8001804:	ec53 2b16 	vmov	r2, r3, d6
 8001808:	4832      	ldr	r0, [pc, #200]	@ (80018d4 <home+0x12c>)
 800180a:	f000 fb13 	bl	8001e34 <transmitStringUART>
	while (posX > 0) {
 800180e:	4b2d      	ldr	r3, [pc, #180]	@ (80018c4 <home+0x11c>)
 8001810:	edd3 7a00 	vldr	s15, [r3]
 8001814:	eef5 7ac0 	vcmpe.f32	s15, #0.0
 8001818:	eef1 fa10 	vmrs	APSR_nzcv, fpscr
 800181c:	dcd0      	bgt.n	80017c0 <home+0x18>
	}
	 HAL_GPIO_WritePin(GPIOE, GPIO_PIN_13, 0);
 800181e:	2200      	movs	r2, #0
 8001820:	f44f 5100 	mov.w	r1, #8192	@ 0x2000
 8001824:	4829      	ldr	r0, [pc, #164]	@ (80018cc <home+0x124>)
 8001826:	f001 fa91 	bl	8002d4c <HAL_GPIO_WritePin>
	 HAL_GPIO_WritePin(GPIOF, GPIO_PIN_15, 0);
 800182a:	2200      	movs	r2, #0
 800182c:	f44f 4100 	mov.w	r1, #32768	@ 0x8000
 8001830:	4827      	ldr	r0, [pc, #156]	@ (80018d0 <home+0x128>)
 8001832:	f001 fa8b 	bl	8002d4c <HAL_GPIO_WritePin>

	while (posY > 0) {
 8001836:	e026      	b.n	8001886 <home+0xde>
		  HAL_GPIO_WritePin(GPIOG, GPIO_PIN_14, 1);
 8001838:	2201      	movs	r2, #1
 800183a:	f44f 4180 	mov.w	r1, #16384	@ 0x4000
 800183e:	4826      	ldr	r0, [pc, #152]	@ (80018d8 <home+0x130>)
 8001840:	f001 fa84 	bl	8002d4c <HAL_GPIO_WritePin>
		  HAL_GPIO_WritePin(GPIOG, GPIO_PIN_9, 0);
 8001844:	2200      	movs	r2, #0
 8001846:	f44f 7100 	mov.w	r1, #512	@ 0x200
 800184a:	4823      	ldr	r0, [pc, #140]	@ (80018d8 <home+0x130>)
 800184c:	f001 fa7e 	bl	8002d4c <HAL_GPIO_WritePin>
		  posY -= 1;
 8001850:	4b1d      	ldr	r3, [pc, #116]	@ (80018c8 <home+0x120>)
 8001852:	edd3 7a00 	vldr	s15, [r3]
 8001856:	eeb7 7a00 	vmov.f32	s14, #112	@ 0x3f800000  1.0
 800185a:	ee77 7ac7 	vsub.f32	s15, s15, s14
 800185e:	4b1a      	ldr	r3, [pc, #104]	@ (80018c8 <home+0x120>)
 8001860:	edc3 7a00 	vstr	s15, [r3]
		  transmitStringUART("Position (%.1f, %.1f)\r\n", posX, posY);
 8001864:	4b17      	ldr	r3, [pc, #92]	@ (80018c4 <home+0x11c>)
 8001866:	edd3 7a00 	vldr	s15, [r3]
 800186a:	eeb7 6ae7 	vcvt.f64.f32	d6, s15
 800186e:	4b16      	ldr	r3, [pc, #88]	@ (80018c8 <home+0x120>)
 8001870:	edd3 7a00 	vldr	s15, [r3]
 8001874:	eeb7 7ae7 	vcvt.f64.f32	d7, s15
 8001878:	ed8d 7b00 	vstr	d7, [sp]
 800187c:	ec53 2b16 	vmov	r2, r3, d6
 8001880:	4814      	ldr	r0, [pc, #80]	@ (80018d4 <home+0x12c>)
 8001882:	f000 fad7 	bl	8001e34 <transmitStringUART>
	while (posY > 0) {
 8001886:	4b10      	ldr	r3, [pc, #64]	@ (80018c8 <home+0x120>)
 8001888:	edd3 7a00 	vldr	s15, [r3]
 800188c:	eef5 7ac0 	vcmpe.f32	s15, #0.0
 8001890:	eef1 fa10 	vmrs	APSR_nzcv, fpscr
 8001894:	dcd0      	bgt.n	8001838 <home+0x90>
	}
	  HAL_GPIO_WritePin(GPIOG, GPIO_PIN_14, 0);
 8001896:	2200      	movs	r2, #0
 8001898:	f44f 4180 	mov.w	r1, #16384	@ 0x4000
 800189c:	480e      	ldr	r0, [pc, #56]	@ (80018d8 <home+0x130>)
 800189e:	f001 fa55 	bl	8002d4c <HAL_GPIO_WritePin>
	  HAL_GPIO_WritePin(GPIOG, GPIO_PIN_9, 0);
 80018a2:	2200      	movs	r2, #0
 80018a4:	f44f 7100 	mov.w	r1, #512	@ 0x200
 80018a8:	480b      	ldr	r0, [pc, #44]	@ (80018d8 <home+0x130>)
 80018aa:	f001 fa4f 	bl	8002d4c <HAL_GPIO_WritePin>

	  posX = 0.0f;
 80018ae:	4b05      	ldr	r3, [pc, #20]	@ (80018c4 <home+0x11c>)
 80018b0:	f04f 0200 	mov.w	r2, #0
 80018b4:	601a      	str	r2, [r3, #0]
	  posY = 0.0f;
 80018b6:	4b04      	ldr	r3, [pc, #16]	@ (80018c8 <home+0x120>)
 80018b8:	f04f 0200 	mov.w	r2, #0
 80018bc:	601a      	str	r2, [r3, #0]
}
 80018be:	bf00      	nop
 80018c0:	46bd      	mov	sp, r7
 80018c2:	bd80      	pop	{r7, pc}
 80018c4:	20000090 	.word	0x20000090
 80018c8:	20000094 	.word	0x20000094
 80018cc:	40021000 	.word	0x40021000
 80018d0:	40021400 	.word	0x40021400
 80018d4:	08006f2c 	.word	0x08006f2c
 80018d8:	40021800 	.word	0x40021800

080018dc <main>:
/**
  * @brief  The application entry point.
  * @retval int
  */
int main(void)
{
 80018dc:	b5b0      	push	{r4, r5, r7, lr}
 80018de:	b094      	sub	sp, #80	@ 0x50
 80018e0:	af08      	add	r7, sp, #32
  /* USER CODE END 1 */

  /* MCU Configuration--------------------------------------------------------*/

  /* Reset of all peripherals, Initializes the Flash interface and the Systick. */
  HAL_Init();
 80018e2:	f000 fedc 	bl	800269e <HAL_Init>
  /* USER CODE BEGIN Init */

  /* USER CODE END Init */

  /* Configure the system clock */
  SystemClock_Config();
 80018e6:	f000 fa35 	bl	8001d54 <SystemClock_Config>
  /* USER CODE BEGIN SysInit */

  /* USER CODE END SysInit */

  /* Initialize all configured peripherals */
  MX_GPIO_Init();
 80018ea:	f7fe feed 	bl	80006c8 <MX_GPIO_Init>
  MX_USART3_UART_Init();
 80018ee:	f000 fe1d 	bl	800252c <MX_USART3_UART_Init>
  MX_TIM2_Init();
 80018f2:	f000 fcd7 	bl	80022a4 <MX_TIM2_Init>
  MX_SPI5_Init();
 80018f6:	f000 fba5 	bl	8002044 <MX_SPI5_Init>
  MX_TIM3_Init();
 80018fa:	f000 fd21 	bl	8002340 <MX_TIM3_Init>
  /* USER CODE BEGIN 2 */
  HAL_TIM_PWM_Start(&htim3, TIM_CHANNEL_1);
 80018fe:	2100      	movs	r1, #0
 8001900:	48aa      	ldr	r0, [pc, #680]	@ (8001bac <main+0x2d0>)
 8001902:	f003 f8b3 	bl	8004a6c <HAL_TIM_PWM_Start>
  HAL_TIM_PWM_Start(&htim3, TIM_CHANNEL_2);
 8001906:	2104      	movs	r1, #4
 8001908:	48a8      	ldr	r0, [pc, #672]	@ (8001bac <main+0x2d0>)
 800190a:	f003 f8af 	bl	8004a6c <HAL_TIM_PWM_Start>
  ili9341 = ILI9341_Init(
 800190e:	4ca8      	ldr	r4, [pc, #672]	@ (8001bb0 <main+0x2d4>)
 8001910:	4638      	mov	r0, r7
 8001912:	23f0      	movs	r3, #240	@ 0xf0
 8001914:	9306      	str	r3, [sp, #24]
 8001916:	f44f 73a0 	mov.w	r3, #320	@ 0x140
 800191a:	9305      	str	r3, [sp, #20]
 800191c:	2301      	movs	r3, #1
 800191e:	9304      	str	r3, [sp, #16]
 8001920:	f44f 6380 	mov.w	r3, #1024	@ 0x400
 8001924:	9303      	str	r3, [sp, #12]
 8001926:	4ba3      	ldr	r3, [pc, #652]	@ (8001bb4 <main+0x2d8>)
 8001928:	9302      	str	r3, [sp, #8]
 800192a:	f44f 7300 	mov.w	r3, #512	@ 0x200
 800192e:	9301      	str	r3, [sp, #4]
 8001930:	4ba0      	ldr	r3, [pc, #640]	@ (8001bb4 <main+0x2d8>)
 8001932:	9300      	str	r3, [sp, #0]
 8001934:	f44f 7380 	mov.w	r3, #256	@ 0x100
 8001938:	4a9e      	ldr	r2, [pc, #632]	@ (8001bb4 <main+0x2d8>)
 800193a:	499f      	ldr	r1, [pc, #636]	@ (8001bb8 <main+0x2dc>)
 800193c:	f7ff f86c 	bl	8000a18 <ILI9341_Init>
 8001940:	4625      	mov	r5, r4
 8001942:	463c      	mov	r4, r7
 8001944:	cc0f      	ldmia	r4!, {r0, r1, r2, r3}
 8001946:	c50f      	stmia	r5!, {r0, r1, r2, r3}
 8001948:	cc0f      	ldmia	r4!, {r0, r1, r2, r3}
 800194a:	c50f      	stmia	r5!, {r0, r1, r2, r3}
 800194c:	e894 0003 	ldmia.w	r4, {r0, r1}
 8001950:	e885 0003 	stmia.w	r5, {r0, r1}
  /* USER CODE END 2 */

  /* Infinite loop */
  /* USER CODE BEGIN WHILE */

  transmitStringUART("Program started. Current State: %s\r\n", stateNames[STATE]);
 8001954:	4b99      	ldr	r3, [pc, #612]	@ (8001bbc <main+0x2e0>)
 8001956:	781b      	ldrb	r3, [r3, #0]
 8001958:	461a      	mov	r2, r3
 800195a:	4b99      	ldr	r3, [pc, #612]	@ (8001bc0 <main+0x2e4>)
 800195c:	f853 3022 	ldr.w	r3, [r3, r2, lsl #2]
 8001960:	4619      	mov	r1, r3
 8001962:	4898      	ldr	r0, [pc, #608]	@ (8001bc4 <main+0x2e8>)
 8001964:	f000 fa66 	bl	8001e34 <transmitStringUART>



//	  transmitStringUART("Button: %d\r\n", );

	  if (HAL_GPIO_ReadPin(GPIOD, GPIO_PIN_13) == 0) {
 8001968:	f44f 5100 	mov.w	r1, #8192	@ 0x2000
 800196c:	4896      	ldr	r0, [pc, #600]	@ (8001bc8 <main+0x2ec>)
 800196e:	f001 f9d5 	bl	8002d1c <HAL_GPIO_ReadPin>
 8001972:	4603      	mov	r3, r0
 8001974:	2b00      	cmp	r3, #0
 8001976:	d122      	bne.n	80019be <main+0xe2>
		  if (STATE == WAIT_CONFIRM) {
 8001978:	4b90      	ldr	r3, [pc, #576]	@ (8001bbc <main+0x2e0>)
 800197a:	781b      	ldrb	r3, [r3, #0]
 800197c:	2b02      	cmp	r3, #2
 800197e:	d10d      	bne.n	800199c <main+0xc0>
			  STATE = GAME;
 8001980:	4b8e      	ldr	r3, [pc, #568]	@ (8001bbc <main+0x2e0>)
 8001982:	2203      	movs	r2, #3
 8001984:	701a      	strb	r2, [r3, #0]
			  transmitStringUART("State changed to %s\r\n", stateNames[STATE]);
 8001986:	4b8d      	ldr	r3, [pc, #564]	@ (8001bbc <main+0x2e0>)
 8001988:	781b      	ldrb	r3, [r3, #0]
 800198a:	461a      	mov	r2, r3
 800198c:	4b8c      	ldr	r3, [pc, #560]	@ (8001bc0 <main+0x2e4>)
 800198e:	f853 3022 	ldr.w	r3, [r3, r2, lsl #2]
 8001992:	4619      	mov	r1, r3
 8001994:	488d      	ldr	r0, [pc, #564]	@ (8001bcc <main+0x2f0>)
 8001996:	f000 fa4d 	bl	8001e34 <transmitStringUART>
 800199a:	e010      	b.n	80019be <main+0xe2>
		  }
		  else if (STATE == GAME) {
 800199c:	4b87      	ldr	r3, [pc, #540]	@ (8001bbc <main+0x2e0>)
 800199e:	781b      	ldrb	r3, [r3, #0]
 80019a0:	2b03      	cmp	r3, #3
 80019a2:	d10c      	bne.n	80019be <main+0xe2>
			  STATE = DEPOSIT;
 80019a4:	4b85      	ldr	r3, [pc, #532]	@ (8001bbc <main+0x2e0>)
 80019a6:	2204      	movs	r2, #4
 80019a8:	701a      	strb	r2, [r3, #0]
			  transmitStringUART("State changed to %s\r\n", stateNames[STATE]);
 80019aa:	4b84      	ldr	r3, [pc, #528]	@ (8001bbc <main+0x2e0>)
 80019ac:	781b      	ldrb	r3, [r3, #0]
 80019ae:	461a      	mov	r2, r3
 80019b0:	4b83      	ldr	r3, [pc, #524]	@ (8001bc0 <main+0x2e4>)
 80019b2:	f853 3022 	ldr.w	r3, [r3, r2, lsl #2]
 80019b6:	4619      	mov	r1, r3
 80019b8:	4884      	ldr	r0, [pc, #528]	@ (8001bcc <main+0x2f0>)
 80019ba:	f000 fa3b 	bl	8001e34 <transmitStringUART>
		  }
	  }


	  renderPage(STATE);
 80019be:	4b7f      	ldr	r3, [pc, #508]	@ (8001bbc <main+0x2e0>)
 80019c0:	781b      	ldrb	r3, [r3, #0]
 80019c2:	4618      	mov	r0, r3
 80019c4:	f7fe fe2a 	bl	800061c <renderPage>

	  if (STATE == IDLE) {
 80019c8:	4b7c      	ldr	r3, [pc, #496]	@ (8001bbc <main+0x2e0>)
 80019ca:	781b      	ldrb	r3, [r3, #0]
 80019cc:	2b00      	cmp	r3, #0
 80019ce:	d114      	bne.n	80019fa <main+0x11e>
		  if (currentCoinAmount != 0) {
 80019d0:	4b7f      	ldr	r3, [pc, #508]	@ (8001bd0 <main+0x2f4>)
 80019d2:	781b      	ldrb	r3, [r3, #0]
 80019d4:	2b00      	cmp	r3, #0
 80019d6:	d0c7      	beq.n	8001968 <main+0x8c>

			  HAL_TIM_Base_Start_IT(&htim2);
 80019d8:	487e      	ldr	r0, [pc, #504]	@ (8001bd4 <main+0x2f8>)
 80019da:	f002 ff3f 	bl	800485c <HAL_TIM_Base_Start_IT>

			  STATE = WAIT_COIN;
 80019de:	4b77      	ldr	r3, [pc, #476]	@ (8001bbc <main+0x2e0>)
 80019e0:	2201      	movs	r2, #1
 80019e2:	701a      	strb	r2, [r3, #0]
			  transmitStringUART("State changed to %s\r\n", stateNames[STATE]);
 80019e4:	4b75      	ldr	r3, [pc, #468]	@ (8001bbc <main+0x2e0>)
 80019e6:	781b      	ldrb	r3, [r3, #0]
 80019e8:	461a      	mov	r2, r3
 80019ea:	4b75      	ldr	r3, [pc, #468]	@ (8001bc0 <main+0x2e4>)
 80019ec:	f853 3022 	ldr.w	r3, [r3, r2, lsl #2]
 80019f0:	4619      	mov	r1, r3
 80019f2:	4876      	ldr	r0, [pc, #472]	@ (8001bcc <main+0x2f0>)
 80019f4:	f000 fa1e 	bl	8001e34 <transmitStringUART>
 80019f8:	e7b6      	b.n	8001968 <main+0x8c>

		  }
	  }
	  else if (STATE == WAIT_COIN) {
 80019fa:	4b70      	ldr	r3, [pc, #448]	@ (8001bbc <main+0x2e0>)
 80019fc:	781b      	ldrb	r3, [r3, #0]
 80019fe:	2b01      	cmp	r3, #1
 8001a00:	d11c      	bne.n	8001a3c <main+0x160>
		  if (currentCoinAmount >= TARGET_COIN_AMOUNT) {
 8001a02:	4b73      	ldr	r3, [pc, #460]	@ (8001bd0 <main+0x2f4>)
 8001a04:	781b      	ldrb	r3, [r3, #0]
 8001a06:	220a      	movs	r2, #10
 8001a08:	4293      	cmp	r3, r2
 8001a0a:	d3ad      	bcc.n	8001968 <main+0x8c>

			  HAL_TIM_Base_Stop_IT(&htim2);
 8001a0c:	4871      	ldr	r0, [pc, #452]	@ (8001bd4 <main+0x2f8>)
 8001a0e:	f002 ff9d 	bl	800494c <HAL_TIM_Base_Stop_IT>
			  currentCoinAmount = 0;
 8001a12:	4b6f      	ldr	r3, [pc, #444]	@ (8001bd0 <main+0x2f4>)
 8001a14:	2200      	movs	r2, #0
 8001a16:	701a      	strb	r2, [r3, #0]
			  __HAL_TIM_SET_COUNTER(&htim2, 0);
 8001a18:	4b6e      	ldr	r3, [pc, #440]	@ (8001bd4 <main+0x2f8>)
 8001a1a:	681b      	ldr	r3, [r3, #0]
 8001a1c:	2200      	movs	r2, #0
 8001a1e:	625a      	str	r2, [r3, #36]	@ 0x24

			  STATE = GAME;
 8001a20:	4b66      	ldr	r3, [pc, #408]	@ (8001bbc <main+0x2e0>)
 8001a22:	2203      	movs	r2, #3
 8001a24:	701a      	strb	r2, [r3, #0]
			  transmitStringUART("State changed to %s\r\n", stateNames[STATE]);
 8001a26:	4b65      	ldr	r3, [pc, #404]	@ (8001bbc <main+0x2e0>)
 8001a28:	781b      	ldrb	r3, [r3, #0]
 8001a2a:	461a      	mov	r2, r3
 8001a2c:	4b64      	ldr	r3, [pc, #400]	@ (8001bc0 <main+0x2e4>)
 8001a2e:	f853 3022 	ldr.w	r3, [r3, r2, lsl #2]
 8001a32:	4619      	mov	r1, r3
 8001a34:	4865      	ldr	r0, [pc, #404]	@ (8001bcc <main+0x2f0>)
 8001a36:	f000 f9fd 	bl	8001e34 <transmitStringUART>
 8001a3a:	e795      	b.n	8001968 <main+0x8c>

		  }
	  }
	  else if (STATE == GAME) {
 8001a3c:	4b5f      	ldr	r3, [pc, #380]	@ (8001bbc <main+0x2e0>)
 8001a3e:	781b      	ldrb	r3, [r3, #0]
 8001a40:	2b03      	cmp	r3, #3
 8001a42:	f040 810e 	bne.w	8001c62 <main+0x386>
		  HAL_TIM_Base_Start_IT(&htim2);
 8001a46:	4863      	ldr	r0, [pc, #396]	@ (8001bd4 <main+0x2f8>)
 8001a48:	f002 ff08 	bl	800485c <HAL_TIM_Base_Start_IT>
		  const uint8_t joystickUp = HAL_GPIO_ReadPin(GPIOF, GPIO_PIN_13);
 8001a4c:	f44f 5100 	mov.w	r1, #8192	@ 0x2000
 8001a50:	4861      	ldr	r0, [pc, #388]	@ (8001bd8 <main+0x2fc>)
 8001a52:	f001 f963 	bl	8002d1c <HAL_GPIO_ReadPin>
 8001a56:	4603      	mov	r3, r0
 8001a58:	f887 302f 	strb.w	r3, [r7, #47]	@ 0x2f
		  const uint8_t joystickDown = HAL_GPIO_ReadPin(GPIOE, GPIO_PIN_9);
 8001a5c:	f44f 7100 	mov.w	r1, #512	@ 0x200
 8001a60:	485e      	ldr	r0, [pc, #376]	@ (8001bdc <main+0x300>)
 8001a62:	f001 f95b 	bl	8002d1c <HAL_GPIO_ReadPin>
 8001a66:	4603      	mov	r3, r0
 8001a68:	f887 302e 	strb.w	r3, [r7, #46]	@ 0x2e
		  const uint8_t joystickLeft = HAL_GPIO_ReadPin(GPIOE, GPIO_PIN_11);
 8001a6c:	f44f 6100 	mov.w	r1, #2048	@ 0x800
 8001a70:	485a      	ldr	r0, [pc, #360]	@ (8001bdc <main+0x300>)
 8001a72:	f001 f953 	bl	8002d1c <HAL_GPIO_ReadPin>
 8001a76:	4603      	mov	r3, r0
 8001a78:	f887 302d 	strb.w	r3, [r7, #45]	@ 0x2d
		  const uint8_t joystickRight = HAL_GPIO_ReadPin(GPIOF, GPIO_PIN_14);
 8001a7c:	f44f 4180 	mov.w	r1, #16384	@ 0x4000
 8001a80:	4855      	ldr	r0, [pc, #340]	@ (8001bd8 <main+0x2fc>)
 8001a82:	f001 f94b 	bl	8002d1c <HAL_GPIO_ReadPin>
 8001a86:	4603      	mov	r3, r0
 8001a88:	f887 302c 	strb.w	r3, [r7, #44]	@ 0x2c

	//	  transmitStringUART("Up = %d | Down = %d | Left = %d | Right = %d \r\n", joystickUp, joystickDown, joystickLeft, joystickRight);


		  if (!joystickLeft) {
 8001a8c:	f897 302d 	ldrb.w	r3, [r7, #45]	@ 0x2d
 8001a90:	2b00      	cmp	r3, #0
 8001a92:	d127      	bne.n	8001ae4 <main+0x208>
			  HAL_GPIO_WritePin(GPIOE, GPIO_PIN_13, 0);
 8001a94:	2200      	movs	r2, #0
 8001a96:	f44f 5100 	mov.w	r1, #8192	@ 0x2000
 8001a9a:	4850      	ldr	r0, [pc, #320]	@ (8001bdc <main+0x300>)
 8001a9c:	f001 f956 	bl	8002d4c <HAL_GPIO_WritePin>
			  HAL_GPIO_WritePin(GPIOF, GPIO_PIN_15, 1);
 8001aa0:	2201      	movs	r2, #1
 8001aa2:	f44f 4100 	mov.w	r1, #32768	@ 0x8000
 8001aa6:	484c      	ldr	r0, [pc, #304]	@ (8001bd8 <main+0x2fc>)
 8001aa8:	f001 f950 	bl	8002d4c <HAL_GPIO_WritePin>
			  posX += 1;
 8001aac:	4b4c      	ldr	r3, [pc, #304]	@ (8001be0 <main+0x304>)
 8001aae:	edd3 7a00 	vldr	s15, [r3]
 8001ab2:	eeb7 7a00 	vmov.f32	s14, #112	@ 0x3f800000  1.0
 8001ab6:	ee77 7a87 	vadd.f32	s15, s15, s14
 8001aba:	4b49      	ldr	r3, [pc, #292]	@ (8001be0 <main+0x304>)
 8001abc:	edc3 7a00 	vstr	s15, [r3]
			  transmitStringUART("Position (%.1f, %.1f)\r\n", posX, posY);
 8001ac0:	4b47      	ldr	r3, [pc, #284]	@ (8001be0 <main+0x304>)
 8001ac2:	edd3 7a00 	vldr	s15, [r3]
 8001ac6:	eeb7 6ae7 	vcvt.f64.f32	d6, s15
 8001aca:	4b46      	ldr	r3, [pc, #280]	@ (8001be4 <main+0x308>)
 8001acc:	edd3 7a00 	vldr	s15, [r3]
 8001ad0:	eeb7 7ae7 	vcvt.f64.f32	d7, s15
 8001ad4:	ed8d 7b00 	vstr	d7, [sp]
 8001ad8:	ec53 2b16 	vmov	r2, r3, d6
 8001adc:	4842      	ldr	r0, [pc, #264]	@ (8001be8 <main+0x30c>)
 8001ade:	f000 f9a9 	bl	8001e34 <transmitStringUART>
 8001ae2:	e037      	b.n	8001b54 <main+0x278>
		  }
		  else if (!joystickRight) {
 8001ae4:	f897 302c 	ldrb.w	r3, [r7, #44]	@ 0x2c
 8001ae8:	2b00      	cmp	r3, #0
 8001aea:	d127      	bne.n	8001b3c <main+0x260>
			  HAL_GPIO_WritePin(GPIOE, GPIO_PIN_13, 1);
 8001aec:	2201      	movs	r2, #1
 8001aee:	f44f 5100 	mov.w	r1, #8192	@ 0x2000
 8001af2:	483a      	ldr	r0, [pc, #232]	@ (8001bdc <main+0x300>)
 8001af4:	f001 f92a 	bl	8002d4c <HAL_GPIO_WritePin>
			  HAL_GPIO_WritePin(GPIOF, GPIO_PIN_15, 0);
 8001af8:	2200      	movs	r2, #0
 8001afa:	f44f 4100 	mov.w	r1, #32768	@ 0x8000
 8001afe:	4836      	ldr	r0, [pc, #216]	@ (8001bd8 <main+0x2fc>)
 8001b00:	f001 f924 	bl	8002d4c <HAL_GPIO_WritePin>
			  posX -= 1;
 8001b04:	4b36      	ldr	r3, [pc, #216]	@ (8001be0 <main+0x304>)
 8001b06:	edd3 7a00 	vldr	s15, [r3]
 8001b0a:	eeb7 7a00 	vmov.f32	s14, #112	@ 0x3f800000  1.0
 8001b0e:	ee77 7ac7 	vsub.f32	s15, s15, s14
 8001b12:	4b33      	ldr	r3, [pc, #204]	@ (8001be0 <main+0x304>)
 8001b14:	edc3 7a00 	vstr	s15, [r3]
			  transmitStringUART("Position (%.1f, %.1f)\r\n", posX, posY);
 8001b18:	4b31      	ldr	r3, [pc, #196]	@ (8001be0 <main+0x304>)
 8001b1a:	edd3 7a00 	vldr	s15, [r3]
 8001b1e:	eeb7 6ae7 	vcvt.f64.f32	d6, s15
 8001b22:	4b30      	ldr	r3, [pc, #192]	@ (8001be4 <main+0x308>)
 8001b24:	edd3 7a00 	vldr	s15, [r3]
 8001b28:	eeb7 7ae7 	vcvt.f64.f32	d7, s15
 8001b2c:	ed8d 7b00 	vstr	d7, [sp]
 8001b30:	ec53 2b16 	vmov	r2, r3, d6
 8001b34:	482c      	ldr	r0, [pc, #176]	@ (8001be8 <main+0x30c>)
 8001b36:	f000 f97d 	bl	8001e34 <transmitStringUART>
 8001b3a:	e00b      	b.n	8001b54 <main+0x278>
		  }
		  else {
			  HAL_GPIO_WritePin(GPIOE, GPIO_PIN_13, 0);
 8001b3c:	2200      	movs	r2, #0
 8001b3e:	f44f 5100 	mov.w	r1, #8192	@ 0x2000
 8001b42:	4826      	ldr	r0, [pc, #152]	@ (8001bdc <main+0x300>)
 8001b44:	f001 f902 	bl	8002d4c <HAL_GPIO_WritePin>
			  HAL_GPIO_WritePin(GPIOF, GPIO_PIN_15, 0);
 8001b48:	2200      	movs	r2, #0
 8001b4a:	f44f 4100 	mov.w	r1, #32768	@ 0x8000
 8001b4e:	4822      	ldr	r0, [pc, #136]	@ (8001bd8 <main+0x2fc>)
 8001b50:	f001 f8fc 	bl	8002d4c <HAL_GPIO_WritePin>
		  }

		  if (!joystickUp) {
 8001b54:	f897 302f 	ldrb.w	r3, [r7, #47]	@ 0x2f
 8001b58:	2b00      	cmp	r3, #0
 8001b5a:	d149      	bne.n	8001bf0 <main+0x314>
			  HAL_GPIO_WritePin(GPIOG, GPIO_PIN_14, 1);
 8001b5c:	2201      	movs	r2, #1
 8001b5e:	f44f 4180 	mov.w	r1, #16384	@ 0x4000
 8001b62:	4822      	ldr	r0, [pc, #136]	@ (8001bec <main+0x310>)
 8001b64:	f001 f8f2 	bl	8002d4c <HAL_GPIO_WritePin>
			  HAL_GPIO_WritePin(GPIOG, GPIO_PIN_9, 0);
 8001b68:	2200      	movs	r2, #0
 8001b6a:	f44f 7100 	mov.w	r1, #512	@ 0x200
 8001b6e:	481f      	ldr	r0, [pc, #124]	@ (8001bec <main+0x310>)
 8001b70:	f001 f8ec 	bl	8002d4c <HAL_GPIO_WritePin>
			  posY -= 1;
 8001b74:	4b1b      	ldr	r3, [pc, #108]	@ (8001be4 <main+0x308>)
 8001b76:	edd3 7a00 	vldr	s15, [r3]
 8001b7a:	eeb7 7a00 	vmov.f32	s14, #112	@ 0x3f800000  1.0
 8001b7e:	ee77 7ac7 	vsub.f32	s15, s15, s14
 8001b82:	4b18      	ldr	r3, [pc, #96]	@ (8001be4 <main+0x308>)
 8001b84:	edc3 7a00 	vstr	s15, [r3]
			  transmitStringUART("Position (%.1f, %.1f)\r\n", posX, posY);
 8001b88:	4b15      	ldr	r3, [pc, #84]	@ (8001be0 <main+0x304>)
 8001b8a:	edd3 7a00 	vldr	s15, [r3]
 8001b8e:	eeb7 6ae7 	vcvt.f64.f32	d6, s15
 8001b92:	4b14      	ldr	r3, [pc, #80]	@ (8001be4 <main+0x308>)
 8001b94:	edd3 7a00 	vldr	s15, [r3]
 8001b98:	eeb7 7ae7 	vcvt.f64.f32	d7, s15
 8001b9c:	ed8d 7b00 	vstr	d7, [sp]
 8001ba0:	ec53 2b16 	vmov	r2, r3, d6
 8001ba4:	4810      	ldr	r0, [pc, #64]	@ (8001be8 <main+0x30c>)
 8001ba6:	f000 f945 	bl	8001e34 <transmitStringUART>
		  else {
			  HAL_GPIO_WritePin(GPIOG, GPIO_PIN_14, 0);
			  HAL_GPIO_WritePin(GPIOG, GPIO_PIN_9, 0);
		  }
//		  transmitStringUART("Position (%d, %d)\r\n", posX, posY);
		  continue;
 8001baa:	e0be      	b.n	8001d2a <main+0x44e>
 8001bac:	20000178 	.word	0x20000178
 8001bb0:	20000098 	.word	0x20000098
 8001bb4:	40020800 	.word	0x40020800
 8001bb8:	200000c4 	.word	0x200000c4
 8001bbc:	2000008e 	.word	0x2000008e
 8001bc0:	20000000 	.word	0x20000000
 8001bc4:	08006f44 	.word	0x08006f44
 8001bc8:	40020c00 	.word	0x40020c00
 8001bcc:	08006f6c 	.word	0x08006f6c
 8001bd0:	2000008d 	.word	0x2000008d
 8001bd4:	2000012c 	.word	0x2000012c
 8001bd8:	40021400 	.word	0x40021400
 8001bdc:	40021000 	.word	0x40021000
 8001be0:	20000090 	.word	0x20000090
 8001be4:	20000094 	.word	0x20000094
 8001be8:	08006f2c 	.word	0x08006f2c
 8001bec:	40021800 	.word	0x40021800
		  else if (!joystickDown) {
 8001bf0:	f897 302e 	ldrb.w	r3, [r7, #46]	@ 0x2e
 8001bf4:	2b00      	cmp	r3, #0
 8001bf6:	d127      	bne.n	8001c48 <main+0x36c>
			  HAL_GPIO_WritePin(GPIOG, GPIO_PIN_14, 0);
 8001bf8:	2200      	movs	r2, #0
 8001bfa:	f44f 4180 	mov.w	r1, #16384	@ 0x4000
 8001bfe:	484b      	ldr	r0, [pc, #300]	@ (8001d2c <main+0x450>)
 8001c00:	f001 f8a4 	bl	8002d4c <HAL_GPIO_WritePin>
			  HAL_GPIO_WritePin(GPIOG, GPIO_PIN_9, 1);
 8001c04:	2201      	movs	r2, #1
 8001c06:	f44f 7100 	mov.w	r1, #512	@ 0x200
 8001c0a:	4848      	ldr	r0, [pc, #288]	@ (8001d2c <main+0x450>)
 8001c0c:	f001 f89e 	bl	8002d4c <HAL_GPIO_WritePin>
			  posY += 1;
 8001c10:	4b47      	ldr	r3, [pc, #284]	@ (8001d30 <main+0x454>)
 8001c12:	edd3 7a00 	vldr	s15, [r3]
 8001c16:	eeb7 7a00 	vmov.f32	s14, #112	@ 0x3f800000  1.0
 8001c1a:	ee77 7a87 	vadd.f32	s15, s15, s14
 8001c1e:	4b44      	ldr	r3, [pc, #272]	@ (8001d30 <main+0x454>)
 8001c20:	edc3 7a00 	vstr	s15, [r3]
			  transmitStringUART("Position (%.1f, %.1f)\r\n", posX, posY);
 8001c24:	4b43      	ldr	r3, [pc, #268]	@ (8001d34 <main+0x458>)
 8001c26:	edd3 7a00 	vldr	s15, [r3]
 8001c2a:	eeb7 6ae7 	vcvt.f64.f32	d6, s15
 8001c2e:	4b40      	ldr	r3, [pc, #256]	@ (8001d30 <main+0x454>)
 8001c30:	edd3 7a00 	vldr	s15, [r3]
 8001c34:	eeb7 7ae7 	vcvt.f64.f32	d7, s15
 8001c38:	ed8d 7b00 	vstr	d7, [sp]
 8001c3c:	ec53 2b16 	vmov	r2, r3, d6
 8001c40:	483d      	ldr	r0, [pc, #244]	@ (8001d38 <main+0x45c>)
 8001c42:	f000 f8f7 	bl	8001e34 <transmitStringUART>
		  continue;
 8001c46:	e070      	b.n	8001d2a <main+0x44e>
			  HAL_GPIO_WritePin(GPIOG, GPIO_PIN_14, 0);
 8001c48:	2200      	movs	r2, #0
 8001c4a:	f44f 4180 	mov.w	r1, #16384	@ 0x4000
 8001c4e:	4837      	ldr	r0, [pc, #220]	@ (8001d2c <main+0x450>)
 8001c50:	f001 f87c 	bl	8002d4c <HAL_GPIO_WritePin>
			  HAL_GPIO_WritePin(GPIOG, GPIO_PIN_9, 0);
 8001c54:	2200      	movs	r2, #0
 8001c56:	f44f 7100 	mov.w	r1, #512	@ 0x200
 8001c5a:	4834      	ldr	r0, [pc, #208]	@ (8001d2c <main+0x450>)
 8001c5c:	f001 f876 	bl	8002d4c <HAL_GPIO_WritePin>
		  continue;
 8001c60:	e063      	b.n	8001d2a <main+0x44e>
	  }
	  else if (STATE == DEPOSIT){
 8001c62:	4b36      	ldr	r3, [pc, #216]	@ (8001d3c <main+0x460>)
 8001c64:	781b      	ldrb	r3, [r3, #0]
 8001c66:	2b04      	cmp	r3, #4
 8001c68:	f47f ae7e 	bne.w	8001968 <main+0x8c>
		  transmitStringUART("Hello from Deposit state: STOP`");
 8001c6c:	4834      	ldr	r0, [pc, #208]	@ (8001d40 <main+0x464>)
 8001c6e:	f000 f8e1 	bl	8001e34 <transmitStringUART>

		  HAL_GPIO_WritePin(GPIOE, GPIO_PIN_13, 0);
 8001c72:	2200      	movs	r2, #0
 8001c74:	f44f 5100 	mov.w	r1, #8192	@ 0x2000
 8001c78:	4832      	ldr	r0, [pc, #200]	@ (8001d44 <main+0x468>)
 8001c7a:	f001 f867 	bl	8002d4c <HAL_GPIO_WritePin>
		  HAL_GPIO_WritePin(GPIOF, GPIO_PIN_15, 0);
 8001c7e:	2200      	movs	r2, #0
 8001c80:	f44f 4100 	mov.w	r1, #32768	@ 0x8000
 8001c84:	4830      	ldr	r0, [pc, #192]	@ (8001d48 <main+0x46c>)
 8001c86:	f001 f861 	bl	8002d4c <HAL_GPIO_WritePin>
		  HAL_GPIO_WritePin(GPIOG, GPIO_PIN_14, 0);
 8001c8a:	2200      	movs	r2, #0
 8001c8c:	f44f 4180 	mov.w	r1, #16384	@ 0x4000
 8001c90:	4826      	ldr	r0, [pc, #152]	@ (8001d2c <main+0x450>)
 8001c92:	f001 f85b 	bl	8002d4c <HAL_GPIO_WritePin>
		  HAL_GPIO_WritePin(GPIOG, GPIO_PIN_9, 0);
 8001c96:	2200      	movs	r2, #0
 8001c98:	f44f 7100 	mov.w	r1, #512	@ 0x200
 8001c9c:	4823      	ldr	r0, [pc, #140]	@ (8001d2c <main+0x450>)
 8001c9e:	f001 f855 	bl	8002d4c <HAL_GPIO_WritePin>


		  HAL_GPIO_WritePin(GPIOE, GPIO_PIN_7, GPIO_PIN_SET);
 8001ca2:	2201      	movs	r2, #1
 8001ca4:	2180      	movs	r1, #128	@ 0x80
 8001ca6:	4827      	ldr	r0, [pc, #156]	@ (8001d44 <main+0x468>)
 8001ca8:	f001 f850 	bl	8002d4c <HAL_GPIO_WritePin>
		  HAL_GPIO_WritePin(GPIOE, GPIO_PIN_8, GPIO_PIN_RESET);
 8001cac:	2200      	movs	r2, #0
 8001cae:	f44f 7180 	mov.w	r1, #256	@ 0x100
 8001cb2:	4824      	ldr	r0, [pc, #144]	@ (8001d44 <main+0x468>)
 8001cb4:	f001 f84a 	bl	8002d4c <HAL_GPIO_WritePin>

		  HAL_Delay(4500);
 8001cb8:	f241 1094 	movw	r0, #4500	@ 0x1194
 8001cbc:	f000 fd4c 	bl	8002758 <HAL_Delay>

		  HAL_GPIO_WritePin(GPIOE, GPIO_PIN_10, GPIO_PIN_SET);
 8001cc0:	2201      	movs	r2, #1
 8001cc2:	f44f 6180 	mov.w	r1, #1024	@ 0x400
 8001cc6:	481f      	ldr	r0, [pc, #124]	@ (8001d44 <main+0x468>)
 8001cc8:	f001 f840 	bl	8002d4c <HAL_GPIO_WritePin>

		  HAL_GPIO_WritePin(GPIOE, GPIO_PIN_7, GPIO_PIN_RESET);
 8001ccc:	2200      	movs	r2, #0
 8001cce:	2180      	movs	r1, #128	@ 0x80
 8001cd0:	481c      	ldr	r0, [pc, #112]	@ (8001d44 <main+0x468>)
 8001cd2:	f001 f83b 	bl	8002d4c <HAL_GPIO_WritePin>
		  HAL_GPIO_WritePin(GPIOE, GPIO_PIN_8, GPIO_PIN_SET);
 8001cd6:	2201      	movs	r2, #1
 8001cd8:	f44f 7180 	mov.w	r1, #256	@ 0x100
 8001cdc:	4819      	ldr	r0, [pc, #100]	@ (8001d44 <main+0x468>)
 8001cde:	f001 f835 	bl	8002d4c <HAL_GPIO_WritePin>

		  HAL_Delay(6500);
 8001ce2:	f641 1064 	movw	r0, #6500	@ 0x1964
 8001ce6:	f000 fd37 	bl	8002758 <HAL_Delay>

		  //Positioning
		  home();
 8001cea:	f7ff fd5d 	bl	80017a8 <home>

		  HAL_GPIO_WritePin(GPIOE, GPIO_PIN_7, GPIO_PIN_RESET);
 8001cee:	2200      	movs	r2, #0
 8001cf0:	2180      	movs	r1, #128	@ 0x80
 8001cf2:	4814      	ldr	r0, [pc, #80]	@ (8001d44 <main+0x468>)
 8001cf4:	f001 f82a 	bl	8002d4c <HAL_GPIO_WritePin>
		  HAL_GPIO_WritePin(GPIOE, GPIO_PIN_8, GPIO_PIN_RESET);
 8001cf8:	2200      	movs	r2, #0
 8001cfa:	f44f 7180 	mov.w	r1, #256	@ 0x100
 8001cfe:	4811      	ldr	r0, [pc, #68]	@ (8001d44 <main+0x468>)
 8001d00:	f001 f824 	bl	8002d4c <HAL_GPIO_WritePin>


		  HAL_GPIO_WritePin(GPIOE, GPIO_PIN_10, GPIO_PIN_RESET);
 8001d04:	2200      	movs	r2, #0
 8001d06:	f44f 6180 	mov.w	r1, #1024	@ 0x400
 8001d0a:	480e      	ldr	r0, [pc, #56]	@ (8001d44 <main+0x468>)
 8001d0c:	f001 f81e 	bl	8002d4c <HAL_GPIO_WritePin>
		  STATE = IDLE;
 8001d10:	4b0a      	ldr	r3, [pc, #40]	@ (8001d3c <main+0x460>)
 8001d12:	2200      	movs	r2, #0
 8001d14:	701a      	strb	r2, [r3, #0]
		  transmitStringUART("State changed to %s\r\n", stateNames[STATE]);
 8001d16:	4b09      	ldr	r3, [pc, #36]	@ (8001d3c <main+0x460>)
 8001d18:	781b      	ldrb	r3, [r3, #0]
 8001d1a:	461a      	mov	r2, r3
 8001d1c:	4b0b      	ldr	r3, [pc, #44]	@ (8001d4c <main+0x470>)
 8001d1e:	f853 3022 	ldr.w	r3, [r3, r2, lsl #2]
 8001d22:	4619      	mov	r1, r3
 8001d24:	480a      	ldr	r0, [pc, #40]	@ (8001d50 <main+0x474>)
 8001d26:	f000 f885 	bl	8001e34 <transmitStringUART>
	  if (HAL_GPIO_ReadPin(GPIOD, GPIO_PIN_13) == 0) {
 8001d2a:	e61d      	b.n	8001968 <main+0x8c>
 8001d2c:	40021800 	.word	0x40021800
 8001d30:	20000094 	.word	0x20000094
 8001d34:	20000090 	.word	0x20000090
 8001d38:	08006f2c 	.word	0x08006f2c
 8001d3c:	2000008e 	.word	0x2000008e
 8001d40:	08006f84 	.word	0x08006f84
 8001d44:	40021000 	.word	0x40021000
 8001d48:	40021400 	.word	0x40021400
 8001d4c:	20000000 	.word	0x20000000
 8001d50:	08006f6c 	.word	0x08006f6c

08001d54 <SystemClock_Config>:
/**
  * @brief System Clock Configuration
  * @retval None
  */
void SystemClock_Config(void)
{
 8001d54:	b580      	push	{r7, lr}
 8001d56:	b094      	sub	sp, #80	@ 0x50
 8001d58:	af00      	add	r7, sp, #0
  RCC_OscInitTypeDef RCC_OscInitStruct = {0};
 8001d5a:	f107 031c 	add.w	r3, r7, #28
 8001d5e:	2234      	movs	r2, #52	@ 0x34
 8001d60:	2100      	movs	r1, #0
 8001d62:	4618      	mov	r0, r3
 8001d64:	f004 fc34 	bl	80065d0 <memset>
  RCC_ClkInitTypeDef RCC_ClkInitStruct = {0};
 8001d68:	f107 0308 	add.w	r3, r7, #8
 8001d6c:	2200      	movs	r2, #0
 8001d6e:	601a      	str	r2, [r3, #0]
 8001d70:	605a      	str	r2, [r3, #4]
 8001d72:	609a      	str	r2, [r3, #8]
 8001d74:	60da      	str	r2, [r3, #12]
 8001d76:	611a      	str	r2, [r3, #16]

  /** Configure LSE Drive Capability
  */
  HAL_PWR_EnableBkUpAccess();
 8001d78:	f001 f81a 	bl	8002db0 <HAL_PWR_EnableBkUpAccess>

  /** Configure the main internal regulator output voltage
  */
  __HAL_RCC_PWR_CLK_ENABLE();
 8001d7c:	4b2b      	ldr	r3, [pc, #172]	@ (8001e2c <SystemClock_Config+0xd8>)
 8001d7e:	6c1b      	ldr	r3, [r3, #64]	@ 0x40
 8001d80:	4a2a      	ldr	r2, [pc, #168]	@ (8001e2c <SystemClock_Config+0xd8>)
 8001d82:	f043 5380 	orr.w	r3, r3, #268435456	@ 0x10000000
 8001d86:	6413      	str	r3, [r2, #64]	@ 0x40
 8001d88:	4b28      	ldr	r3, [pc, #160]	@ (8001e2c <SystemClock_Config+0xd8>)
 8001d8a:	6c1b      	ldr	r3, [r3, #64]	@ 0x40
 8001d8c:	f003 5380 	and.w	r3, r3, #268435456	@ 0x10000000
 8001d90:	607b      	str	r3, [r7, #4]
 8001d92:	687b      	ldr	r3, [r7, #4]
  __HAL_PWR_VOLTAGESCALING_CONFIG(PWR_REGULATOR_VOLTAGE_SCALE1);
 8001d94:	4b26      	ldr	r3, [pc, #152]	@ (8001e30 <SystemClock_Config+0xdc>)
 8001d96:	681b      	ldr	r3, [r3, #0]
 8001d98:	4a25      	ldr	r2, [pc, #148]	@ (8001e30 <SystemClock_Config+0xdc>)
 8001d9a:	f443 4340 	orr.w	r3, r3, #49152	@ 0xc000
 8001d9e:	6013      	str	r3, [r2, #0]
 8001da0:	4b23      	ldr	r3, [pc, #140]	@ (8001e30 <SystemClock_Config+0xdc>)
 8001da2:	681b      	ldr	r3, [r3, #0]
 8001da4:	f403 4340 	and.w	r3, r3, #49152	@ 0xc000
 8001da8:	603b      	str	r3, [r7, #0]
 8001daa:	683b      	ldr	r3, [r7, #0]

  /** Initializes the RCC Oscillators according to the specified parameters
  * in the RCC_OscInitTypeDef structure.
  */
  RCC_OscInitStruct.OscillatorType = RCC_OSCILLATORTYPE_HSI;
 8001dac:	2302      	movs	r3, #2
 8001dae:	61fb      	str	r3, [r7, #28]
  RCC_OscInitStruct.HSIState = RCC_HSI_ON;
 8001db0:	2301      	movs	r3, #1
 8001db2:	62bb      	str	r3, [r7, #40]	@ 0x28
  RCC_OscInitStruct.HSICalibrationValue = RCC_HSICALIBRATION_DEFAULT;
 8001db4:	2310      	movs	r3, #16
 8001db6:	62fb      	str	r3, [r7, #44]	@ 0x2c
  RCC_OscInitStruct.PLL.PLLState = RCC_PLL_ON;
 8001db8:	2302      	movs	r3, #2
 8001dba:	637b      	str	r3, [r7, #52]	@ 0x34
  RCC_OscInitStruct.PLL.PLLSource = RCC_PLLSOURCE_HSI;
 8001dbc:	2300      	movs	r3, #0
 8001dbe:	63bb      	str	r3, [r7, #56]	@ 0x38
  RCC_OscInitStruct.PLL.PLLM = 8;
 8001dc0:	2308      	movs	r3, #8
 8001dc2:	63fb      	str	r3, [r7, #60]	@ 0x3c
  RCC_OscInitStruct.PLL.PLLN = 216;
 8001dc4:	23d8      	movs	r3, #216	@ 0xd8
 8001dc6:	643b      	str	r3, [r7, #64]	@ 0x40
  RCC_OscInitStruct.PLL.PLLP = RCC_PLLP_DIV2;
 8001dc8:	2302      	movs	r3, #2
 8001dca:	647b      	str	r3, [r7, #68]	@ 0x44
  RCC_OscInitStruct.PLL.PLLQ = 9;
 8001dcc:	2309      	movs	r3, #9
 8001dce:	64bb      	str	r3, [r7, #72]	@ 0x48
  RCC_OscInitStruct.PLL.PLLR = 2;
 8001dd0:	2302      	movs	r3, #2
 8001dd2:	64fb      	str	r3, [r7, #76]	@ 0x4c
  if (HAL_RCC_OscConfig(&RCC_OscInitStruct) != HAL_OK)
 8001dd4:	f107 031c 	add.w	r3, r7, #28
 8001dd8:	4618      	mov	r0, r3
 8001dda:	f001 f849 	bl	8002e70 <HAL_RCC_OscConfig>
 8001dde:	4603      	mov	r3, r0
 8001de0:	2b00      	cmp	r3, #0
 8001de2:	d001      	beq.n	8001de8 <SystemClock_Config+0x94>
  {
    Error_Handler();
 8001de4:	f000 f928 	bl	8002038 <Error_Handler>
  }

  /** Activate the Over-Drive mode
  */
  if (HAL_PWREx_EnableOverDrive() != HAL_OK)
 8001de8:	f000 fff2 	bl	8002dd0 <HAL_PWREx_EnableOverDrive>
 8001dec:	4603      	mov	r3, r0
 8001dee:	2b00      	cmp	r3, #0
 8001df0:	d001      	beq.n	8001df6 <SystemClock_Config+0xa2>
  {
    Error_Handler();
 8001df2:	f000 f921 	bl	8002038 <Error_Handler>
  }

  /** Initializes the CPU, AHB and APB buses clocks
  */
  RCC_ClkInitStruct.ClockType = RCC_CLOCKTYPE_HCLK|RCC_CLOCKTYPE_SYSCLK
 8001df6:	230f      	movs	r3, #15
 8001df8:	60bb      	str	r3, [r7, #8]
                              |RCC_CLOCKTYPE_PCLK1|RCC_CLOCKTYPE_PCLK2;
  RCC_ClkInitStruct.SYSCLKSource = RCC_SYSCLKSOURCE_PLLCLK;
 8001dfa:	2302      	movs	r3, #2
 8001dfc:	60fb      	str	r3, [r7, #12]
  RCC_ClkInitStruct.AHBCLKDivider = RCC_SYSCLK_DIV1;
 8001dfe:	2300      	movs	r3, #0
 8001e00:	613b      	str	r3, [r7, #16]
  RCC_ClkInitStruct.APB1CLKDivider = RCC_HCLK_DIV4;
 8001e02:	f44f 53a0 	mov.w	r3, #5120	@ 0x1400
 8001e06:	617b      	str	r3, [r7, #20]
  RCC_ClkInitStruct.APB2CLKDivider = RCC_HCLK_DIV2;
 8001e08:	f44f 5380 	mov.w	r3, #4096	@ 0x1000
 8001e0c:	61bb      	str	r3, [r7, #24]

  if (HAL_RCC_ClockConfig(&RCC_ClkInitStruct, FLASH_LATENCY_7) != HAL_OK)
 8001e0e:	f107 0308 	add.w	r3, r7, #8
 8001e12:	2107      	movs	r1, #7
 8001e14:	4618      	mov	r0, r3
 8001e16:	f001 fad9 	bl	80033cc <HAL_RCC_ClockConfig>
 8001e1a:	4603      	mov	r3, r0
 8001e1c:	2b00      	cmp	r3, #0
 8001e1e:	d001      	beq.n	8001e24 <SystemClock_Config+0xd0>
  {
    Error_Handler();
 8001e20:	f000 f90a 	bl	8002038 <Error_Handler>
  }
}
 8001e24:	bf00      	nop
 8001e26:	3750      	adds	r7, #80	@ 0x50
 8001e28:	46bd      	mov	sp, r7
 8001e2a:	bd80      	pop	{r7, pc}
 8001e2c:	40023800 	.word	0x40023800
 8001e30:	40007000 	.word	0x40007000

08001e34 <transmitStringUART>:

/* USER CODE BEGIN 4 */

void transmitStringUART(const char* format, ...){
 8001e34:	b40f      	push	{r0, r1, r2, r3}
 8001e36:	b580      	push	{r7, lr}
 8001e38:	b0a2      	sub	sp, #136	@ 0x88
 8001e3a:	af00      	add	r7, sp, #0
	char buf[128];

	va_list args;
	va_start(args, format);
 8001e3c:	f107 0394 	add.w	r3, r7, #148	@ 0x94
 8001e40:	607b      	str	r3, [r7, #4]
	vsnprintf(buf, sizeof(buf), format, args);
 8001e42:	f107 0008 	add.w	r0, r7, #8
 8001e46:	687b      	ldr	r3, [r7, #4]
 8001e48:	f8d7 2090 	ldr.w	r2, [r7, #144]	@ 0x90
 8001e4c:	2180      	movs	r1, #128	@ 0x80
 8001e4e:	f004 fbb1 	bl	80065b4 <vsniprintf>
	va_end(args);

	HAL_UART_Transmit(&huart3, (uint8_t*)buf, strlen(buf), 50);
 8001e52:	f107 0308 	add.w	r3, r7, #8
 8001e56:	4618      	mov	r0, r3
 8001e58:	f7fe f9f2 	bl	8000240 <strlen>
 8001e5c:	4603      	mov	r3, r0
 8001e5e:	b29a      	uxth	r2, r3
 8001e60:	f107 0108 	add.w	r1, r7, #8
 8001e64:	2332      	movs	r3, #50	@ 0x32
 8001e66:	4805      	ldr	r0, [pc, #20]	@ (8001e7c <transmitStringUART+0x48>)
 8001e68:	f003 fed8 	bl	8005c1c <HAL_UART_Transmit>
}
 8001e6c:	bf00      	nop
 8001e6e:	3788      	adds	r7, #136	@ 0x88
 8001e70:	46bd      	mov	sp, r7
 8001e72:	e8bd 4080 	ldmia.w	sp!, {r7, lr}
 8001e76:	b004      	add	sp, #16
 8001e78:	4770      	bx	lr
 8001e7a:	bf00      	nop
 8001e7c:	200001c4 	.word	0x200001c4

08001e80 <HAL_GPIO_EXTI_Callback>:

void HAL_GPIO_EXTI_Callback(uint16_t GPIO_Pin)
{
 8001e80:	b580      	push	{r7, lr}
 8001e82:	b082      	sub	sp, #8
 8001e84:	af00      	add	r7, sp, #0
 8001e86:	4603      	mov	r3, r0
 8001e88:	80fb      	strh	r3, [r7, #6]
	transmitStringUART("GPIO: %d\r\n", GPIO_Pin);
 8001e8a:	88fb      	ldrh	r3, [r7, #6]
 8001e8c:	4619      	mov	r1, r3
 8001e8e:	4823      	ldr	r0, [pc, #140]	@ (8001f1c <HAL_GPIO_EXTI_Callback+0x9c>)
 8001e90:	f7ff ffd0 	bl	8001e34 <transmitStringUART>
	if (GPIO_Pin == GPIO_PIN_8)
 8001e94:	88fb      	ldrh	r3, [r7, #6]
 8001e96:	f5b3 7f80 	cmp.w	r3, #256	@ 0x100
 8001e9a:	d118      	bne.n	8001ece <HAL_GPIO_EXTI_Callback+0x4e>
	{
		transmitStringUART("It's fucking interupt blahblah\r\n");
 8001e9c:	4820      	ldr	r0, [pc, #128]	@ (8001f20 <HAL_GPIO_EXTI_Callback+0xa0>)
 8001e9e:	f7ff ffc9 	bl	8001e34 <transmitStringUART>
		if (STATE == IDLE || STATE == WAIT_COIN){
 8001ea2:	4b20      	ldr	r3, [pc, #128]	@ (8001f24 <HAL_GPIO_EXTI_Callback+0xa4>)
 8001ea4:	781b      	ldrb	r3, [r3, #0]
 8001ea6:	2b00      	cmp	r3, #0
 8001ea8:	d003      	beq.n	8001eb2 <HAL_GPIO_EXTI_Callback+0x32>
 8001eaa:	4b1e      	ldr	r3, [pc, #120]	@ (8001f24 <HAL_GPIO_EXTI_Callback+0xa4>)
 8001eac:	781b      	ldrb	r3, [r3, #0]
 8001eae:	2b01      	cmp	r3, #1
 8001eb0:	d12f      	bne.n	8001f12 <HAL_GPIO_EXTI_Callback+0x92>
			currentCoinAmount += COIN_VALUE;
 8001eb2:	4b1d      	ldr	r3, [pc, #116]	@ (8001f28 <HAL_GPIO_EXTI_Callback+0xa8>)
 8001eb4:	781b      	ldrb	r3, [r3, #0]
 8001eb6:	2205      	movs	r2, #5
 8001eb8:	4413      	add	r3, r2
 8001eba:	b2da      	uxtb	r2, r3
 8001ebc:	4b1a      	ldr	r3, [pc, #104]	@ (8001f28 <HAL_GPIO_EXTI_Callback+0xa8>)
 8001ebe:	701a      	strb	r2, [r3, #0]
			transmitStringUART("Coin Detected | Current Coin Amount: %d\r\n", currentCoinAmount);
 8001ec0:	4b19      	ldr	r3, [pc, #100]	@ (8001f28 <HAL_GPIO_EXTI_Callback+0xa8>)
 8001ec2:	781b      	ldrb	r3, [r3, #0]
 8001ec4:	4619      	mov	r1, r3
 8001ec6:	4819      	ldr	r0, [pc, #100]	@ (8001f2c <HAL_GPIO_EXTI_Callback+0xac>)
 8001ec8:	f7ff ffb4 	bl	8001e34 <transmitStringUART>
//		if (STATE == GAME){
//			STATE = DEPOSIT;
//			transmitStringUART("State changed to %s from EXTI_10\r\n", stateNames[STATE]);
//		}
//	}
}
 8001ecc:	e021      	b.n	8001f12 <HAL_GPIO_EXTI_Callback+0x92>
	else if (GPIO_Pin == GPIO_PIN_5)
 8001ece:	88fb      	ldrh	r3, [r7, #6]
 8001ed0:	2b20      	cmp	r3, #32
 8001ed2:	d117      	bne.n	8001f04 <HAL_GPIO_EXTI_Callback+0x84>
		transmitStringUART("It's fucking interupt\r\n");
 8001ed4:	4816      	ldr	r0, [pc, #88]	@ (8001f30 <HAL_GPIO_EXTI_Callback+0xb0>)
 8001ed6:	f7ff ffad 	bl	8001e34 <transmitStringUART>
		if (STATE == WAIT_CONFIRM){
 8001eda:	4b12      	ldr	r3, [pc, #72]	@ (8001f24 <HAL_GPIO_EXTI_Callback+0xa4>)
 8001edc:	781b      	ldrb	r3, [r3, #0]
 8001ede:	2b02      	cmp	r3, #2
 8001ee0:	d117      	bne.n	8001f12 <HAL_GPIO_EXTI_Callback+0x92>
			transmitStringUART("Print from here\r\n");
 8001ee2:	4814      	ldr	r0, [pc, #80]	@ (8001f34 <HAL_GPIO_EXTI_Callback+0xb4>)
 8001ee4:	f7ff ffa6 	bl	8001e34 <transmitStringUART>
			STATE = GAME;
 8001ee8:	4b0e      	ldr	r3, [pc, #56]	@ (8001f24 <HAL_GPIO_EXTI_Callback+0xa4>)
 8001eea:	2203      	movs	r2, #3
 8001eec:	701a      	strb	r2, [r3, #0]
			transmitStringUART("State changed to %s\r\n", stateNames[STATE]);
 8001eee:	4b0d      	ldr	r3, [pc, #52]	@ (8001f24 <HAL_GPIO_EXTI_Callback+0xa4>)
 8001ef0:	781b      	ldrb	r3, [r3, #0]
 8001ef2:	461a      	mov	r2, r3
 8001ef4:	4b10      	ldr	r3, [pc, #64]	@ (8001f38 <HAL_GPIO_EXTI_Callback+0xb8>)
 8001ef6:	f853 3022 	ldr.w	r3, [r3, r2, lsl #2]
 8001efa:	4619      	mov	r1, r3
 8001efc:	480f      	ldr	r0, [pc, #60]	@ (8001f3c <HAL_GPIO_EXTI_Callback+0xbc>)
 8001efe:	f7ff ff99 	bl	8001e34 <transmitStringUART>
}
 8001f02:	e006      	b.n	8001f12 <HAL_GPIO_EXTI_Callback+0x92>
	else if (GPIO_Pin == GPIO_PIN_13) {
 8001f04:	88fb      	ldrh	r3, [r7, #6]
 8001f06:	f5b3 5f00 	cmp.w	r3, #8192	@ 0x2000
 8001f0a:	d102      	bne.n	8001f12 <HAL_GPIO_EXTI_Callback+0x92>
		transmitStringUART("Interupt from EXTI13\r\n");
 8001f0c:	480c      	ldr	r0, [pc, #48]	@ (8001f40 <HAL_GPIO_EXTI_Callback+0xc0>)
 8001f0e:	f7ff ff91 	bl	8001e34 <transmitStringUART>
}
 8001f12:	bf00      	nop
 8001f14:	3708      	adds	r7, #8
 8001f16:	46bd      	mov	sp, r7
 8001f18:	bd80      	pop	{r7, pc}
 8001f1a:	bf00      	nop
 8001f1c:	08006fa4 	.word	0x08006fa4
 8001f20:	08006fb0 	.word	0x08006fb0
 8001f24:	2000008e 	.word	0x2000008e
 8001f28:	2000008d 	.word	0x2000008d
 8001f2c:	08006fd4 	.word	0x08006fd4
 8001f30:	08007000 	.word	0x08007000
 8001f34:	08007018 	.word	0x08007018
 8001f38:	20000000 	.word	0x20000000
 8001f3c:	08006f6c 	.word	0x08006f6c
 8001f40:	0800702c 	.word	0x0800702c

08001f44 <HAL_TIM_PeriodElapsedCallback>:



void HAL_TIM_PeriodElapsedCallback(TIM_HandleTypeDef *htim){
 8001f44:	b580      	push	{r7, lr}
 8001f46:	b082      	sub	sp, #8
 8001f48:	af00      	add	r7, sp, #0
 8001f4a:	6078      	str	r0, [r7, #4]
	static int timeCount = 0;
	if (htim -> Instance == TIM2){
 8001f4c:	687b      	ldr	r3, [r7, #4]
 8001f4e:	681b      	ldr	r3, [r3, #0]
 8001f50:	f1b3 4f80 	cmp.w	r3, #1073741824	@ 0x40000000
 8001f54:	d15b      	bne.n	800200e <HAL_TIM_PeriodElapsedCallback+0xca>
		if (STATE == WAIT_COIN) {
 8001f56:	4b30      	ldr	r3, [pc, #192]	@ (8002018 <HAL_TIM_PeriodElapsedCallback+0xd4>)
 8001f58:	781b      	ldrb	r3, [r3, #0]
 8001f5a:	2b01      	cmp	r3, #1
 8001f5c:	d12c      	bne.n	8001fb8 <HAL_TIM_PeriodElapsedCallback+0x74>
			timeCount++;
 8001f5e:	4b2f      	ldr	r3, [pc, #188]	@ (800201c <HAL_TIM_PeriodElapsedCallback+0xd8>)
 8001f60:	681b      	ldr	r3, [r3, #0]
 8001f62:	3301      	adds	r3, #1
 8001f64:	4a2d      	ldr	r2, [pc, #180]	@ (800201c <HAL_TIM_PeriodElapsedCallback+0xd8>)
 8001f66:	6013      	str	r3, [r2, #0]
			timeCount%=11;
 8001f68:	4b2c      	ldr	r3, [pc, #176]	@ (800201c <HAL_TIM_PeriodElapsedCallback+0xd8>)
 8001f6a:	6819      	ldr	r1, [r3, #0]
 8001f6c:	4b2c      	ldr	r3, [pc, #176]	@ (8002020 <HAL_TIM_PeriodElapsedCallback+0xdc>)
 8001f6e:	fb83 2301 	smull	r2, r3, r3, r1
 8001f72:	105a      	asrs	r2, r3, #1
 8001f74:	17cb      	asrs	r3, r1, #31
 8001f76:	1ad2      	subs	r2, r2, r3
 8001f78:	4613      	mov	r3, r2
 8001f7a:	009b      	lsls	r3, r3, #2
 8001f7c:	4413      	add	r3, r2
 8001f7e:	005b      	lsls	r3, r3, #1
 8001f80:	4413      	add	r3, r2
 8001f82:	1aca      	subs	r2, r1, r3
 8001f84:	4b25      	ldr	r3, [pc, #148]	@ (800201c <HAL_TIM_PeriodElapsedCallback+0xd8>)
 8001f86:	601a      	str	r2, [r3, #0]
			if (timeCount >= WAIT_COIN_TIME_LIMIT) {
 8001f88:	230a      	movs	r3, #10
 8001f8a:	461a      	mov	r2, r3
 8001f8c:	4b23      	ldr	r3, [pc, #140]	@ (800201c <HAL_TIM_PeriodElapsedCallback+0xd8>)
 8001f8e:	681b      	ldr	r3, [r3, #0]
 8001f90:	429a      	cmp	r2, r3
 8001f92:	dc11      	bgt.n	8001fb8 <HAL_TIM_PeriodElapsedCallback+0x74>
				currentCoinAmount = 0;
 8001f94:	4b23      	ldr	r3, [pc, #140]	@ (8002024 <HAL_TIM_PeriodElapsedCallback+0xe0>)
 8001f96:	2200      	movs	r2, #0
 8001f98:	701a      	strb	r2, [r3, #0]
				STATE = IDLE;
 8001f9a:	4b1f      	ldr	r3, [pc, #124]	@ (8002018 <HAL_TIM_PeriodElapsedCallback+0xd4>)
 8001f9c:	2200      	movs	r2, #0
 8001f9e:	701a      	strb	r2, [r3, #0]
				transmitStringUART("WAIT_COIN exceeded %d seconds | State changed to %s\r\n", WAIT_COIN_TIME_LIMIT, stateNames[STATE]);
 8001fa0:	230a      	movs	r3, #10
 8001fa2:	4619      	mov	r1, r3
 8001fa4:	4b1c      	ldr	r3, [pc, #112]	@ (8002018 <HAL_TIM_PeriodElapsedCallback+0xd4>)
 8001fa6:	781b      	ldrb	r3, [r3, #0]
 8001fa8:	461a      	mov	r2, r3
 8001faa:	4b1f      	ldr	r3, [pc, #124]	@ (8002028 <HAL_TIM_PeriodElapsedCallback+0xe4>)
 8001fac:	f853 3022 	ldr.w	r3, [r3, r2, lsl #2]
 8001fb0:	461a      	mov	r2, r3
 8001fb2:	481e      	ldr	r0, [pc, #120]	@ (800202c <HAL_TIM_PeriodElapsedCallback+0xe8>)
 8001fb4:	f7ff ff3e 	bl	8001e34 <transmitStringUART>
			}
		}


		if (STATE == GAME) {
 8001fb8:	4b17      	ldr	r3, [pc, #92]	@ (8002018 <HAL_TIM_PeriodElapsedCallback+0xd4>)
 8001fba:	781b      	ldrb	r3, [r3, #0]
 8001fbc:	2b03      	cmp	r3, #3
 8001fbe:	d126      	bne.n	800200e <HAL_TIM_PeriodElapsedCallback+0xca>
			timeCount++;
 8001fc0:	4b16      	ldr	r3, [pc, #88]	@ (800201c <HAL_TIM_PeriodElapsedCallback+0xd8>)
 8001fc2:	681b      	ldr	r3, [r3, #0]
 8001fc4:	3301      	adds	r3, #1
 8001fc6:	4a15      	ldr	r2, [pc, #84]	@ (800201c <HAL_TIM_PeriodElapsedCallback+0xd8>)
 8001fc8:	6013      	str	r3, [r2, #0]
			timeCount%=31;
 8001fca:	4b14      	ldr	r3, [pc, #80]	@ (800201c <HAL_TIM_PeriodElapsedCallback+0xd8>)
 8001fcc:	681a      	ldr	r2, [r3, #0]
 8001fce:	4b18      	ldr	r3, [pc, #96]	@ (8002030 <HAL_TIM_PeriodElapsedCallback+0xec>)
 8001fd0:	fb83 1302 	smull	r1, r3, r3, r2
 8001fd4:	4413      	add	r3, r2
 8001fd6:	1119      	asrs	r1, r3, #4
 8001fd8:	17d3      	asrs	r3, r2, #31
 8001fda:	1ac9      	subs	r1, r1, r3
 8001fdc:	460b      	mov	r3, r1
 8001fde:	015b      	lsls	r3, r3, #5
 8001fe0:	1a5b      	subs	r3, r3, r1
 8001fe2:	1ad1      	subs	r1, r2, r3
 8001fe4:	4b0d      	ldr	r3, [pc, #52]	@ (800201c <HAL_TIM_PeriodElapsedCallback+0xd8>)
 8001fe6:	6019      	str	r1, [r3, #0]
			if(timeCount >= WAIT_GAME_TIME_STATE){
 8001fe8:	231e      	movs	r3, #30
 8001fea:	461a      	mov	r2, r3
 8001fec:	4b0b      	ldr	r3, [pc, #44]	@ (800201c <HAL_TIM_PeriodElapsedCallback+0xd8>)
 8001fee:	681b      	ldr	r3, [r3, #0]
 8001ff0:	429a      	cmp	r2, r3
 8001ff2:	dc0c      	bgt.n	800200e <HAL_TIM_PeriodElapsedCallback+0xca>
				STATE = DEPOSIT;
 8001ff4:	4b08      	ldr	r3, [pc, #32]	@ (8002018 <HAL_TIM_PeriodElapsedCallback+0xd4>)
 8001ff6:	2204      	movs	r2, #4
 8001ff8:	701a      	strb	r2, [r3, #0]
				transmitStringUART("State changed to %s\r\n", stateNames[STATE]);
 8001ffa:	4b07      	ldr	r3, [pc, #28]	@ (8002018 <HAL_TIM_PeriodElapsedCallback+0xd4>)
 8001ffc:	781b      	ldrb	r3, [r3, #0]
 8001ffe:	461a      	mov	r2, r3
 8002000:	4b09      	ldr	r3, [pc, #36]	@ (8002028 <HAL_TIM_PeriodElapsedCallback+0xe4>)
 8002002:	f853 3022 	ldr.w	r3, [r3, r2, lsl #2]
 8002006:	4619      	mov	r1, r3
 8002008:	480a      	ldr	r0, [pc, #40]	@ (8002034 <HAL_TIM_PeriodElapsedCallback+0xf0>)
 800200a:	f7ff ff13 	bl	8001e34 <transmitStringUART>
			}

		}

	}
}
 800200e:	bf00      	nop
 8002010:	3708      	adds	r7, #8
 8002012:	46bd      	mov	sp, r7
 8002014:	bd80      	pop	{r7, pc}
 8002016:	bf00      	nop
 8002018:	2000008e 	.word	0x2000008e
 800201c:	200000c0 	.word	0x200000c0
 8002020:	2e8ba2e9 	.word	0x2e8ba2e9
 8002024:	2000008d 	.word	0x2000008d
 8002028:	20000000 	.word	0x20000000
 800202c:	08007044 	.word	0x08007044
 8002030:	84210843 	.word	0x84210843
 8002034:	08006f6c 	.word	0x08006f6c

08002038 <Error_Handler>:
/**
  * @brief  This function is executed in case of error occurrence.
  * @retval None
  */
void Error_Handler(void)
{
 8002038:	b480      	push	{r7}
 800203a:	af00      	add	r7, sp, #0
  \details Disables IRQ interrupts by setting the I-bit in the CPSR.
           Can only be executed in Privileged modes.
 */
__STATIC_FORCEINLINE void __disable_irq(void)
{
  __ASM volatile ("cpsid i" : : : "memory");
 800203c:	b672      	cpsid	i
}
 800203e:	bf00      	nop
  /* USER CODE BEGIN Error_Handler_Debug */
  /* User can add his own implementation to report the HAL error return state */
  __disable_irq();
  while (1)
 8002040:	bf00      	nop
 8002042:	e7fd      	b.n	8002040 <Error_Handler+0x8>

08002044 <MX_SPI5_Init>:

SPI_HandleTypeDef hspi5;

/* SPI5 init function */
void MX_SPI5_Init(void)
{
 8002044:	b580      	push	{r7, lr}
 8002046:	af00      	add	r7, sp, #0
  /* USER CODE END SPI5_Init 0 */

  /* USER CODE BEGIN SPI5_Init 1 */

  /* USER CODE END SPI5_Init 1 */
  hspi5.Instance = SPI5;
 8002048:	4b1b      	ldr	r3, [pc, #108]	@ (80020b8 <MX_SPI5_Init+0x74>)
 800204a:	4a1c      	ldr	r2, [pc, #112]	@ (80020bc <MX_SPI5_Init+0x78>)
 800204c:	601a      	str	r2, [r3, #0]
  hspi5.Init.Mode = SPI_MODE_MASTER;
 800204e:	4b1a      	ldr	r3, [pc, #104]	@ (80020b8 <MX_SPI5_Init+0x74>)
 8002050:	f44f 7282 	mov.w	r2, #260	@ 0x104
 8002054:	605a      	str	r2, [r3, #4]
  hspi5.Init.Direction = SPI_DIRECTION_2LINES;
 8002056:	4b18      	ldr	r3, [pc, #96]	@ (80020b8 <MX_SPI5_Init+0x74>)
 8002058:	2200      	movs	r2, #0
 800205a:	609a      	str	r2, [r3, #8]
  hspi5.Init.DataSize = SPI_DATASIZE_8BIT;
 800205c:	4b16      	ldr	r3, [pc, #88]	@ (80020b8 <MX_SPI5_Init+0x74>)
 800205e:	f44f 62e0 	mov.w	r2, #1792	@ 0x700
 8002062:	60da      	str	r2, [r3, #12]
  hspi5.Init.CLKPolarity = SPI_POLARITY_LOW;
 8002064:	4b14      	ldr	r3, [pc, #80]	@ (80020b8 <MX_SPI5_Init+0x74>)
 8002066:	2200      	movs	r2, #0
 8002068:	611a      	str	r2, [r3, #16]
  hspi5.Init.CLKPhase = SPI_PHASE_1EDGE;
 800206a:	4b13      	ldr	r3, [pc, #76]	@ (80020b8 <MX_SPI5_Init+0x74>)
 800206c:	2200      	movs	r2, #0
 800206e:	615a      	str	r2, [r3, #20]
  hspi5.Init.NSS = SPI_NSS_SOFT;
 8002070:	4b11      	ldr	r3, [pc, #68]	@ (80020b8 <MX_SPI5_Init+0x74>)
 8002072:	f44f 7200 	mov.w	r2, #512	@ 0x200
 8002076:	619a      	str	r2, [r3, #24]
  hspi5.Init.BaudRatePrescaler = SPI_BAUDRATEPRESCALER_2;
 8002078:	4b0f      	ldr	r3, [pc, #60]	@ (80020b8 <MX_SPI5_Init+0x74>)
 800207a:	2200      	movs	r2, #0
 800207c:	61da      	str	r2, [r3, #28]
  hspi5.Init.FirstBit = SPI_FIRSTBIT_MSB;
 800207e:	4b0e      	ldr	r3, [pc, #56]	@ (80020b8 <MX_SPI5_Init+0x74>)
 8002080:	2200      	movs	r2, #0
 8002082:	621a      	str	r2, [r3, #32]
  hspi5.Init.TIMode = SPI_TIMODE_DISABLE;
 8002084:	4b0c      	ldr	r3, [pc, #48]	@ (80020b8 <MX_SPI5_Init+0x74>)
 8002086:	2200      	movs	r2, #0
 8002088:	625a      	str	r2, [r3, #36]	@ 0x24
  hspi5.Init.CRCCalculation = SPI_CRCCALCULATION_DISABLE;
 800208a:	4b0b      	ldr	r3, [pc, #44]	@ (80020b8 <MX_SPI5_Init+0x74>)
 800208c:	2200      	movs	r2, #0
 800208e:	629a      	str	r2, [r3, #40]	@ 0x28
  hspi5.Init.CRCPolynomial = 7;
 8002090:	4b09      	ldr	r3, [pc, #36]	@ (80020b8 <MX_SPI5_Init+0x74>)
 8002092:	2207      	movs	r2, #7
 8002094:	62da      	str	r2, [r3, #44]	@ 0x2c
  hspi5.Init.CRCLength = SPI_CRC_LENGTH_DATASIZE;
 8002096:	4b08      	ldr	r3, [pc, #32]	@ (80020b8 <MX_SPI5_Init+0x74>)
 8002098:	2200      	movs	r2, #0
 800209a:	631a      	str	r2, [r3, #48]	@ 0x30
  hspi5.Init.NSSPMode = SPI_NSS_PULSE_ENABLE;
 800209c:	4b06      	ldr	r3, [pc, #24]	@ (80020b8 <MX_SPI5_Init+0x74>)
 800209e:	2208      	movs	r2, #8
 80020a0:	635a      	str	r2, [r3, #52]	@ 0x34
  if (HAL_SPI_Init(&hspi5) != HAL_OK)
 80020a2:	4805      	ldr	r0, [pc, #20]	@ (80020b8 <MX_SPI5_Init+0x74>)
 80020a4:	f001 ffe0 	bl	8004068 <HAL_SPI_Init>
 80020a8:	4603      	mov	r3, r0
 80020aa:	2b00      	cmp	r3, #0
 80020ac:	d001      	beq.n	80020b2 <MX_SPI5_Init+0x6e>
  {
    Error_Handler();
 80020ae:	f7ff ffc3 	bl	8002038 <Error_Handler>
  }
  /* USER CODE BEGIN SPI5_Init 2 */

  /* USER CODE END SPI5_Init 2 */

}
 80020b2:	bf00      	nop
 80020b4:	bd80      	pop	{r7, pc}
 80020b6:	bf00      	nop
 80020b8:	200000c4 	.word	0x200000c4
 80020bc:	40015000 	.word	0x40015000

080020c0 <HAL_SPI_MspInit>:

void HAL_SPI_MspInit(SPI_HandleTypeDef* spiHandle)
{
 80020c0:	b580      	push	{r7, lr}
 80020c2:	b08a      	sub	sp, #40	@ 0x28
 80020c4:	af00      	add	r7, sp, #0
 80020c6:	6078      	str	r0, [r7, #4]

  GPIO_InitTypeDef GPIO_InitStruct = {0};
 80020c8:	f107 0314 	add.w	r3, r7, #20
 80020cc:	2200      	movs	r2, #0
 80020ce:	601a      	str	r2, [r3, #0]
 80020d0:	605a      	str	r2, [r3, #4]
 80020d2:	609a      	str	r2, [r3, #8]
 80020d4:	60da      	str	r2, [r3, #12]
 80020d6:	611a      	str	r2, [r3, #16]
  if(spiHandle->Instance==SPI5)
 80020d8:	687b      	ldr	r3, [r7, #4]
 80020da:	681b      	ldr	r3, [r3, #0]
 80020dc:	4a17      	ldr	r2, [pc, #92]	@ (800213c <HAL_SPI_MspInit+0x7c>)
 80020de:	4293      	cmp	r3, r2
 80020e0:	d128      	bne.n	8002134 <HAL_SPI_MspInit+0x74>
  {
  /* USER CODE BEGIN SPI5_MspInit 0 */

  /* USER CODE END SPI5_MspInit 0 */
    /* SPI5 clock enable */
    __HAL_RCC_SPI5_CLK_ENABLE();
 80020e2:	4b17      	ldr	r3, [pc, #92]	@ (8002140 <HAL_SPI_MspInit+0x80>)
 80020e4:	6c5b      	ldr	r3, [r3, #68]	@ 0x44
 80020e6:	4a16      	ldr	r2, [pc, #88]	@ (8002140 <HAL_SPI_MspInit+0x80>)
 80020e8:	f443 1380 	orr.w	r3, r3, #1048576	@ 0x100000
 80020ec:	6453      	str	r3, [r2, #68]	@ 0x44
 80020ee:	4b14      	ldr	r3, [pc, #80]	@ (8002140 <HAL_SPI_MspInit+0x80>)
 80020f0:	6c5b      	ldr	r3, [r3, #68]	@ 0x44
 80020f2:	f403 1380 	and.w	r3, r3, #1048576	@ 0x100000
 80020f6:	613b      	str	r3, [r7, #16]
 80020f8:	693b      	ldr	r3, [r7, #16]

    __HAL_RCC_GPIOF_CLK_ENABLE();
 80020fa:	4b11      	ldr	r3, [pc, #68]	@ (8002140 <HAL_SPI_MspInit+0x80>)
 80020fc:	6b1b      	ldr	r3, [r3, #48]	@ 0x30
 80020fe:	4a10      	ldr	r2, [pc, #64]	@ (8002140 <HAL_SPI_MspInit+0x80>)
 8002100:	f043 0320 	orr.w	r3, r3, #32
 8002104:	6313      	str	r3, [r2, #48]	@ 0x30
 8002106:	4b0e      	ldr	r3, [pc, #56]	@ (8002140 <HAL_SPI_MspInit+0x80>)
 8002108:	6b1b      	ldr	r3, [r3, #48]	@ 0x30
 800210a:	f003 0320 	and.w	r3, r3, #32
 800210e:	60fb      	str	r3, [r7, #12]
 8002110:	68fb      	ldr	r3, [r7, #12]
    /**SPI5 GPIO Configuration
    PF7     ------> SPI5_SCK
    PF8     ------> SPI5_MISO
    PF9     ------> SPI5_MOSI
    */
    GPIO_InitStruct.Pin = SCK_Pin|SDO_Pin|SDI_Pin;
 8002112:	f44f 7360 	mov.w	r3, #896	@ 0x380
 8002116:	617b      	str	r3, [r7, #20]
    GPIO_InitStruct.Mode = GPIO_MODE_AF_PP;
 8002118:	2302      	movs	r3, #2
 800211a:	61bb      	str	r3, [r7, #24]
    GPIO_InitStruct.Pull = GPIO_NOPULL;
 800211c:	2300      	movs	r3, #0
 800211e:	61fb      	str	r3, [r7, #28]
    GPIO_InitStruct.Speed = GPIO_SPEED_FREQ_VERY_HIGH;
 8002120:	2303      	movs	r3, #3
 8002122:	623b      	str	r3, [r7, #32]
    GPIO_InitStruct.Alternate = GPIO_AF5_SPI5;
 8002124:	2305      	movs	r3, #5
 8002126:	627b      	str	r3, [r7, #36]	@ 0x24
    HAL_GPIO_Init(GPIOF, &GPIO_InitStruct);
 8002128:	f107 0314 	add.w	r3, r7, #20
 800212c:	4619      	mov	r1, r3
 800212e:	4805      	ldr	r0, [pc, #20]	@ (8002144 <HAL_SPI_MspInit+0x84>)
 8002130:	f000 fc48 	bl	80029c4 <HAL_GPIO_Init>

  /* USER CODE BEGIN SPI5_MspInit 1 */

  /* USER CODE END SPI5_MspInit 1 */
  }
}
 8002134:	bf00      	nop
 8002136:	3728      	adds	r7, #40	@ 0x28
 8002138:	46bd      	mov	sp, r7
 800213a:	bd80      	pop	{r7, pc}
 800213c:	40015000 	.word	0x40015000
 8002140:	40023800 	.word	0x40023800
 8002144:	40021400 	.word	0x40021400

08002148 <HAL_MspInit>:
/* USER CODE END 0 */
/**
  * Initializes the Global MSP.
  */
void HAL_MspInit(void)
{
 8002148:	b580      	push	{r7, lr}
 800214a:	b082      	sub	sp, #8
 800214c:	af00      	add	r7, sp, #0

  /* USER CODE BEGIN MspInit 0 */

  /* USER CODE END MspInit 0 */

  __HAL_RCC_PWR_CLK_ENABLE();
 800214e:	4b0f      	ldr	r3, [pc, #60]	@ (800218c <HAL_MspInit+0x44>)
 8002150:	6c1b      	ldr	r3, [r3, #64]	@ 0x40
 8002152:	4a0e      	ldr	r2, [pc, #56]	@ (800218c <HAL_MspInit+0x44>)
 8002154:	f043 5380 	orr.w	r3, r3, #268435456	@ 0x10000000
 8002158:	6413      	str	r3, [r2, #64]	@ 0x40
 800215a:	4b0c      	ldr	r3, [pc, #48]	@ (800218c <HAL_MspInit+0x44>)
 800215c:	6c1b      	ldr	r3, [r3, #64]	@ 0x40
 800215e:	f003 5380 	and.w	r3, r3, #268435456	@ 0x10000000
 8002162:	607b      	str	r3, [r7, #4]
 8002164:	687b      	ldr	r3, [r7, #4]
  __HAL_RCC_SYSCFG_CLK_ENABLE();
 8002166:	4b09      	ldr	r3, [pc, #36]	@ (800218c <HAL_MspInit+0x44>)
 8002168:	6c5b      	ldr	r3, [r3, #68]	@ 0x44
 800216a:	4a08      	ldr	r2, [pc, #32]	@ (800218c <HAL_MspInit+0x44>)
 800216c:	f443 4380 	orr.w	r3, r3, #16384	@ 0x4000
 8002170:	6453      	str	r3, [r2, #68]	@ 0x44
 8002172:	4b06      	ldr	r3, [pc, #24]	@ (800218c <HAL_MspInit+0x44>)
 8002174:	6c5b      	ldr	r3, [r3, #68]	@ 0x44
 8002176:	f403 4380 	and.w	r3, r3, #16384	@ 0x4000
 800217a:	603b      	str	r3, [r7, #0]
 800217c:	683b      	ldr	r3, [r7, #0]

  HAL_NVIC_SetPriorityGrouping(NVIC_PRIORITYGROUP_2);
 800217e:	2005      	movs	r0, #5
 8002180:	f000 fbde 	bl	8002940 <HAL_NVIC_SetPriorityGrouping>
  /* System interrupt init*/

  /* USER CODE BEGIN MspInit 1 */

  /* USER CODE END MspInit 1 */
}
 8002184:	bf00      	nop
 8002186:	3708      	adds	r7, #8
 8002188:	46bd      	mov	sp, r7
 800218a:	bd80      	pop	{r7, pc}
 800218c:	40023800 	.word	0x40023800

08002190 <NMI_Handler>:
/******************************************************************************/
/**
  * @brief This function handles Non maskable interrupt.
  */
void NMI_Handler(void)
{
 8002190:	b480      	push	{r7}
 8002192:	af00      	add	r7, sp, #0
  /* USER CODE BEGIN NonMaskableInt_IRQn 0 */

  /* USER CODE END NonMaskableInt_IRQn 0 */
  /* USER CODE BEGIN NonMaskableInt_IRQn 1 */
   while (1)
 8002194:	bf00      	nop
 8002196:	e7fd      	b.n	8002194 <NMI_Handler+0x4>

08002198 <HardFault_Handler>:

/**
  * @brief This function handles Hard fault interrupt.
  */
void HardFault_Handler(void)
{
 8002198:	b480      	push	{r7}
 800219a:	af00      	add	r7, sp, #0
  /* USER CODE BEGIN HardFault_IRQn 0 */

  /* USER CODE END HardFault_IRQn 0 */
  while (1)
 800219c:	bf00      	nop
 800219e:	e7fd      	b.n	800219c <HardFault_Handler+0x4>

080021a0 <MemManage_Handler>:

/**
  * @brief This function handles Memory management fault.
  */
void MemManage_Handler(void)
{
 80021a0:	b480      	push	{r7}
 80021a2:	af00      	add	r7, sp, #0
  /* USER CODE BEGIN MemoryManagement_IRQn 0 */

  /* USER CODE END MemoryManagement_IRQn 0 */
  while (1)
 80021a4:	bf00      	nop
 80021a6:	e7fd      	b.n	80021a4 <MemManage_Handler+0x4>

080021a8 <BusFault_Handler>:

/**
  * @brief This function handles Pre-fetch fault, memory access fault.
  */
void BusFault_Handler(void)
{
 80021a8:	b480      	push	{r7}
 80021aa:	af00      	add	r7, sp, #0
  /* USER CODE BEGIN BusFault_IRQn 0 */

  /* USER CODE END BusFault_IRQn 0 */
  while (1)
 80021ac:	bf00      	nop
 80021ae:	e7fd      	b.n	80021ac <BusFault_Handler+0x4>

080021b0 <UsageFault_Handler>:

/**
  * @brief This function handles Undefined instruction or illegal state.
  */
void UsageFault_Handler(void)
{
 80021b0:	b480      	push	{r7}
 80021b2:	af00      	add	r7, sp, #0
  /* USER CODE BEGIN UsageFault_IRQn 0 */

  /* USER CODE END UsageFault_IRQn 0 */
  while (1)
 80021b4:	bf00      	nop
 80021b6:	e7fd      	b.n	80021b4 <UsageFault_Handler+0x4>

080021b8 <SVC_Handler>:

/**
  * @brief This function handles System service call via SWI instruction.
  */
void SVC_Handler(void)
{
 80021b8:	b480      	push	{r7}
 80021ba:	af00      	add	r7, sp, #0

  /* USER CODE END SVCall_IRQn 0 */
  /* USER CODE BEGIN SVCall_IRQn 1 */

  /* USER CODE END SVCall_IRQn 1 */
}
 80021bc:	bf00      	nop
 80021be:	46bd      	mov	sp, r7
 80021c0:	f85d 7b04 	ldr.w	r7, [sp], #4
 80021c4:	4770      	bx	lr

080021c6 <DebugMon_Handler>:

/**
  * @brief This function handles Debug monitor.
  */
void DebugMon_Handler(void)
{
 80021c6:	b480      	push	{r7}
 80021c8:	af00      	add	r7, sp, #0

  /* USER CODE END DebugMonitor_IRQn 0 */
  /* USER CODE BEGIN DebugMonitor_IRQn 1 */

  /* USER CODE END DebugMonitor_IRQn 1 */
}
 80021ca:	bf00      	nop
 80021cc:	46bd      	mov	sp, r7
 80021ce:	f85d 7b04 	ldr.w	r7, [sp], #4
 80021d2:	4770      	bx	lr

080021d4 <PendSV_Handler>:

/**
  * @brief This function handles Pendable request for system service.
  */
void PendSV_Handler(void)
{
 80021d4:	b480      	push	{r7}
 80021d6:	af00      	add	r7, sp, #0

  /* USER CODE END PendSV_IRQn 0 */
  /* USER CODE BEGIN PendSV_IRQn 1 */

  /* USER CODE END PendSV_IRQn 1 */
}
 80021d8:	bf00      	nop
 80021da:	46bd      	mov	sp, r7
 80021dc:	f85d 7b04 	ldr.w	r7, [sp], #4
 80021e0:	4770      	bx	lr

080021e2 <SysTick_Handler>:

/**
  * @brief This function handles System tick timer.
  */
void SysTick_Handler(void)
{
 80021e2:	b580      	push	{r7, lr}
 80021e4:	af00      	add	r7, sp, #0
  /* USER CODE BEGIN SysTick_IRQn 0 */

  /* USER CODE END SysTick_IRQn 0 */
  HAL_IncTick();
 80021e6:	f000 fa97 	bl	8002718 <HAL_IncTick>
  /* USER CODE BEGIN SysTick_IRQn 1 */

  /* USER CODE END SysTick_IRQn 1 */
}
 80021ea:	bf00      	nop
 80021ec:	bd80      	pop	{r7, pc}

080021ee <EXTI9_5_IRQHandler>:

/**
  * @brief This function handles EXTI line[9:5] interrupts.
  */
void EXTI9_5_IRQHandler(void)
{
 80021ee:	b580      	push	{r7, lr}
 80021f0:	af00      	add	r7, sp, #0
  /* USER CODE BEGIN EXTI9_5_IRQn 0 */

  /* USER CODE END EXTI9_5_IRQn 0 */
  HAL_GPIO_EXTI_IRQHandler(GPIO_PIN_8);
 80021f2:	f44f 7080 	mov.w	r0, #256	@ 0x100
 80021f6:	f000 fdc3 	bl	8002d80 <HAL_GPIO_EXTI_IRQHandler>
  /* USER CODE BEGIN EXTI9_5_IRQn 1 */

  /* USER CODE END EXTI9_5_IRQn 1 */
}
 80021fa:	bf00      	nop
 80021fc:	bd80      	pop	{r7, pc}
	...

08002200 <TIM2_IRQHandler>:

/**
  * @brief This function handles TIM2 global interrupt.
  */
void TIM2_IRQHandler(void)
{
 8002200:	b580      	push	{r7, lr}
 8002202:	af00      	add	r7, sp, #0
  /* USER CODE BEGIN TIM2_IRQn 0 */

  /* USER CODE END TIM2_IRQn 0 */
  HAL_TIM_IRQHandler(&htim2);
 8002204:	4802      	ldr	r0, [pc, #8]	@ (8002210 <TIM2_IRQHandler+0x10>)
 8002206:	f002 fd2b 	bl	8004c60 <HAL_TIM_IRQHandler>
  /* USER CODE BEGIN TIM2_IRQn 1 */

  /* USER CODE END TIM2_IRQn 1 */
}
 800220a:	bf00      	nop
 800220c:	bd80      	pop	{r7, pc}
 800220e:	bf00      	nop
 8002210:	2000012c 	.word	0x2000012c

08002214 <_sbrk>:
 8002214:	b580      	push	{r7, lr}
 8002216:	b086      	sub	sp, #24
 8002218:	af00      	add	r7, sp, #0
 800221a:	6078      	str	r0, [r7, #4]
 800221c:	4a14      	ldr	r2, [pc, #80]	@ (8002270 <_sbrk+0x5c>)
 800221e:	4b15      	ldr	r3, [pc, #84]	@ (8002274 <_sbrk+0x60>)
 8002220:	1ad3      	subs	r3, r2, r3
 8002222:	617b      	str	r3, [r7, #20]
 8002224:	697b      	ldr	r3, [r7, #20]
 8002226:	613b      	str	r3, [r7, #16]
 8002228:	4b13      	ldr	r3, [pc, #76]	@ (8002278 <_sbrk+0x64>)
 800222a:	681b      	ldr	r3, [r3, #0]
 800222c:	2b00      	cmp	r3, #0
 800222e:	d102      	bne.n	8002236 <_sbrk+0x22>
 8002230:	4b11      	ldr	r3, [pc, #68]	@ (8002278 <_sbrk+0x64>)
 8002232:	4a12      	ldr	r2, [pc, #72]	@ (800227c <_sbrk+0x68>)
 8002234:	601a      	str	r2, [r3, #0]
 8002236:	4b10      	ldr	r3, [pc, #64]	@ (8002278 <_sbrk+0x64>)
 8002238:	681a      	ldr	r2, [r3, #0]
 800223a:	687b      	ldr	r3, [r7, #4]
 800223c:	4413      	add	r3, r2
 800223e:	693a      	ldr	r2, [r7, #16]
 8002240:	429a      	cmp	r2, r3
 8002242:	d207      	bcs.n	8002254 <_sbrk+0x40>
 8002244:	f004 f9cc 	bl	80065e0 <__errno>
 8002248:	4603      	mov	r3, r0
 800224a:	220c      	movs	r2, #12
 800224c:	601a      	str	r2, [r3, #0]
 800224e:	f04f 33ff 	mov.w	r3, #4294967295
 8002252:	e009      	b.n	8002268 <_sbrk+0x54>
 8002254:	4b08      	ldr	r3, [pc, #32]	@ (8002278 <_sbrk+0x64>)
 8002256:	681b      	ldr	r3, [r3, #0]
 8002258:	60fb      	str	r3, [r7, #12]
 800225a:	4b07      	ldr	r3, [pc, #28]	@ (8002278 <_sbrk+0x64>)
 800225c:	681a      	ldr	r2, [r3, #0]
 800225e:	687b      	ldr	r3, [r7, #4]
 8002260:	4413      	add	r3, r2
 8002262:	4a05      	ldr	r2, [pc, #20]	@ (8002278 <_sbrk+0x64>)
 8002264:	6013      	str	r3, [r2, #0]
 8002266:	68fb      	ldr	r3, [r7, #12]
 8002268:	4618      	mov	r0, r3
 800226a:	3718      	adds	r7, #24
 800226c:	46bd      	mov	sp, r7
 800226e:	bd80      	pop	{r7, pc}
 8002270:	20080000 	.word	0x20080000
 8002274:	00000400 	.word	0x00000400
 8002278:	20000128 	.word	0x20000128
 800227c:	20000398 	.word	0x20000398

08002280 <SystemInit>:
 8002280:	b480      	push	{r7}
 8002282:	af00      	add	r7, sp, #0
 8002284:	4b06      	ldr	r3, [pc, #24]	@ (80022a0 <SystemInit+0x20>)
 8002286:	f8d3 3088 	ldr.w	r3, [r3, #136]	@ 0x88
 800228a:	4a05      	ldr	r2, [pc, #20]	@ (80022a0 <SystemInit+0x20>)
 800228c:	f443 0370 	orr.w	r3, r3, #15728640	@ 0xf00000
 8002290:	f8c2 3088 	str.w	r3, [r2, #136]	@ 0x88
 8002294:	bf00      	nop
 8002296:	46bd      	mov	sp, r7
 8002298:	f85d 7b04 	ldr.w	r7, [sp], #4
 800229c:	4770      	bx	lr
 800229e:	bf00      	nop
 80022a0:	e000ed00 	.word	0xe000ed00

080022a4 <MX_TIM2_Init>:
TIM_HandleTypeDef htim2;
TIM_HandleTypeDef htim3;

/* TIM2 init function */
void MX_TIM2_Init(void)
{
 80022a4:	b580      	push	{r7, lr}
 80022a6:	b088      	sub	sp, #32
 80022a8:	af00      	add	r7, sp, #0

  /* USER CODE BEGIN TIM2_Init 0 */

  /* USER CODE END TIM2_Init 0 */

  TIM_ClockConfigTypeDef sClockSourceConfig = {0};
 80022aa:	f107 0310 	add.w	r3, r7, #16
 80022ae:	2200      	movs	r2, #0
 80022b0:	601a      	str	r2, [r3, #0]
 80022b2:	605a      	str	r2, [r3, #4]
 80022b4:	609a      	str	r2, [r3, #8]
 80022b6:	60da      	str	r2, [r3, #12]
  TIM_MasterConfigTypeDef sMasterConfig = {0};
 80022b8:	1d3b      	adds	r3, r7, #4
 80022ba:	2200      	movs	r2, #0
 80022bc:	601a      	str	r2, [r3, #0]
 80022be:	605a      	str	r2, [r3, #4]
 80022c0:	609a      	str	r2, [r3, #8]

  /* USER CODE BEGIN TIM2_Init 1 */

  /* USER CODE END TIM2_Init 1 */
  htim2.Instance = TIM2;
 80022c2:	4b1d      	ldr	r3, [pc, #116]	@ (8002338 <MX_TIM2_Init+0x94>)
 80022c4:	f04f 4280 	mov.w	r2, #1073741824	@ 0x40000000
 80022c8:	601a      	str	r2, [r3, #0]
  htim2.Init.Prescaler = 108-1;
 80022ca:	4b1b      	ldr	r3, [pc, #108]	@ (8002338 <MX_TIM2_Init+0x94>)
 80022cc:	226b      	movs	r2, #107	@ 0x6b
 80022ce:	605a      	str	r2, [r3, #4]
  htim2.Init.CounterMode = TIM_COUNTERMODE_UP;
 80022d0:	4b19      	ldr	r3, [pc, #100]	@ (8002338 <MX_TIM2_Init+0x94>)
 80022d2:	2200      	movs	r2, #0
 80022d4:	609a      	str	r2, [r3, #8]
  htim2.Init.Period = 1000000-1;
 80022d6:	4b18      	ldr	r3, [pc, #96]	@ (8002338 <MX_TIM2_Init+0x94>)
 80022d8:	4a18      	ldr	r2, [pc, #96]	@ (800233c <MX_TIM2_Init+0x98>)
 80022da:	60da      	str	r2, [r3, #12]
  htim2.Init.ClockDivision = TIM_CLOCKDIVISION_DIV1;
 80022dc:	4b16      	ldr	r3, [pc, #88]	@ (8002338 <MX_TIM2_Init+0x94>)
 80022de:	2200      	movs	r2, #0
 80022e0:	611a      	str	r2, [r3, #16]
  htim2.Init.AutoReloadPreload = TIM_AUTORELOAD_PRELOAD_DISABLE;
 80022e2:	4b15      	ldr	r3, [pc, #84]	@ (8002338 <MX_TIM2_Init+0x94>)
 80022e4:	2200      	movs	r2, #0
 80022e6:	619a      	str	r2, [r3, #24]
  if (HAL_TIM_Base_Init(&htim2) != HAL_OK)
 80022e8:	4813      	ldr	r0, [pc, #76]	@ (8002338 <MX_TIM2_Init+0x94>)
 80022ea:	f002 fa5f 	bl	80047ac <HAL_TIM_Base_Init>
 80022ee:	4603      	mov	r3, r0
 80022f0:	2b00      	cmp	r3, #0
 80022f2:	d001      	beq.n	80022f8 <MX_TIM2_Init+0x54>
  {
    Error_Handler();
 80022f4:	f7ff fea0 	bl	8002038 <Error_Handler>
  }
  sClockSourceConfig.ClockSource = TIM_CLOCKSOURCE_INTERNAL;
 80022f8:	f44f 5380 	mov.w	r3, #4096	@ 0x1000
 80022fc:	613b      	str	r3, [r7, #16]
  if (HAL_TIM_ConfigClockSource(&htim2, &sClockSourceConfig) != HAL_OK)
 80022fe:	f107 0310 	add.w	r3, r7, #16
 8002302:	4619      	mov	r1, r3
 8002304:	480c      	ldr	r0, [pc, #48]	@ (8002338 <MX_TIM2_Init+0x94>)
 8002306:	f002 fedf 	bl	80050c8 <HAL_TIM_ConfigClockSource>
 800230a:	4603      	mov	r3, r0
 800230c:	2b00      	cmp	r3, #0
 800230e:	d001      	beq.n	8002314 <MX_TIM2_Init+0x70>
  {
    Error_Handler();
 8002310:	f7ff fe92 	bl	8002038 <Error_Handler>
  }
  sMasterConfig.MasterOutputTrigger = TIM_TRGO_RESET;
 8002314:	2300      	movs	r3, #0
 8002316:	607b      	str	r3, [r7, #4]
  sMasterConfig.MasterSlaveMode = TIM_MASTERSLAVEMODE_DISABLE;
 8002318:	2300      	movs	r3, #0
 800231a:	60fb      	str	r3, [r7, #12]
  if (HAL_TIMEx_MasterConfigSynchronization(&htim2, &sMasterConfig) != HAL_OK)
 800231c:	1d3b      	adds	r3, r7, #4
 800231e:	4619      	mov	r1, r3
 8002320:	4805      	ldr	r0, [pc, #20]	@ (8002338 <MX_TIM2_Init+0x94>)
 8002322:	f003 fb81 	bl	8005a28 <HAL_TIMEx_MasterConfigSynchronization>
 8002326:	4603      	mov	r3, r0
 8002328:	2b00      	cmp	r3, #0
 800232a:	d001      	beq.n	8002330 <MX_TIM2_Init+0x8c>
  {
    Error_Handler();
 800232c:	f7ff fe84 	bl	8002038 <Error_Handler>
  }
  /* USER CODE BEGIN TIM2_Init 2 */

  /* USER CODE END TIM2_Init 2 */

}
 8002330:	bf00      	nop
 8002332:	3720      	adds	r7, #32
 8002334:	46bd      	mov	sp, r7
 8002336:	bd80      	pop	{r7, pc}
 8002338:	2000012c 	.word	0x2000012c
 800233c:	000f423f 	.word	0x000f423f

08002340 <MX_TIM3_Init>:
/* TIM3 init function */
void MX_TIM3_Init(void)
{
 8002340:	b580      	push	{r7, lr}
 8002342:	b08e      	sub	sp, #56	@ 0x38
 8002344:	af00      	add	r7, sp, #0

  /* USER CODE BEGIN TIM3_Init 0 */

  /* USER CODE END TIM3_Init 0 */

  TIM_ClockConfigTypeDef sClockSourceConfig = {0};
 8002346:	f107 0328 	add.w	r3, r7, #40	@ 0x28
 800234a:	2200      	movs	r2, #0
 800234c:	601a      	str	r2, [r3, #0]
 800234e:	605a      	str	r2, [r3, #4]
 8002350:	609a      	str	r2, [r3, #8]
 8002352:	60da      	str	r2, [r3, #12]
  TIM_MasterConfigTypeDef sMasterConfig = {0};
 8002354:	f107 031c 	add.w	r3, r7, #28
 8002358:	2200      	movs	r2, #0
 800235a:	601a      	str	r2, [r3, #0]
 800235c:	605a      	str	r2, [r3, #4]
 800235e:	609a      	str	r2, [r3, #8]
  TIM_OC_InitTypeDef sConfigOC = {0};
 8002360:	463b      	mov	r3, r7
 8002362:	2200      	movs	r2, #0
 8002364:	601a      	str	r2, [r3, #0]
 8002366:	605a      	str	r2, [r3, #4]
 8002368:	609a      	str	r2, [r3, #8]
 800236a:	60da      	str	r2, [r3, #12]
 800236c:	611a      	str	r2, [r3, #16]
 800236e:	615a      	str	r2, [r3, #20]
 8002370:	619a      	str	r2, [r3, #24]

  /* USER CODE BEGIN TIM3_Init 1 */

  /* USER CODE END TIM3_Init 1 */
  htim3.Instance = TIM3;
 8002372:	4b34      	ldr	r3, [pc, #208]	@ (8002444 <MX_TIM3_Init+0x104>)
 8002374:	4a34      	ldr	r2, [pc, #208]	@ (8002448 <MX_TIM3_Init+0x108>)
 8002376:	601a      	str	r2, [r3, #0]
  htim3.Init.Prescaler = 108-1;
 8002378:	4b32      	ldr	r3, [pc, #200]	@ (8002444 <MX_TIM3_Init+0x104>)
 800237a:	226b      	movs	r2, #107	@ 0x6b
 800237c:	605a      	str	r2, [r3, #4]
  htim3.Init.CounterMode = TIM_COUNTERMODE_UP;
 800237e:	4b31      	ldr	r3, [pc, #196]	@ (8002444 <MX_TIM3_Init+0x104>)
 8002380:	2200      	movs	r2, #0
 8002382:	609a      	str	r2, [r3, #8]
  htim3.Init.Period = 10000-1;
 8002384:	4b2f      	ldr	r3, [pc, #188]	@ (8002444 <MX_TIM3_Init+0x104>)
 8002386:	f242 720f 	movw	r2, #9999	@ 0x270f
 800238a:	60da      	str	r2, [r3, #12]
  htim3.Init.ClockDivision = TIM_CLOCKDIVISION_DIV1;
 800238c:	4b2d      	ldr	r3, [pc, #180]	@ (8002444 <MX_TIM3_Init+0x104>)
 800238e:	2200      	movs	r2, #0
 8002390:	611a      	str	r2, [r3, #16]
  htim3.Init.AutoReloadPreload = TIM_AUTORELOAD_PRELOAD_DISABLE;
 8002392:	4b2c      	ldr	r3, [pc, #176]	@ (8002444 <MX_TIM3_Init+0x104>)
 8002394:	2200      	movs	r2, #0
 8002396:	619a      	str	r2, [r3, #24]
  if (HAL_TIM_Base_Init(&htim3) != HAL_OK)
 8002398:	482a      	ldr	r0, [pc, #168]	@ (8002444 <MX_TIM3_Init+0x104>)
 800239a:	f002 fa07 	bl	80047ac <HAL_TIM_Base_Init>
 800239e:	4603      	mov	r3, r0
 80023a0:	2b00      	cmp	r3, #0
 80023a2:	d001      	beq.n	80023a8 <MX_TIM3_Init+0x68>
  {
    Error_Handler();
 80023a4:	f7ff fe48 	bl	8002038 <Error_Handler>
  }
  sClockSourceConfig.ClockSource = TIM_CLOCKSOURCE_INTERNAL;
 80023a8:	f44f 5380 	mov.w	r3, #4096	@ 0x1000
 80023ac:	62bb      	str	r3, [r7, #40]	@ 0x28
  if (HAL_TIM_ConfigClockSource(&htim3, &sClockSourceConfig) != HAL_OK)
 80023ae:	f107 0328 	add.w	r3, r7, #40	@ 0x28
 80023b2:	4619      	mov	r1, r3
 80023b4:	4823      	ldr	r0, [pc, #140]	@ (8002444 <MX_TIM3_Init+0x104>)
 80023b6:	f002 fe87 	bl	80050c8 <HAL_TIM_ConfigClockSource>
 80023ba:	4603      	mov	r3, r0
 80023bc:	2b00      	cmp	r3, #0
 80023be:	d001      	beq.n	80023c4 <MX_TIM3_Init+0x84>
  {
    Error_Handler();
 80023c0:	f7ff fe3a 	bl	8002038 <Error_Handler>
  }
  if (HAL_TIM_PWM_Init(&htim3) != HAL_OK)
 80023c4:	481f      	ldr	r0, [pc, #124]	@ (8002444 <MX_TIM3_Init+0x104>)
 80023c6:	f002 faf0 	bl	80049aa <HAL_TIM_PWM_Init>
 80023ca:	4603      	mov	r3, r0
 80023cc:	2b00      	cmp	r3, #0
 80023ce:	d001      	beq.n	80023d4 <MX_TIM3_Init+0x94>
  {
    Error_Handler();
 80023d0:	f7ff fe32 	bl	8002038 <Error_Handler>
  }
  sMasterConfig.MasterOutputTrigger = TIM_TRGO_RESET;
 80023d4:	2300      	movs	r3, #0
 80023d6:	61fb      	str	r3, [r7, #28]
  sMasterConfig.MasterSlaveMode = TIM_MASTERSLAVEMODE_DISABLE;
 80023d8:	2300      	movs	r3, #0
 80023da:	627b      	str	r3, [r7, #36]	@ 0x24
  if (HAL_TIMEx_MasterConfigSynchronization(&htim3, &sMasterConfig) != HAL_OK)
 80023dc:	f107 031c 	add.w	r3, r7, #28
 80023e0:	4619      	mov	r1, r3
 80023e2:	4818      	ldr	r0, [pc, #96]	@ (8002444 <MX_TIM3_Init+0x104>)
 80023e4:	f003 fb20 	bl	8005a28 <HAL_TIMEx_MasterConfigSynchronization>
 80023e8:	4603      	mov	r3, r0
 80023ea:	2b00      	cmp	r3, #0
 80023ec:	d001      	beq.n	80023f2 <MX_TIM3_Init+0xb2>
  {
    Error_Handler();
 80023ee:	f7ff fe23 	bl	8002038 <Error_Handler>
  }
  sConfigOC.OCMode = TIM_OCMODE_PWM1;
 80023f2:	2360      	movs	r3, #96	@ 0x60
 80023f4:	603b      	str	r3, [r7, #0]
  sConfigOC.Pulse = 4000;
 80023f6:	f44f 637a 	mov.w	r3, #4000	@ 0xfa0
 80023fa:	607b      	str	r3, [r7, #4]
  sConfigOC.OCPolarity = TIM_OCPOLARITY_HIGH;
 80023fc:	2300      	movs	r3, #0
 80023fe:	60bb      	str	r3, [r7, #8]
  sConfigOC.OCFastMode = TIM_OCFAST_DISABLE;
 8002400:	2300      	movs	r3, #0
 8002402:	613b      	str	r3, [r7, #16]
  if (HAL_TIM_PWM_ConfigChannel(&htim3, &sConfigOC, TIM_CHANNEL_1) != HAL_OK)
 8002404:	463b      	mov	r3, r7
 8002406:	2200      	movs	r2, #0
 8002408:	4619      	mov	r1, r3
 800240a:	480e      	ldr	r0, [pc, #56]	@ (8002444 <MX_TIM3_Init+0x104>)
 800240c:	f002 fd48 	bl	8004ea0 <HAL_TIM_PWM_ConfigChannel>
 8002410:	4603      	mov	r3, r0
 8002412:	2b00      	cmp	r3, #0
 8002414:	d001      	beq.n	800241a <MX_TIM3_Init+0xda>
  {
    Error_Handler();
 8002416:	f7ff fe0f 	bl	8002038 <Error_Handler>
  }
  sConfigOC.Pulse = 8000;
 800241a:	f44f 53fa 	mov.w	r3, #8000	@ 0x1f40
 800241e:	607b      	str	r3, [r7, #4]
  if (HAL_TIM_PWM_ConfigChannel(&htim3, &sConfigOC, TIM_CHANNEL_2) != HAL_OK)
 8002420:	463b      	mov	r3, r7
 8002422:	2204      	movs	r2, #4
 8002424:	4619      	mov	r1, r3
 8002426:	4807      	ldr	r0, [pc, #28]	@ (8002444 <MX_TIM3_Init+0x104>)
 8002428:	f002 fd3a 	bl	8004ea0 <HAL_TIM_PWM_ConfigChannel>
 800242c:	4603      	mov	r3, r0
 800242e:	2b00      	cmp	r3, #0
 8002430:	d001      	beq.n	8002436 <MX_TIM3_Init+0xf6>
  {
    Error_Handler();
 8002432:	f7ff fe01 	bl	8002038 <Error_Handler>
  }
  /* USER CODE BEGIN TIM3_Init 2 */

  /* USER CODE END TIM3_Init 2 */
  HAL_TIM_MspPostInit(&htim3);
 8002436:	4803      	ldr	r0, [pc, #12]	@ (8002444 <MX_TIM3_Init+0x104>)
 8002438:	f000 f840 	bl	80024bc <HAL_TIM_MspPostInit>

}
 800243c:	bf00      	nop
 800243e:	3738      	adds	r7, #56	@ 0x38
 8002440:	46bd      	mov	sp, r7
 8002442:	bd80      	pop	{r7, pc}
 8002444:	20000178 	.word	0x20000178
 8002448:	40000400 	.word	0x40000400

0800244c <HAL_TIM_Base_MspInit>:

void HAL_TIM_Base_MspInit(TIM_HandleTypeDef* tim_baseHandle)
{
 800244c:	b580      	push	{r7, lr}
 800244e:	b084      	sub	sp, #16
 8002450:	af00      	add	r7, sp, #0
 8002452:	6078      	str	r0, [r7, #4]

  if(tim_baseHandle->Instance==TIM2)
 8002454:	687b      	ldr	r3, [r7, #4]
 8002456:	681b      	ldr	r3, [r3, #0]
 8002458:	f1b3 4f80 	cmp.w	r3, #1073741824	@ 0x40000000
 800245c:	d114      	bne.n	8002488 <HAL_TIM_Base_MspInit+0x3c>
  {
  /* USER CODE BEGIN TIM2_MspInit 0 */

  /* USER CODE END TIM2_MspInit 0 */
    /* TIM2 clock enable */
    __HAL_RCC_TIM2_CLK_ENABLE();
 800245e:	4b15      	ldr	r3, [pc, #84]	@ (80024b4 <HAL_TIM_Base_MspInit+0x68>)
 8002460:	6c1b      	ldr	r3, [r3, #64]	@ 0x40
 8002462:	4a14      	ldr	r2, [pc, #80]	@ (80024b4 <HAL_TIM_Base_MspInit+0x68>)
 8002464:	f043 0301 	orr.w	r3, r3, #1
 8002468:	6413      	str	r3, [r2, #64]	@ 0x40
 800246a:	4b12      	ldr	r3, [pc, #72]	@ (80024b4 <HAL_TIM_Base_MspInit+0x68>)
 800246c:	6c1b      	ldr	r3, [r3, #64]	@ 0x40
 800246e:	f003 0301 	and.w	r3, r3, #1
 8002472:	60fb      	str	r3, [r7, #12]
 8002474:	68fb      	ldr	r3, [r7, #12]

    /* TIM2 interrupt Init */
    HAL_NVIC_SetPriority(TIM2_IRQn, 1, 0);
 8002476:	2200      	movs	r2, #0
 8002478:	2101      	movs	r1, #1
 800247a:	201c      	movs	r0, #28
 800247c:	f000 fa6b 	bl	8002956 <HAL_NVIC_SetPriority>
    HAL_NVIC_EnableIRQ(TIM2_IRQn);
 8002480:	201c      	movs	r0, #28
 8002482:	f000 fa84 	bl	800298e <HAL_NVIC_EnableIRQ>
    __HAL_RCC_TIM3_CLK_ENABLE();
  /* USER CODE BEGIN TIM3_MspInit 1 */

  /* USER CODE END TIM3_MspInit 1 */
  }
}
 8002486:	e010      	b.n	80024aa <HAL_TIM_Base_MspInit+0x5e>
  else if(tim_baseHandle->Instance==TIM3)
 8002488:	687b      	ldr	r3, [r7, #4]
 800248a:	681b      	ldr	r3, [r3, #0]
 800248c:	4a0a      	ldr	r2, [pc, #40]	@ (80024b8 <HAL_TIM_Base_MspInit+0x6c>)
 800248e:	4293      	cmp	r3, r2
 8002490:	d10b      	bne.n	80024aa <HAL_TIM_Base_MspInit+0x5e>
    __HAL_RCC_TIM3_CLK_ENABLE();
 8002492:	4b08      	ldr	r3, [pc, #32]	@ (80024b4 <HAL_TIM_Base_MspInit+0x68>)
 8002494:	6c1b      	ldr	r3, [r3, #64]	@ 0x40
 8002496:	4a07      	ldr	r2, [pc, #28]	@ (80024b4 <HAL_TIM_Base_MspInit+0x68>)
 8002498:	f043 0302 	orr.w	r3, r3, #2
 800249c:	6413      	str	r3, [r2, #64]	@ 0x40
 800249e:	4b05      	ldr	r3, [pc, #20]	@ (80024b4 <HAL_TIM_Base_MspInit+0x68>)
 80024a0:	6c1b      	ldr	r3, [r3, #64]	@ 0x40
 80024a2:	f003 0302 	and.w	r3, r3, #2
 80024a6:	60bb      	str	r3, [r7, #8]
 80024a8:	68bb      	ldr	r3, [r7, #8]
}
 80024aa:	bf00      	nop
 80024ac:	3710      	adds	r7, #16
 80024ae:	46bd      	mov	sp, r7
 80024b0:	bd80      	pop	{r7, pc}
 80024b2:	bf00      	nop
 80024b4:	40023800 	.word	0x40023800
 80024b8:	40000400 	.word	0x40000400

080024bc <HAL_TIM_MspPostInit>:
void HAL_TIM_MspPostInit(TIM_HandleTypeDef* timHandle)
{
 80024bc:	b580      	push	{r7, lr}
 80024be:	b088      	sub	sp, #32
 80024c0:	af00      	add	r7, sp, #0
 80024c2:	6078      	str	r0, [r7, #4]

  GPIO_InitTypeDef GPIO_InitStruct = {0};
 80024c4:	f107 030c 	add.w	r3, r7, #12
 80024c8:	2200      	movs	r2, #0
 80024ca:	601a      	str	r2, [r3, #0]
 80024cc:	605a      	str	r2, [r3, #4]
 80024ce:	609a      	str	r2, [r3, #8]
 80024d0:	60da      	str	r2, [r3, #12]
 80024d2:	611a      	str	r2, [r3, #16]
  if(timHandle->Instance==TIM3)
 80024d4:	687b      	ldr	r3, [r7, #4]
 80024d6:	681b      	ldr	r3, [r3, #0]
 80024d8:	4a11      	ldr	r2, [pc, #68]	@ (8002520 <HAL_TIM_MspPostInit+0x64>)
 80024da:	4293      	cmp	r3, r2
 80024dc:	d11b      	bne.n	8002516 <HAL_TIM_MspPostInit+0x5a>
  {
  /* USER CODE BEGIN TIM3_MspPostInit 0 */

  /* USER CODE END TIM3_MspPostInit 0 */

    __HAL_RCC_GPIOA_CLK_ENABLE();
 80024de:	4b11      	ldr	r3, [pc, #68]	@ (8002524 <HAL_TIM_MspPostInit+0x68>)
 80024e0:	6b1b      	ldr	r3, [r3, #48]	@ 0x30
 80024e2:	4a10      	ldr	r2, [pc, #64]	@ (8002524 <HAL_TIM_MspPostInit+0x68>)
 80024e4:	f043 0301 	orr.w	r3, r3, #1
 80024e8:	6313      	str	r3, [r2, #48]	@ 0x30
 80024ea:	4b0e      	ldr	r3, [pc, #56]	@ (8002524 <HAL_TIM_MspPostInit+0x68>)
 80024ec:	6b1b      	ldr	r3, [r3, #48]	@ 0x30
 80024ee:	f003 0301 	and.w	r3, r3, #1
 80024f2:	60bb      	str	r3, [r7, #8]
 80024f4:	68bb      	ldr	r3, [r7, #8]
    /**TIM3 GPIO Configuration
    PA6     ------> TIM3_CH1
    PA7     ------> TIM3_CH2
    */
    GPIO_InitStruct.Pin = GPIO_PIN_6|GPIO_PIN_7;
 80024f6:	23c0      	movs	r3, #192	@ 0xc0
 80024f8:	60fb      	str	r3, [r7, #12]
    GPIO_InitStruct.Mode = GPIO_MODE_AF_PP;
 80024fa:	2302      	movs	r3, #2
 80024fc:	613b      	str	r3, [r7, #16]
    GPIO_InitStruct.Pull = GPIO_NOPULL;
 80024fe:	2300      	movs	r3, #0
 8002500:	617b      	str	r3, [r7, #20]
    GPIO_InitStruct.Speed = GPIO_SPEED_FREQ_VERY_HIGH;
 8002502:	2303      	movs	r3, #3
 8002504:	61bb      	str	r3, [r7, #24]
    GPIO_InitStruct.Alternate = GPIO_AF2_TIM3;
 8002506:	2302      	movs	r3, #2
 8002508:	61fb      	str	r3, [r7, #28]
    HAL_GPIO_Init(GPIOA, &GPIO_InitStruct);
 800250a:	f107 030c 	add.w	r3, r7, #12
 800250e:	4619      	mov	r1, r3
 8002510:	4805      	ldr	r0, [pc, #20]	@ (8002528 <HAL_TIM_MspPostInit+0x6c>)
 8002512:	f000 fa57 	bl	80029c4 <HAL_GPIO_Init>
  /* USER CODE BEGIN TIM3_MspPostInit 1 */

  /* USER CODE END TIM3_MspPostInit 1 */
  }

}
 8002516:	bf00      	nop
 8002518:	3720      	adds	r7, #32
 800251a:	46bd      	mov	sp, r7
 800251c:	bd80      	pop	{r7, pc}
 800251e:	bf00      	nop
 8002520:	40000400 	.word	0x40000400
 8002524:	40023800 	.word	0x40023800
 8002528:	40020000 	.word	0x40020000

0800252c <MX_USART3_UART_Init>:
UART_HandleTypeDef huart3;

/* USART3 init function */

void MX_USART3_UART_Init(void)
{
 800252c:	b580      	push	{r7, lr}
 800252e:	af00      	add	r7, sp, #0
  /* USER CODE END USART3_Init 0 */

  /* USER CODE BEGIN USART3_Init 1 */

  /* USER CODE END USART3_Init 1 */
  huart3.Instance = USART3;
 8002530:	4b14      	ldr	r3, [pc, #80]	@ (8002584 <MX_USART3_UART_Init+0x58>)
 8002532:	4a15      	ldr	r2, [pc, #84]	@ (8002588 <MX_USART3_UART_Init+0x5c>)
 8002534:	601a      	str	r2, [r3, #0]
  huart3.Init.BaudRate = 115200;
 8002536:	4b13      	ldr	r3, [pc, #76]	@ (8002584 <MX_USART3_UART_Init+0x58>)
 8002538:	f44f 32e1 	mov.w	r2, #115200	@ 0x1c200
 800253c:	605a      	str	r2, [r3, #4]
  huart3.Init.WordLength = UART_WORDLENGTH_8B;
 800253e:	4b11      	ldr	r3, [pc, #68]	@ (8002584 <MX_USART3_UART_Init+0x58>)
 8002540:	2200      	movs	r2, #0
 8002542:	609a      	str	r2, [r3, #8]
  huart3.Init.StopBits = UART_STOPBITS_1;
 8002544:	4b0f      	ldr	r3, [pc, #60]	@ (8002584 <MX_USART3_UART_Init+0x58>)
 8002546:	2200      	movs	r2, #0
 8002548:	60da      	str	r2, [r3, #12]
  huart3.Init.Parity = UART_PARITY_NONE;
 800254a:	4b0e      	ldr	r3, [pc, #56]	@ (8002584 <MX_USART3_UART_Init+0x58>)
 800254c:	2200      	movs	r2, #0
 800254e:	611a      	str	r2, [r3, #16]
  huart3.Init.Mode = UART_MODE_TX_RX;
 8002550:	4b0c      	ldr	r3, [pc, #48]	@ (8002584 <MX_USART3_UART_Init+0x58>)
 8002552:	220c      	movs	r2, #12
 8002554:	615a      	str	r2, [r3, #20]
  huart3.Init.HwFlowCtl = UART_HWCONTROL_NONE;
 8002556:	4b0b      	ldr	r3, [pc, #44]	@ (8002584 <MX_USART3_UART_Init+0x58>)
 8002558:	2200      	movs	r2, #0
 800255a:	619a      	str	r2, [r3, #24]
  huart3.Init.OverSampling = UART_OVERSAMPLING_16;
 800255c:	4b09      	ldr	r3, [pc, #36]	@ (8002584 <MX_USART3_UART_Init+0x58>)
 800255e:	2200      	movs	r2, #0
 8002560:	61da      	str	r2, [r3, #28]
  huart3.Init.OneBitSampling = UART_ONE_BIT_SAMPLE_DISABLE;
 8002562:	4b08      	ldr	r3, [pc, #32]	@ (8002584 <MX_USART3_UART_Init+0x58>)
 8002564:	2200      	movs	r2, #0
 8002566:	621a      	str	r2, [r3, #32]
  huart3.AdvancedInit.AdvFeatureInit = UART_ADVFEATURE_NO_INIT;
 8002568:	4b06      	ldr	r3, [pc, #24]	@ (8002584 <MX_USART3_UART_Init+0x58>)
 800256a:	2200      	movs	r2, #0
 800256c:	625a      	str	r2, [r3, #36]	@ 0x24
  if (HAL_UART_Init(&huart3) != HAL_OK)
 800256e:	4805      	ldr	r0, [pc, #20]	@ (8002584 <MX_USART3_UART_Init+0x58>)
 8002570:	f003 fb06 	bl	8005b80 <HAL_UART_Init>
 8002574:	4603      	mov	r3, r0
 8002576:	2b00      	cmp	r3, #0
 8002578:	d001      	beq.n	800257e <MX_USART3_UART_Init+0x52>
  {
    Error_Handler();
 800257a:	f7ff fd5d 	bl	8002038 <Error_Handler>
  }
  /* USER CODE BEGIN USART3_Init 2 */

  /* USER CODE END USART3_Init 2 */

}
 800257e:	bf00      	nop
 8002580:	bd80      	pop	{r7, pc}
 8002582:	bf00      	nop
 8002584:	200001c4 	.word	0x200001c4
 8002588:	40004800 	.word	0x40004800

0800258c <HAL_UART_MspInit>:

void HAL_UART_MspInit(UART_HandleTypeDef* uartHandle)
{
 800258c:	b580      	push	{r7, lr}
 800258e:	b0ae      	sub	sp, #184	@ 0xb8
 8002590:	af00      	add	r7, sp, #0
 8002592:	6078      	str	r0, [r7, #4]

  GPIO_InitTypeDef GPIO_InitStruct = {0};
 8002594:	f107 03a4 	add.w	r3, r7, #164	@ 0xa4
 8002598:	2200      	movs	r2, #0
 800259a:	601a      	str	r2, [r3, #0]
 800259c:	605a      	str	r2, [r3, #4]
 800259e:	609a      	str	r2, [r3, #8]
 80025a0:	60da      	str	r2, [r3, #12]
 80025a2:	611a      	str	r2, [r3, #16]
  RCC_PeriphCLKInitTypeDef PeriphClkInitStruct = {0};
 80025a4:	f107 0314 	add.w	r3, r7, #20
 80025a8:	2290      	movs	r2, #144	@ 0x90
 80025aa:	2100      	movs	r1, #0
 80025ac:	4618      	mov	r0, r3
 80025ae:	f004 f80f 	bl	80065d0 <memset>
  if(uartHandle->Instance==USART3)
 80025b2:	687b      	ldr	r3, [r7, #4]
 80025b4:	681b      	ldr	r3, [r3, #0]
 80025b6:	4a22      	ldr	r2, [pc, #136]	@ (8002640 <HAL_UART_MspInit+0xb4>)
 80025b8:	4293      	cmp	r3, r2
 80025ba:	d13c      	bne.n	8002636 <HAL_UART_MspInit+0xaa>

  /* USER CODE END USART3_MspInit 0 */

  /** Initializes the peripherals clock
  */
    PeriphClkInitStruct.PeriphClockSelection = RCC_PERIPHCLK_USART3;
 80025bc:	f44f 7380 	mov.w	r3, #256	@ 0x100
 80025c0:	617b      	str	r3, [r7, #20]
    PeriphClkInitStruct.Usart3ClockSelection = RCC_USART3CLKSOURCE_PCLK1;
 80025c2:	2300      	movs	r3, #0
 80025c4:	663b      	str	r3, [r7, #96]	@ 0x60
    if (HAL_RCCEx_PeriphCLKConfig(&PeriphClkInitStruct) != HAL_OK)
 80025c6:	f107 0314 	add.w	r3, r7, #20
 80025ca:	4618      	mov	r0, r3
 80025cc:	f001 f924 	bl	8003818 <HAL_RCCEx_PeriphCLKConfig>
 80025d0:	4603      	mov	r3, r0
 80025d2:	2b00      	cmp	r3, #0
 80025d4:	d001      	beq.n	80025da <HAL_UART_MspInit+0x4e>
    {
      Error_Handler();
 80025d6:	f7ff fd2f 	bl	8002038 <Error_Handler>
    }

    /* USART3 clock enable */
    __HAL_RCC_USART3_CLK_ENABLE();
 80025da:	4b1a      	ldr	r3, [pc, #104]	@ (8002644 <HAL_UART_MspInit+0xb8>)
 80025dc:	6c1b      	ldr	r3, [r3, #64]	@ 0x40
 80025de:	4a19      	ldr	r2, [pc, #100]	@ (8002644 <HAL_UART_MspInit+0xb8>)
 80025e0:	f443 2380 	orr.w	r3, r3, #262144	@ 0x40000
 80025e4:	6413      	str	r3, [r2, #64]	@ 0x40
 80025e6:	4b17      	ldr	r3, [pc, #92]	@ (8002644 <HAL_UART_MspInit+0xb8>)
 80025e8:	6c1b      	ldr	r3, [r3, #64]	@ 0x40
 80025ea:	f403 2380 	and.w	r3, r3, #262144	@ 0x40000
 80025ee:	613b      	str	r3, [r7, #16]
 80025f0:	693b      	ldr	r3, [r7, #16]

    __HAL_RCC_GPIOD_CLK_ENABLE();
 80025f2:	4b14      	ldr	r3, [pc, #80]	@ (8002644 <HAL_UART_MspInit+0xb8>)
 80025f4:	6b1b      	ldr	r3, [r3, #48]	@ 0x30
 80025f6:	4a13      	ldr	r2, [pc, #76]	@ (8002644 <HAL_UART_MspInit+0xb8>)
 80025f8:	f043 0308 	orr.w	r3, r3, #8
 80025fc:	6313      	str	r3, [r2, #48]	@ 0x30
 80025fe:	4b11      	ldr	r3, [pc, #68]	@ (8002644 <HAL_UART_MspInit+0xb8>)
 8002600:	6b1b      	ldr	r3, [r3, #48]	@ 0x30
 8002602:	f003 0308 	and.w	r3, r3, #8
 8002606:	60fb      	str	r3, [r7, #12]
 8002608:	68fb      	ldr	r3, [r7, #12]
    /**USART3 GPIO Configuration
    PD8     ------> USART3_TX
    PD9     ------> USART3_RX
    */
    GPIO_InitStruct.Pin = STLK_RX_Pin|STLK_TX_Pin;
 800260a:	f44f 7340 	mov.w	r3, #768	@ 0x300
 800260e:	f8c7 30a4 	str.w	r3, [r7, #164]	@ 0xa4
    GPIO_InitStruct.Mode = GPIO_MODE_AF_PP;
 8002612:	2302      	movs	r3, #2
 8002614:	f8c7 30a8 	str.w	r3, [r7, #168]	@ 0xa8
    GPIO_InitStruct.Pull = GPIO_NOPULL;
 8002618:	2300      	movs	r3, #0
 800261a:	f8c7 30ac 	str.w	r3, [r7, #172]	@ 0xac
    GPIO_InitStruct.Speed = GPIO_SPEED_FREQ_VERY_HIGH;
 800261e:	2303      	movs	r3, #3
 8002620:	f8c7 30b0 	str.w	r3, [r7, #176]	@ 0xb0
    GPIO_InitStruct.Alternate = GPIO_AF7_USART3;
 8002624:	2307      	movs	r3, #7
 8002626:	f8c7 30b4 	str.w	r3, [r7, #180]	@ 0xb4
    HAL_GPIO_Init(GPIOD, &GPIO_InitStruct);
 800262a:	f107 03a4 	add.w	r3, r7, #164	@ 0xa4
 800262e:	4619      	mov	r1, r3
 8002630:	4805      	ldr	r0, [pc, #20]	@ (8002648 <HAL_UART_MspInit+0xbc>)
 8002632:	f000 f9c7 	bl	80029c4 <HAL_GPIO_Init>

  /* USER CODE BEGIN USART3_MspInit 1 */

  /* USER CODE END USART3_MspInit 1 */
  }
}
 8002636:	bf00      	nop
 8002638:	37b8      	adds	r7, #184	@ 0xb8
 800263a:	46bd      	mov	sp, r7
 800263c:	bd80      	pop	{r7, pc}
 800263e:	bf00      	nop
 8002640:	40004800 	.word	0x40004800
 8002644:	40023800 	.word	0x40023800
 8002648:	40020c00 	.word	0x40020c00

0800264c <Reset_Handler>:
 800264c:	f8df d034 	ldr.w	sp, [pc, #52]	@ 8002684 <LoopFillZerobss+0x12>
 8002650:	480d      	ldr	r0, [pc, #52]	@ (8002688 <LoopFillZerobss+0x16>)
 8002652:	490e      	ldr	r1, [pc, #56]	@ (800268c <LoopFillZerobss+0x1a>)
 8002654:	4a0e      	ldr	r2, [pc, #56]	@ (8002690 <LoopFillZerobss+0x1e>)
 8002656:	2300      	movs	r3, #0
 8002658:	e002      	b.n	8002660 <LoopCopyDataInit>

0800265a <CopyDataInit>:
 800265a:	58d4      	ldr	r4, [r2, r3]
 800265c:	50c4      	str	r4, [r0, r3]
 800265e:	3304      	adds	r3, #4

08002660 <LoopCopyDataInit>:
 8002660:	18c4      	adds	r4, r0, r3
 8002662:	428c      	cmp	r4, r1
 8002664:	d3f9      	bcc.n	800265a <CopyDataInit>
 8002666:	4a0b      	ldr	r2, [pc, #44]	@ (8002694 <LoopFillZerobss+0x22>)
 8002668:	4c0b      	ldr	r4, [pc, #44]	@ (8002698 <LoopFillZerobss+0x26>)
 800266a:	2300      	movs	r3, #0
 800266c:	e001      	b.n	8002672 <LoopFillZerobss>

0800266e <FillZerobss>:
 800266e:	6013      	str	r3, [r2, #0]
 8002670:	3204      	adds	r2, #4

08002672 <LoopFillZerobss>:
 8002672:	42a2      	cmp	r2, r4
 8002674:	d3fb      	bcc.n	800266e <FillZerobss>
 8002676:	f7ff fe03 	bl	8002280 <SystemInit>
 800267a:	f003 ffb7 	bl	80065ec <__libc_init_array>
 800267e:	f7ff f92d 	bl	80018dc <main>
 8002682:	4770      	bx	lr
 8002684:	20080000 	.word	0x20080000
 8002688:	20000000 	.word	0x20000000
 800268c:	20000070 	.word	0x20000070
 8002690:	08007fa8 	.word	0x08007fa8
 8002694:	20000070 	.word	0x20000070
 8002698:	20000398 	.word	0x20000398

0800269c <ADC_IRQHandler>:
 800269c:	e7fe      	b.n	800269c <ADC_IRQHandler>

0800269e <HAL_Init>:
 800269e:	b580      	push	{r7, lr}
 80026a0:	af00      	add	r7, sp, #0
 80026a2:	2003      	movs	r0, #3
 80026a4:	f000 f94c 	bl	8002940 <HAL_NVIC_SetPriorityGrouping>
 80026a8:	2000      	movs	r0, #0
 80026aa:	f000 f805 	bl	80026b8 <HAL_InitTick>
 80026ae:	f7ff fd4b 	bl	8002148 <HAL_MspInit>
 80026b2:	2300      	movs	r3, #0
 80026b4:	4618      	mov	r0, r3
 80026b6:	bd80      	pop	{r7, pc}

080026b8 <HAL_InitTick>:
 80026b8:	b580      	push	{r7, lr}
 80026ba:	b082      	sub	sp, #8
 80026bc:	af00      	add	r7, sp, #0
 80026be:	6078      	str	r0, [r7, #4]
 80026c0:	4b12      	ldr	r3, [pc, #72]	@ (800270c <HAL_InitTick+0x54>)
 80026c2:	681a      	ldr	r2, [r3, #0]
 80026c4:	4b12      	ldr	r3, [pc, #72]	@ (8002710 <HAL_InitTick+0x58>)
 80026c6:	781b      	ldrb	r3, [r3, #0]
 80026c8:	4619      	mov	r1, r3
 80026ca:	f44f 737a 	mov.w	r3, #1000	@ 0x3e8
 80026ce:	fbb3 f3f1 	udiv	r3, r3, r1
 80026d2:	fbb2 f3f3 	udiv	r3, r2, r3
 80026d6:	4618      	mov	r0, r3
 80026d8:	f000 f967 	bl	80029aa <HAL_SYSTICK_Config>
 80026dc:	4603      	mov	r3, r0
 80026de:	2b00      	cmp	r3, #0
 80026e0:	d001      	beq.n	80026e6 <HAL_InitTick+0x2e>
 80026e2:	2301      	movs	r3, #1
 80026e4:	e00e      	b.n	8002704 <HAL_InitTick+0x4c>
 80026e6:	687b      	ldr	r3, [r7, #4]
 80026e8:	2b0f      	cmp	r3, #15
 80026ea:	d80a      	bhi.n	8002702 <HAL_InitTick+0x4a>
 80026ec:	2200      	movs	r2, #0
 80026ee:	6879      	ldr	r1, [r7, #4]
 80026f0:	f04f 30ff 	mov.w	r0, #4294967295
 80026f4:	f000 f92f 	bl	8002956 <HAL_NVIC_SetPriority>
 80026f8:	4a06      	ldr	r2, [pc, #24]	@ (8002714 <HAL_InitTick+0x5c>)
 80026fa:	687b      	ldr	r3, [r7, #4]
 80026fc:	6013      	str	r3, [r2, #0]
 80026fe:	2300      	movs	r3, #0
 8002700:	e000      	b.n	8002704 <HAL_InitTick+0x4c>
 8002702:	2301      	movs	r3, #1
 8002704:	4618      	mov	r0, r3
 8002706:	3708      	adds	r7, #8
 8002708:	46bd      	mov	sp, r7
 800270a:	bd80      	pop	{r7, pc}
 800270c:	20000014 	.word	0x20000014
 8002710:	2000001c 	.word	0x2000001c
 8002714:	20000018 	.word	0x20000018

08002718 <HAL_IncTick>:
 8002718:	b480      	push	{r7}
 800271a:	af00      	add	r7, sp, #0
 800271c:	4b06      	ldr	r3, [pc, #24]	@ (8002738 <HAL_IncTick+0x20>)
 800271e:	781b      	ldrb	r3, [r3, #0]
 8002720:	461a      	mov	r2, r3
 8002722:	4b06      	ldr	r3, [pc, #24]	@ (800273c <HAL_IncTick+0x24>)
 8002724:	681b      	ldr	r3, [r3, #0]
 8002726:	4413      	add	r3, r2
 8002728:	4a04      	ldr	r2, [pc, #16]	@ (800273c <HAL_IncTick+0x24>)
 800272a:	6013      	str	r3, [r2, #0]
 800272c:	bf00      	nop
 800272e:	46bd      	mov	sp, r7
 8002730:	f85d 7b04 	ldr.w	r7, [sp], #4
 8002734:	4770      	bx	lr
 8002736:	bf00      	nop
 8002738:	2000001c 	.word	0x2000001c
 800273c:	2000024c 	.word	0x2000024c

08002740 <HAL_GetTick>:
 8002740:	b480      	push	{r7}
 8002742:	af00      	add	r7, sp, #0
 8002744:	4b03      	ldr	r3, [pc, #12]	@ (8002754 <HAL_GetTick+0x14>)
 8002746:	681b      	ldr	r3, [r3, #0]
 8002748:	4618      	mov	r0, r3
 800274a:	46bd      	mov	sp, r7
 800274c:	f85d 7b04 	ldr.w	r7, [sp], #4
 8002750:	4770      	bx	lr
 8002752:	bf00      	nop
 8002754:	2000024c 	.word	0x2000024c

08002758 <HAL_Delay>:
 8002758:	b580      	push	{r7, lr}
 800275a:	b084      	sub	sp, #16
 800275c:	af00      	add	r7, sp, #0
 800275e:	6078      	str	r0, [r7, #4]
 8002760:	f7ff ffee 	bl	8002740 <HAL_GetTick>
 8002764:	60b8      	str	r0, [r7, #8]
 8002766:	687b      	ldr	r3, [r7, #4]
 8002768:	60fb      	str	r3, [r7, #12]
 800276a:	68fb      	ldr	r3, [r7, #12]
 800276c:	f1b3 3fff 	cmp.w	r3, #4294967295
 8002770:	d005      	beq.n	800277e <HAL_Delay+0x26>
 8002772:	4b0a      	ldr	r3, [pc, #40]	@ (800279c <HAL_Delay+0x44>)
 8002774:	781b      	ldrb	r3, [r3, #0]
 8002776:	461a      	mov	r2, r3
 8002778:	68fb      	ldr	r3, [r7, #12]
 800277a:	4413      	add	r3, r2
 800277c:	60fb      	str	r3, [r7, #12]
 800277e:	bf00      	nop
 8002780:	f7ff ffde 	bl	8002740 <HAL_GetTick>
 8002784:	4602      	mov	r2, r0
 8002786:	68bb      	ldr	r3, [r7, #8]
 8002788:	1ad3      	subs	r3, r2, r3
 800278a:	68fa      	ldr	r2, [r7, #12]
 800278c:	429a      	cmp	r2, r3
 800278e:	d8f7      	bhi.n	8002780 <HAL_Delay+0x28>
 8002790:	bf00      	nop
 8002792:	bf00      	nop
 8002794:	3710      	adds	r7, #16
 8002796:	46bd      	mov	sp, r7
 8002798:	bd80      	pop	{r7, pc}
 800279a:	bf00      	nop
 800279c:	2000001c 	.word	0x2000001c

080027a0 <__NVIC_SetPriorityGrouping>:
 80027a0:	b480      	push	{r7}
 80027a2:	b085      	sub	sp, #20
 80027a4:	af00      	add	r7, sp, #0
 80027a6:	6078      	str	r0, [r7, #4]
 80027a8:	687b      	ldr	r3, [r7, #4]
 80027aa:	f003 0307 	and.w	r3, r3, #7
 80027ae:	60fb      	str	r3, [r7, #12]
 80027b0:	4b0b      	ldr	r3, [pc, #44]	@ (80027e0 <__NVIC_SetPriorityGrouping+0x40>)
 80027b2:	68db      	ldr	r3, [r3, #12]
 80027b4:	60bb      	str	r3, [r7, #8]
 80027b6:	68ba      	ldr	r2, [r7, #8]
 80027b8:	f64f 03ff 	movw	r3, #63743	@ 0xf8ff
 80027bc:	4013      	ands	r3, r2
 80027be:	60bb      	str	r3, [r7, #8]
 80027c0:	68fb      	ldr	r3, [r7, #12]
 80027c2:	021a      	lsls	r2, r3, #8
 80027c4:	68bb      	ldr	r3, [r7, #8]
 80027c6:	431a      	orrs	r2, r3
 80027c8:	4b06      	ldr	r3, [pc, #24]	@ (80027e4 <__NVIC_SetPriorityGrouping+0x44>)
 80027ca:	4313      	orrs	r3, r2
 80027cc:	60bb      	str	r3, [r7, #8]
 80027ce:	4a04      	ldr	r2, [pc, #16]	@ (80027e0 <__NVIC_SetPriorityGrouping+0x40>)
 80027d0:	68bb      	ldr	r3, [r7, #8]
 80027d2:	60d3      	str	r3, [r2, #12]
 80027d4:	bf00      	nop
 80027d6:	3714      	adds	r7, #20
 80027d8:	46bd      	mov	sp, r7
 80027da:	f85d 7b04 	ldr.w	r7, [sp], #4
 80027de:	4770      	bx	lr
 80027e0:	e000ed00 	.word	0xe000ed00
 80027e4:	05fa0000 	.word	0x05fa0000

080027e8 <__NVIC_GetPriorityGrouping>:
 80027e8:	b480      	push	{r7}
 80027ea:	af00      	add	r7, sp, #0
 80027ec:	4b04      	ldr	r3, [pc, #16]	@ (8002800 <__NVIC_GetPriorityGrouping+0x18>)
 80027ee:	68db      	ldr	r3, [r3, #12]
 80027f0:	0a1b      	lsrs	r3, r3, #8
 80027f2:	f003 0307 	and.w	r3, r3, #7
 80027f6:	4618      	mov	r0, r3
 80027f8:	46bd      	mov	sp, r7
 80027fa:	f85d 7b04 	ldr.w	r7, [sp], #4
 80027fe:	4770      	bx	lr
 8002800:	e000ed00 	.word	0xe000ed00

08002804 <__NVIC_EnableIRQ>:
 8002804:	b480      	push	{r7}
 8002806:	b083      	sub	sp, #12
 8002808:	af00      	add	r7, sp, #0
 800280a:	4603      	mov	r3, r0
 800280c:	71fb      	strb	r3, [r7, #7]
 800280e:	f997 3007 	ldrsb.w	r3, [r7, #7]
 8002812:	2b00      	cmp	r3, #0
 8002814:	db0b      	blt.n	800282e <__NVIC_EnableIRQ+0x2a>
 8002816:	79fb      	ldrb	r3, [r7, #7]
 8002818:	f003 021f 	and.w	r2, r3, #31
 800281c:	4907      	ldr	r1, [pc, #28]	@ (800283c <__NVIC_EnableIRQ+0x38>)
 800281e:	f997 3007 	ldrsb.w	r3, [r7, #7]
 8002822:	095b      	lsrs	r3, r3, #5
 8002824:	2001      	movs	r0, #1
 8002826:	fa00 f202 	lsl.w	r2, r0, r2
 800282a:	f841 2023 	str.w	r2, [r1, r3, lsl #2]
 800282e:	bf00      	nop
 8002830:	370c      	adds	r7, #12
 8002832:	46bd      	mov	sp, r7
 8002834:	f85d 7b04 	ldr.w	r7, [sp], #4
 8002838:	4770      	bx	lr
 800283a:	bf00      	nop
 800283c:	e000e100 	.word	0xe000e100

08002840 <__NVIC_SetPriority>:
 8002840:	b480      	push	{r7}
 8002842:	b083      	sub	sp, #12
 8002844:	af00      	add	r7, sp, #0
 8002846:	4603      	mov	r3, r0
 8002848:	6039      	str	r1, [r7, #0]
 800284a:	71fb      	strb	r3, [r7, #7]
 800284c:	f997 3007 	ldrsb.w	r3, [r7, #7]
 8002850:	2b00      	cmp	r3, #0
 8002852:	db0a      	blt.n	800286a <__NVIC_SetPriority+0x2a>
 8002854:	683b      	ldr	r3, [r7, #0]
 8002856:	b2da      	uxtb	r2, r3
 8002858:	490c      	ldr	r1, [pc, #48]	@ (800288c <__NVIC_SetPriority+0x4c>)
 800285a:	f997 3007 	ldrsb.w	r3, [r7, #7]
 800285e:	0112      	lsls	r2, r2, #4
 8002860:	b2d2      	uxtb	r2, r2
 8002862:	440b      	add	r3, r1
 8002864:	f883 2300 	strb.w	r2, [r3, #768]	@ 0x300
 8002868:	e00a      	b.n	8002880 <__NVIC_SetPriority+0x40>
 800286a:	683b      	ldr	r3, [r7, #0]
 800286c:	b2da      	uxtb	r2, r3
 800286e:	4908      	ldr	r1, [pc, #32]	@ (8002890 <__NVIC_SetPriority+0x50>)
 8002870:	79fb      	ldrb	r3, [r7, #7]
 8002872:	f003 030f 	and.w	r3, r3, #15
 8002876:	3b04      	subs	r3, #4
 8002878:	0112      	lsls	r2, r2, #4
 800287a:	b2d2      	uxtb	r2, r2
 800287c:	440b      	add	r3, r1
 800287e:	761a      	strb	r2, [r3, #24]
 8002880:	bf00      	nop
 8002882:	370c      	adds	r7, #12
 8002884:	46bd      	mov	sp, r7
 8002886:	f85d 7b04 	ldr.w	r7, [sp], #4
 800288a:	4770      	bx	lr
 800288c:	e000e100 	.word	0xe000e100
 8002890:	e000ed00 	.word	0xe000ed00

08002894 <NVIC_EncodePriority>:
 8002894:	b480      	push	{r7}
 8002896:	b089      	sub	sp, #36	@ 0x24
 8002898:	af00      	add	r7, sp, #0
 800289a:	60f8      	str	r0, [r7, #12]
 800289c:	60b9      	str	r1, [r7, #8]
 800289e:	607a      	str	r2, [r7, #4]
 80028a0:	68fb      	ldr	r3, [r7, #12]
 80028a2:	f003 0307 	and.w	r3, r3, #7
 80028a6:	61fb      	str	r3, [r7, #28]
 80028a8:	69fb      	ldr	r3, [r7, #28]
 80028aa:	f1c3 0307 	rsb	r3, r3, #7
 80028ae:	2b04      	cmp	r3, #4
 80028b0:	bf28      	it	cs
 80028b2:	2304      	movcs	r3, #4
 80028b4:	61bb      	str	r3, [r7, #24]
 80028b6:	69fb      	ldr	r3, [r7, #28]
 80028b8:	3304      	adds	r3, #4
 80028ba:	2b06      	cmp	r3, #6
 80028bc:	d902      	bls.n	80028c4 <NVIC_EncodePriority+0x30>
 80028be:	69fb      	ldr	r3, [r7, #28]
 80028c0:	3b03      	subs	r3, #3
 80028c2:	e000      	b.n	80028c6 <NVIC_EncodePriority+0x32>
 80028c4:	2300      	movs	r3, #0
 80028c6:	617b      	str	r3, [r7, #20]
 80028c8:	f04f 32ff 	mov.w	r2, #4294967295
 80028cc:	69bb      	ldr	r3, [r7, #24]
 80028ce:	fa02 f303 	lsl.w	r3, r2, r3
 80028d2:	43da      	mvns	r2, r3
 80028d4:	68bb      	ldr	r3, [r7, #8]
 80028d6:	401a      	ands	r2, r3
 80028d8:	697b      	ldr	r3, [r7, #20]
 80028da:	409a      	lsls	r2, r3
 80028dc:	f04f 31ff 	mov.w	r1, #4294967295
 80028e0:	697b      	ldr	r3, [r7, #20]
 80028e2:	fa01 f303 	lsl.w	r3, r1, r3
 80028e6:	43d9      	mvns	r1, r3
 80028e8:	687b      	ldr	r3, [r7, #4]
 80028ea:	400b      	ands	r3, r1
 80028ec:	4313      	orrs	r3, r2
 80028ee:	4618      	mov	r0, r3
 80028f0:	3724      	adds	r7, #36	@ 0x24
 80028f2:	46bd      	mov	sp, r7
 80028f4:	f85d 7b04 	ldr.w	r7, [sp], #4
 80028f8:	4770      	bx	lr
	...

080028fc <SysTick_Config>:
 80028fc:	b580      	push	{r7, lr}
 80028fe:	b082      	sub	sp, #8
 8002900:	af00      	add	r7, sp, #0
 8002902:	6078      	str	r0, [r7, #4]
 8002904:	687b      	ldr	r3, [r7, #4]
 8002906:	3b01      	subs	r3, #1
 8002908:	f1b3 7f80 	cmp.w	r3, #16777216	@ 0x1000000
 800290c:	d301      	bcc.n	8002912 <SysTick_Config+0x16>
 800290e:	2301      	movs	r3, #1
 8002910:	e00f      	b.n	8002932 <SysTick_Config+0x36>
 8002912:	4a0a      	ldr	r2, [pc, #40]	@ (800293c <SysTick_Config+0x40>)
 8002914:	687b      	ldr	r3, [r7, #4]
 8002916:	3b01      	subs	r3, #1
 8002918:	6053      	str	r3, [r2, #4]
 800291a:	210f      	movs	r1, #15
 800291c:	f04f 30ff 	mov.w	r0, #4294967295
 8002920:	f7ff ff8e 	bl	8002840 <__NVIC_SetPriority>
 8002924:	4b05      	ldr	r3, [pc, #20]	@ (800293c <SysTick_Config+0x40>)
 8002926:	2200      	movs	r2, #0
 8002928:	609a      	str	r2, [r3, #8]
 800292a:	4b04      	ldr	r3, [pc, #16]	@ (800293c <SysTick_Config+0x40>)
 800292c:	2207      	movs	r2, #7
 800292e:	601a      	str	r2, [r3, #0]
 8002930:	2300      	movs	r3, #0
 8002932:	4618      	mov	r0, r3
 8002934:	3708      	adds	r7, #8
 8002936:	46bd      	mov	sp, r7
 8002938:	bd80      	pop	{r7, pc}
 800293a:	bf00      	nop
 800293c:	e000e010 	.word	0xe000e010

08002940 <HAL_NVIC_SetPriorityGrouping>:
 8002940:	b580      	push	{r7, lr}
 8002942:	b082      	sub	sp, #8
 8002944:	af00      	add	r7, sp, #0
 8002946:	6078      	str	r0, [r7, #4]
 8002948:	6878      	ldr	r0, [r7, #4]
 800294a:	f7ff ff29 	bl	80027a0 <__NVIC_SetPriorityGrouping>
 800294e:	bf00      	nop
 8002950:	3708      	adds	r7, #8
 8002952:	46bd      	mov	sp, r7
 8002954:	bd80      	pop	{r7, pc}

08002956 <HAL_NVIC_SetPriority>:
 8002956:	b580      	push	{r7, lr}
 8002958:	b086      	sub	sp, #24
 800295a:	af00      	add	r7, sp, #0
 800295c:	4603      	mov	r3, r0
 800295e:	60b9      	str	r1, [r7, #8]
 8002960:	607a      	str	r2, [r7, #4]
 8002962:	73fb      	strb	r3, [r7, #15]
 8002964:	2300      	movs	r3, #0
 8002966:	617b      	str	r3, [r7, #20]
 8002968:	f7ff ff3e 	bl	80027e8 <__NVIC_GetPriorityGrouping>
 800296c:	6178      	str	r0, [r7, #20]
 800296e:	687a      	ldr	r2, [r7, #4]
 8002970:	68b9      	ldr	r1, [r7, #8]
 8002972:	6978      	ldr	r0, [r7, #20]
 8002974:	f7ff ff8e 	bl	8002894 <NVIC_EncodePriority>
 8002978:	4602      	mov	r2, r0
 800297a:	f997 300f 	ldrsb.w	r3, [r7, #15]
 800297e:	4611      	mov	r1, r2
 8002980:	4618      	mov	r0, r3
 8002982:	f7ff ff5d 	bl	8002840 <__NVIC_SetPriority>
 8002986:	bf00      	nop
 8002988:	3718      	adds	r7, #24
 800298a:	46bd      	mov	sp, r7
 800298c:	bd80      	pop	{r7, pc}

0800298e <HAL_NVIC_EnableIRQ>:
 800298e:	b580      	push	{r7, lr}
 8002990:	b082      	sub	sp, #8
 8002992:	af00      	add	r7, sp, #0
 8002994:	4603      	mov	r3, r0
 8002996:	71fb      	strb	r3, [r7, #7]
 8002998:	f997 3007 	ldrsb.w	r3, [r7, #7]
 800299c:	4618      	mov	r0, r3
 800299e:	f7ff ff31 	bl	8002804 <__NVIC_EnableIRQ>
 80029a2:	bf00      	nop
 80029a4:	3708      	adds	r7, #8
 80029a6:	46bd      	mov	sp, r7
 80029a8:	bd80      	pop	{r7, pc}

080029aa <HAL_SYSTICK_Config>:
 80029aa:	b580      	push	{r7, lr}
 80029ac:	b082      	sub	sp, #8
 80029ae:	af00      	add	r7, sp, #0
 80029b0:	6078      	str	r0, [r7, #4]
 80029b2:	6878      	ldr	r0, [r7, #4]
 80029b4:	f7ff ffa2 	bl	80028fc <SysTick_Config>
 80029b8:	4603      	mov	r3, r0
 80029ba:	4618      	mov	r0, r3
 80029bc:	3708      	adds	r7, #8
 80029be:	46bd      	mov	sp, r7
 80029c0:	bd80      	pop	{r7, pc}
	...

080029c4 <HAL_GPIO_Init>:
 80029c4:	b480      	push	{r7}
 80029c6:	b089      	sub	sp, #36	@ 0x24
 80029c8:	af00      	add	r7, sp, #0
 80029ca:	6078      	str	r0, [r7, #4]
 80029cc:	6039      	str	r1, [r7, #0]
 80029ce:	2300      	movs	r3, #0
 80029d0:	61fb      	str	r3, [r7, #28]
 80029d2:	2300      	movs	r3, #0
 80029d4:	617b      	str	r3, [r7, #20]
 80029d6:	2300      	movs	r3, #0
 80029d8:	613b      	str	r3, [r7, #16]
 80029da:	2300      	movs	r3, #0
 80029dc:	61bb      	str	r3, [r7, #24]
 80029de:	2300      	movs	r3, #0
 80029e0:	61fb      	str	r3, [r7, #28]
 80029e2:	e175      	b.n	8002cd0 <HAL_GPIO_Init+0x30c>
 80029e4:	2201      	movs	r2, #1
 80029e6:	69fb      	ldr	r3, [r7, #28]
 80029e8:	fa02 f303 	lsl.w	r3, r2, r3
 80029ec:	617b      	str	r3, [r7, #20]
 80029ee:	683b      	ldr	r3, [r7, #0]
 80029f0:	681b      	ldr	r3, [r3, #0]
 80029f2:	697a      	ldr	r2, [r7, #20]
 80029f4:	4013      	ands	r3, r2
 80029f6:	613b      	str	r3, [r7, #16]
 80029f8:	693a      	ldr	r2, [r7, #16]
 80029fa:	697b      	ldr	r3, [r7, #20]
 80029fc:	429a      	cmp	r2, r3
 80029fe:	f040 8164 	bne.w	8002cca <HAL_GPIO_Init+0x306>
 8002a02:	683b      	ldr	r3, [r7, #0]
 8002a04:	685b      	ldr	r3, [r3, #4]
 8002a06:	f003 0303 	and.w	r3, r3, #3
 8002a0a:	2b01      	cmp	r3, #1
 8002a0c:	d005      	beq.n	8002a1a <HAL_GPIO_Init+0x56>
 8002a0e:	683b      	ldr	r3, [r7, #0]
 8002a10:	685b      	ldr	r3, [r3, #4]
 8002a12:	f003 0303 	and.w	r3, r3, #3
 8002a16:	2b02      	cmp	r3, #2
 8002a18:	d130      	bne.n	8002a7c <HAL_GPIO_Init+0xb8>
 8002a1a:	687b      	ldr	r3, [r7, #4]
 8002a1c:	689b      	ldr	r3, [r3, #8]
 8002a1e:	61bb      	str	r3, [r7, #24]
 8002a20:	69fb      	ldr	r3, [r7, #28]
 8002a22:	005b      	lsls	r3, r3, #1
 8002a24:	2203      	movs	r2, #3
 8002a26:	fa02 f303 	lsl.w	r3, r2, r3
 8002a2a:	43db      	mvns	r3, r3
 8002a2c:	69ba      	ldr	r2, [r7, #24]
 8002a2e:	4013      	ands	r3, r2
 8002a30:	61bb      	str	r3, [r7, #24]
 8002a32:	683b      	ldr	r3, [r7, #0]
 8002a34:	68da      	ldr	r2, [r3, #12]
 8002a36:	69fb      	ldr	r3, [r7, #28]
 8002a38:	005b      	lsls	r3, r3, #1
 8002a3a:	fa02 f303 	lsl.w	r3, r2, r3
 8002a3e:	69ba      	ldr	r2, [r7, #24]
 8002a40:	4313      	orrs	r3, r2
 8002a42:	61bb      	str	r3, [r7, #24]
 8002a44:	687b      	ldr	r3, [r7, #4]
 8002a46:	69ba      	ldr	r2, [r7, #24]
 8002a48:	609a      	str	r2, [r3, #8]
 8002a4a:	687b      	ldr	r3, [r7, #4]
 8002a4c:	685b      	ldr	r3, [r3, #4]
 8002a4e:	61bb      	str	r3, [r7, #24]
 8002a50:	2201      	movs	r2, #1
 8002a52:	69fb      	ldr	r3, [r7, #28]
 8002a54:	fa02 f303 	lsl.w	r3, r2, r3
 8002a58:	43db      	mvns	r3, r3
 8002a5a:	69ba      	ldr	r2, [r7, #24]
 8002a5c:	4013      	ands	r3, r2
 8002a5e:	61bb      	str	r3, [r7, #24]
 8002a60:	683b      	ldr	r3, [r7, #0]
 8002a62:	685b      	ldr	r3, [r3, #4]
 8002a64:	091b      	lsrs	r3, r3, #4
 8002a66:	f003 0201 	and.w	r2, r3, #1
 8002a6a:	69fb      	ldr	r3, [r7, #28]
 8002a6c:	fa02 f303 	lsl.w	r3, r2, r3
 8002a70:	69ba      	ldr	r2, [r7, #24]
 8002a72:	4313      	orrs	r3, r2
 8002a74:	61bb      	str	r3, [r7, #24]
 8002a76:	687b      	ldr	r3, [r7, #4]
 8002a78:	69ba      	ldr	r2, [r7, #24]
 8002a7a:	605a      	str	r2, [r3, #4]
 8002a7c:	683b      	ldr	r3, [r7, #0]
 8002a7e:	685b      	ldr	r3, [r3, #4]
 8002a80:	f003 0303 	and.w	r3, r3, #3
 8002a84:	2b03      	cmp	r3, #3
 8002a86:	d017      	beq.n	8002ab8 <HAL_GPIO_Init+0xf4>
 8002a88:	687b      	ldr	r3, [r7, #4]
 8002a8a:	68db      	ldr	r3, [r3, #12]
 8002a8c:	61bb      	str	r3, [r7, #24]
 8002a8e:	69fb      	ldr	r3, [r7, #28]
 8002a90:	005b      	lsls	r3, r3, #1
 8002a92:	2203      	movs	r2, #3
 8002a94:	fa02 f303 	lsl.w	r3, r2, r3
 8002a98:	43db      	mvns	r3, r3
 8002a9a:	69ba      	ldr	r2, [r7, #24]
 8002a9c:	4013      	ands	r3, r2
 8002a9e:	61bb      	str	r3, [r7, #24]
 8002aa0:	683b      	ldr	r3, [r7, #0]
 8002aa2:	689a      	ldr	r2, [r3, #8]
 8002aa4:	69fb      	ldr	r3, [r7, #28]
 8002aa6:	005b      	lsls	r3, r3, #1
 8002aa8:	fa02 f303 	lsl.w	r3, r2, r3
 8002aac:	69ba      	ldr	r2, [r7, #24]
 8002aae:	4313      	orrs	r3, r2
 8002ab0:	61bb      	str	r3, [r7, #24]
 8002ab2:	687b      	ldr	r3, [r7, #4]
 8002ab4:	69ba      	ldr	r2, [r7, #24]
 8002ab6:	60da      	str	r2, [r3, #12]
 8002ab8:	683b      	ldr	r3, [r7, #0]
 8002aba:	685b      	ldr	r3, [r3, #4]
 8002abc:	f003 0303 	and.w	r3, r3, #3
 8002ac0:	2b02      	cmp	r3, #2
 8002ac2:	d123      	bne.n	8002b0c <HAL_GPIO_Init+0x148>
 8002ac4:	69fb      	ldr	r3, [r7, #28]
 8002ac6:	08da      	lsrs	r2, r3, #3
 8002ac8:	687b      	ldr	r3, [r7, #4]
 8002aca:	3208      	adds	r2, #8
 8002acc:	f853 3022 	ldr.w	r3, [r3, r2, lsl #2]
 8002ad0:	61bb      	str	r3, [r7, #24]
 8002ad2:	69fb      	ldr	r3, [r7, #28]
 8002ad4:	f003 0307 	and.w	r3, r3, #7
 8002ad8:	009b      	lsls	r3, r3, #2
 8002ada:	220f      	movs	r2, #15
 8002adc:	fa02 f303 	lsl.w	r3, r2, r3
 8002ae0:	43db      	mvns	r3, r3
 8002ae2:	69ba      	ldr	r2, [r7, #24]
 8002ae4:	4013      	ands	r3, r2
 8002ae6:	61bb      	str	r3, [r7, #24]
 8002ae8:	683b      	ldr	r3, [r7, #0]
 8002aea:	691a      	ldr	r2, [r3, #16]
 8002aec:	69fb      	ldr	r3, [r7, #28]
 8002aee:	f003 0307 	and.w	r3, r3, #7
 8002af2:	009b      	lsls	r3, r3, #2
 8002af4:	fa02 f303 	lsl.w	r3, r2, r3
 8002af8:	69ba      	ldr	r2, [r7, #24]
 8002afa:	4313      	orrs	r3, r2
 8002afc:	61bb      	str	r3, [r7, #24]
 8002afe:	69fb      	ldr	r3, [r7, #28]
 8002b00:	08da      	lsrs	r2, r3, #3
 8002b02:	687b      	ldr	r3, [r7, #4]
 8002b04:	3208      	adds	r2, #8
 8002b06:	69b9      	ldr	r1, [r7, #24]
 8002b08:	f843 1022 	str.w	r1, [r3, r2, lsl #2]
 8002b0c:	687b      	ldr	r3, [r7, #4]
 8002b0e:	681b      	ldr	r3, [r3, #0]
 8002b10:	61bb      	str	r3, [r7, #24]
 8002b12:	69fb      	ldr	r3, [r7, #28]
 8002b14:	005b      	lsls	r3, r3, #1
 8002b16:	2203      	movs	r2, #3
 8002b18:	fa02 f303 	lsl.w	r3, r2, r3
 8002b1c:	43db      	mvns	r3, r3
 8002b1e:	69ba      	ldr	r2, [r7, #24]
 8002b20:	4013      	ands	r3, r2
 8002b22:	61bb      	str	r3, [r7, #24]
 8002b24:	683b      	ldr	r3, [r7, #0]
 8002b26:	685b      	ldr	r3, [r3, #4]
 8002b28:	f003 0203 	and.w	r2, r3, #3
 8002b2c:	69fb      	ldr	r3, [r7, #28]
 8002b2e:	005b      	lsls	r3, r3, #1
 8002b30:	fa02 f303 	lsl.w	r3, r2, r3
 8002b34:	69ba      	ldr	r2, [r7, #24]
 8002b36:	4313      	orrs	r3, r2
 8002b38:	61bb      	str	r3, [r7, #24]
 8002b3a:	687b      	ldr	r3, [r7, #4]
 8002b3c:	69ba      	ldr	r2, [r7, #24]
 8002b3e:	601a      	str	r2, [r3, #0]
 8002b40:	683b      	ldr	r3, [r7, #0]
 8002b42:	685b      	ldr	r3, [r3, #4]
 8002b44:	f403 3340 	and.w	r3, r3, #196608	@ 0x30000
 8002b48:	2b00      	cmp	r3, #0
 8002b4a:	f000 80be 	beq.w	8002cca <HAL_GPIO_Init+0x306>
 8002b4e:	4b66      	ldr	r3, [pc, #408]	@ (8002ce8 <HAL_GPIO_Init+0x324>)
 8002b50:	6c5b      	ldr	r3, [r3, #68]	@ 0x44
 8002b52:	4a65      	ldr	r2, [pc, #404]	@ (8002ce8 <HAL_GPIO_Init+0x324>)
 8002b54:	f443 4380 	orr.w	r3, r3, #16384	@ 0x4000
 8002b58:	6453      	str	r3, [r2, #68]	@ 0x44
 8002b5a:	4b63      	ldr	r3, [pc, #396]	@ (8002ce8 <HAL_GPIO_Init+0x324>)
 8002b5c:	6c5b      	ldr	r3, [r3, #68]	@ 0x44
 8002b5e:	f403 4380 	and.w	r3, r3, #16384	@ 0x4000
 8002b62:	60fb      	str	r3, [r7, #12]
 8002b64:	68fb      	ldr	r3, [r7, #12]
 8002b66:	4a61      	ldr	r2, [pc, #388]	@ (8002cec <HAL_GPIO_Init+0x328>)
 8002b68:	69fb      	ldr	r3, [r7, #28]
 8002b6a:	089b      	lsrs	r3, r3, #2
 8002b6c:	3302      	adds	r3, #2
 8002b6e:	f852 3023 	ldr.w	r3, [r2, r3, lsl #2]
 8002b72:	61bb      	str	r3, [r7, #24]
 8002b74:	69fb      	ldr	r3, [r7, #28]
 8002b76:	f003 0303 	and.w	r3, r3, #3
 8002b7a:	009b      	lsls	r3, r3, #2
 8002b7c:	220f      	movs	r2, #15
 8002b7e:	fa02 f303 	lsl.w	r3, r2, r3
 8002b82:	43db      	mvns	r3, r3
 8002b84:	69ba      	ldr	r2, [r7, #24]
 8002b86:	4013      	ands	r3, r2
 8002b88:	61bb      	str	r3, [r7, #24]
 8002b8a:	687b      	ldr	r3, [r7, #4]
 8002b8c:	4a58      	ldr	r2, [pc, #352]	@ (8002cf0 <HAL_GPIO_Init+0x32c>)
 8002b8e:	4293      	cmp	r3, r2
 8002b90:	d037      	beq.n	8002c02 <HAL_GPIO_Init+0x23e>
 8002b92:	687b      	ldr	r3, [r7, #4]
 8002b94:	4a57      	ldr	r2, [pc, #348]	@ (8002cf4 <HAL_GPIO_Init+0x330>)
 8002b96:	4293      	cmp	r3, r2
 8002b98:	d031      	beq.n	8002bfe <HAL_GPIO_Init+0x23a>
 8002b9a:	687b      	ldr	r3, [r7, #4]
 8002b9c:	4a56      	ldr	r2, [pc, #344]	@ (8002cf8 <HAL_GPIO_Init+0x334>)
 8002b9e:	4293      	cmp	r3, r2
 8002ba0:	d02b      	beq.n	8002bfa <HAL_GPIO_Init+0x236>
 8002ba2:	687b      	ldr	r3, [r7, #4]
 8002ba4:	4a55      	ldr	r2, [pc, #340]	@ (8002cfc <HAL_GPIO_Init+0x338>)
 8002ba6:	4293      	cmp	r3, r2
 8002ba8:	d025      	beq.n	8002bf6 <HAL_GPIO_Init+0x232>
 8002baa:	687b      	ldr	r3, [r7, #4]
 8002bac:	4a54      	ldr	r2, [pc, #336]	@ (8002d00 <HAL_GPIO_Init+0x33c>)
 8002bae:	4293      	cmp	r3, r2
 8002bb0:	d01f      	beq.n	8002bf2 <HAL_GPIO_Init+0x22e>
 8002bb2:	687b      	ldr	r3, [r7, #4]
 8002bb4:	4a53      	ldr	r2, [pc, #332]	@ (8002d04 <HAL_GPIO_Init+0x340>)
 8002bb6:	4293      	cmp	r3, r2
 8002bb8:	d019      	beq.n	8002bee <HAL_GPIO_Init+0x22a>
 8002bba:	687b      	ldr	r3, [r7, #4]
 8002bbc:	4a52      	ldr	r2, [pc, #328]	@ (8002d08 <HAL_GPIO_Init+0x344>)
 8002bbe:	4293      	cmp	r3, r2
 8002bc0:	d013      	beq.n	8002bea <HAL_GPIO_Init+0x226>
 8002bc2:	687b      	ldr	r3, [r7, #4]
 8002bc4:	4a51      	ldr	r2, [pc, #324]	@ (8002d0c <HAL_GPIO_Init+0x348>)
 8002bc6:	4293      	cmp	r3, r2
 8002bc8:	d00d      	beq.n	8002be6 <HAL_GPIO_Init+0x222>
 8002bca:	687b      	ldr	r3, [r7, #4]
 8002bcc:	4a50      	ldr	r2, [pc, #320]	@ (8002d10 <HAL_GPIO_Init+0x34c>)
 8002bce:	4293      	cmp	r3, r2
 8002bd0:	d007      	beq.n	8002be2 <HAL_GPIO_Init+0x21e>
 8002bd2:	687b      	ldr	r3, [r7, #4]
 8002bd4:	4a4f      	ldr	r2, [pc, #316]	@ (8002d14 <HAL_GPIO_Init+0x350>)
 8002bd6:	4293      	cmp	r3, r2
 8002bd8:	d101      	bne.n	8002bde <HAL_GPIO_Init+0x21a>
 8002bda:	2309      	movs	r3, #9
 8002bdc:	e012      	b.n	8002c04 <HAL_GPIO_Init+0x240>
 8002bde:	230a      	movs	r3, #10
 8002be0:	e010      	b.n	8002c04 <HAL_GPIO_Init+0x240>
 8002be2:	2308      	movs	r3, #8
 8002be4:	e00e      	b.n	8002c04 <HAL_GPIO_Init+0x240>
 8002be6:	2307      	movs	r3, #7
 8002be8:	e00c      	b.n	8002c04 <HAL_GPIO_Init+0x240>
 8002bea:	2306      	movs	r3, #6
 8002bec:	e00a      	b.n	8002c04 <HAL_GPIO_Init+0x240>
 8002bee:	2305      	movs	r3, #5
 8002bf0:	e008      	b.n	8002c04 <HAL_GPIO_Init+0x240>
 8002bf2:	2304      	movs	r3, #4
 8002bf4:	e006      	b.n	8002c04 <HAL_GPIO_Init+0x240>
 8002bf6:	2303      	movs	r3, #3
 8002bf8:	e004      	b.n	8002c04 <HAL_GPIO_Init+0x240>
 8002bfa:	2302      	movs	r3, #2
 8002bfc:	e002      	b.n	8002c04 <HAL_GPIO_Init+0x240>
 8002bfe:	2301      	movs	r3, #1
 8002c00:	e000      	b.n	8002c04 <HAL_GPIO_Init+0x240>
 8002c02:	2300      	movs	r3, #0
 8002c04:	69fa      	ldr	r2, [r7, #28]
 8002c06:	f002 0203 	and.w	r2, r2, #3
 8002c0a:	0092      	lsls	r2, r2, #2
 8002c0c:	4093      	lsls	r3, r2
 8002c0e:	69ba      	ldr	r2, [r7, #24]
 8002c10:	4313      	orrs	r3, r2
 8002c12:	61bb      	str	r3, [r7, #24]
 8002c14:	4935      	ldr	r1, [pc, #212]	@ (8002cec <HAL_GPIO_Init+0x328>)
 8002c16:	69fb      	ldr	r3, [r7, #28]
 8002c18:	089b      	lsrs	r3, r3, #2
 8002c1a:	3302      	adds	r3, #2
 8002c1c:	69ba      	ldr	r2, [r7, #24]
 8002c1e:	f841 2023 	str.w	r2, [r1, r3, lsl #2]
 8002c22:	4b3d      	ldr	r3, [pc, #244]	@ (8002d18 <HAL_GPIO_Init+0x354>)
 8002c24:	689b      	ldr	r3, [r3, #8]
 8002c26:	61bb      	str	r3, [r7, #24]
 8002c28:	693b      	ldr	r3, [r7, #16]
 8002c2a:	43db      	mvns	r3, r3
 8002c2c:	69ba      	ldr	r2, [r7, #24]
 8002c2e:	4013      	ands	r3, r2
 8002c30:	61bb      	str	r3, [r7, #24]
 8002c32:	683b      	ldr	r3, [r7, #0]
 8002c34:	685b      	ldr	r3, [r3, #4]
 8002c36:	f403 1380 	and.w	r3, r3, #1048576	@ 0x100000
 8002c3a:	2b00      	cmp	r3, #0
 8002c3c:	d003      	beq.n	8002c46 <HAL_GPIO_Init+0x282>
 8002c3e:	69ba      	ldr	r2, [r7, #24]
 8002c40:	693b      	ldr	r3, [r7, #16]
 8002c42:	4313      	orrs	r3, r2
 8002c44:	61bb      	str	r3, [r7, #24]
 8002c46:	4a34      	ldr	r2, [pc, #208]	@ (8002d18 <HAL_GPIO_Init+0x354>)
 8002c48:	69bb      	ldr	r3, [r7, #24]
 8002c4a:	6093      	str	r3, [r2, #8]
 8002c4c:	4b32      	ldr	r3, [pc, #200]	@ (8002d18 <HAL_GPIO_Init+0x354>)
 8002c4e:	68db      	ldr	r3, [r3, #12]
 8002c50:	61bb      	str	r3, [r7, #24]
 8002c52:	693b      	ldr	r3, [r7, #16]
 8002c54:	43db      	mvns	r3, r3
 8002c56:	69ba      	ldr	r2, [r7, #24]
 8002c58:	4013      	ands	r3, r2
 8002c5a:	61bb      	str	r3, [r7, #24]
 8002c5c:	683b      	ldr	r3, [r7, #0]
 8002c5e:	685b      	ldr	r3, [r3, #4]
 8002c60:	f403 1300 	and.w	r3, r3, #2097152	@ 0x200000
 8002c64:	2b00      	cmp	r3, #0
 8002c66:	d003      	beq.n	8002c70 <HAL_GPIO_Init+0x2ac>
 8002c68:	69ba      	ldr	r2, [r7, #24]
 8002c6a:	693b      	ldr	r3, [r7, #16]
 8002c6c:	4313      	orrs	r3, r2
 8002c6e:	61bb      	str	r3, [r7, #24]
 8002c70:	4a29      	ldr	r2, [pc, #164]	@ (8002d18 <HAL_GPIO_Init+0x354>)
 8002c72:	69bb      	ldr	r3, [r7, #24]
 8002c74:	60d3      	str	r3, [r2, #12]
 8002c76:	4b28      	ldr	r3, [pc, #160]	@ (8002d18 <HAL_GPIO_Init+0x354>)
 8002c78:	685b      	ldr	r3, [r3, #4]
 8002c7a:	61bb      	str	r3, [r7, #24]
 8002c7c:	693b      	ldr	r3, [r7, #16]
 8002c7e:	43db      	mvns	r3, r3
 8002c80:	69ba      	ldr	r2, [r7, #24]
 8002c82:	4013      	ands	r3, r2
 8002c84:	61bb      	str	r3, [r7, #24]
 8002c86:	683b      	ldr	r3, [r7, #0]
 8002c88:	685b      	ldr	r3, [r3, #4]
 8002c8a:	f403 3300 	and.w	r3, r3, #131072	@ 0x20000
 8002c8e:	2b00      	cmp	r3, #0
 8002c90:	d003      	beq.n	8002c9a <HAL_GPIO_Init+0x2d6>
 8002c92:	69ba      	ldr	r2, [r7, #24]
 8002c94:	693b      	ldr	r3, [r7, #16]
 8002c96:	4313      	orrs	r3, r2
 8002c98:	61bb      	str	r3, [r7, #24]
 8002c9a:	4a1f      	ldr	r2, [pc, #124]	@ (8002d18 <HAL_GPIO_Init+0x354>)
 8002c9c:	69bb      	ldr	r3, [r7, #24]
 8002c9e:	6053      	str	r3, [r2, #4]
 8002ca0:	4b1d      	ldr	r3, [pc, #116]	@ (8002d18 <HAL_GPIO_Init+0x354>)
 8002ca2:	681b      	ldr	r3, [r3, #0]
 8002ca4:	61bb      	str	r3, [r7, #24]
 8002ca6:	693b      	ldr	r3, [r7, #16]
 8002ca8:	43db      	mvns	r3, r3
 8002caa:	69ba      	ldr	r2, [r7, #24]
 8002cac:	4013      	ands	r3, r2
 8002cae:	61bb      	str	r3, [r7, #24]
 8002cb0:	683b      	ldr	r3, [r7, #0]
 8002cb2:	685b      	ldr	r3, [r3, #4]
 8002cb4:	f403 3380 	and.w	r3, r3, #65536	@ 0x10000
 8002cb8:	2b00      	cmp	r3, #0
 8002cba:	d003      	beq.n	8002cc4 <HAL_GPIO_Init+0x300>
 8002cbc:	69ba      	ldr	r2, [r7, #24]
 8002cbe:	693b      	ldr	r3, [r7, #16]
 8002cc0:	4313      	orrs	r3, r2
 8002cc2:	61bb      	str	r3, [r7, #24]
 8002cc4:	4a14      	ldr	r2, [pc, #80]	@ (8002d18 <HAL_GPIO_Init+0x354>)
 8002cc6:	69bb      	ldr	r3, [r7, #24]
 8002cc8:	6013      	str	r3, [r2, #0]
 8002cca:	69fb      	ldr	r3, [r7, #28]
 8002ccc:	3301      	adds	r3, #1
 8002cce:	61fb      	str	r3, [r7, #28]
 8002cd0:	69fb      	ldr	r3, [r7, #28]
 8002cd2:	2b0f      	cmp	r3, #15
 8002cd4:	f67f ae86 	bls.w	80029e4 <HAL_GPIO_Init+0x20>
 8002cd8:	bf00      	nop
 8002cda:	bf00      	nop
 8002cdc:	3724      	adds	r7, #36	@ 0x24
 8002cde:	46bd      	mov	sp, r7
 8002ce0:	f85d 7b04 	ldr.w	r7, [sp], #4
 8002ce4:	4770      	bx	lr
 8002ce6:	bf00      	nop
 8002ce8:	40023800 	.word	0x40023800
 8002cec:	40013800 	.word	0x40013800
 8002cf0:	40020000 	.word	0x40020000
 8002cf4:	40020400 	.word	0x40020400
 8002cf8:	40020800 	.word	0x40020800
 8002cfc:	40020c00 	.word	0x40020c00
 8002d00:	40021000 	.word	0x40021000
 8002d04:	40021400 	.word	0x40021400
 8002d08:	40021800 	.word	0x40021800
 8002d0c:	40021c00 	.word	0x40021c00
 8002d10:	40022000 	.word	0x40022000
 8002d14:	40022400 	.word	0x40022400
 8002d18:	40013c00 	.word	0x40013c00

08002d1c <HAL_GPIO_ReadPin>:
 8002d1c:	b480      	push	{r7}
 8002d1e:	b085      	sub	sp, #20
 8002d20:	af00      	add	r7, sp, #0
 8002d22:	6078      	str	r0, [r7, #4]
 8002d24:	460b      	mov	r3, r1
 8002d26:	807b      	strh	r3, [r7, #2]
 8002d28:	687b      	ldr	r3, [r7, #4]
 8002d2a:	691a      	ldr	r2, [r3, #16]
 8002d2c:	887b      	ldrh	r3, [r7, #2]
 8002d2e:	4013      	ands	r3, r2
 8002d30:	2b00      	cmp	r3, #0
 8002d32:	d002      	beq.n	8002d3a <HAL_GPIO_ReadPin+0x1e>
 8002d34:	2301      	movs	r3, #1
 8002d36:	73fb      	strb	r3, [r7, #15]
 8002d38:	e001      	b.n	8002d3e <HAL_GPIO_ReadPin+0x22>
 8002d3a:	2300      	movs	r3, #0
 8002d3c:	73fb      	strb	r3, [r7, #15]
 8002d3e:	7bfb      	ldrb	r3, [r7, #15]
 8002d40:	4618      	mov	r0, r3
 8002d42:	3714      	adds	r7, #20
 8002d44:	46bd      	mov	sp, r7
 8002d46:	f85d 7b04 	ldr.w	r7, [sp], #4
 8002d4a:	4770      	bx	lr

08002d4c <HAL_GPIO_WritePin>:
 8002d4c:	b480      	push	{r7}
 8002d4e:	b083      	sub	sp, #12
 8002d50:	af00      	add	r7, sp, #0
 8002d52:	6078      	str	r0, [r7, #4]
 8002d54:	460b      	mov	r3, r1
 8002d56:	807b      	strh	r3, [r7, #2]
 8002d58:	4613      	mov	r3, r2
 8002d5a:	707b      	strb	r3, [r7, #1]
 8002d5c:	787b      	ldrb	r3, [r7, #1]
 8002d5e:	2b00      	cmp	r3, #0
 8002d60:	d003      	beq.n	8002d6a <HAL_GPIO_WritePin+0x1e>
 8002d62:	887a      	ldrh	r2, [r7, #2]
 8002d64:	687b      	ldr	r3, [r7, #4]
 8002d66:	619a      	str	r2, [r3, #24]
 8002d68:	e003      	b.n	8002d72 <HAL_GPIO_WritePin+0x26>
 8002d6a:	887b      	ldrh	r3, [r7, #2]
 8002d6c:	041a      	lsls	r2, r3, #16
 8002d6e:	687b      	ldr	r3, [r7, #4]
 8002d70:	619a      	str	r2, [r3, #24]
 8002d72:	bf00      	nop
 8002d74:	370c      	adds	r7, #12
 8002d76:	46bd      	mov	sp, r7
 8002d78:	f85d 7b04 	ldr.w	r7, [sp], #4
 8002d7c:	4770      	bx	lr
	...

08002d80 <HAL_GPIO_EXTI_IRQHandler>:
 8002d80:	b580      	push	{r7, lr}
 8002d82:	b082      	sub	sp, #8
 8002d84:	af00      	add	r7, sp, #0
 8002d86:	4603      	mov	r3, r0
 8002d88:	80fb      	strh	r3, [r7, #6]
 8002d8a:	4b08      	ldr	r3, [pc, #32]	@ (8002dac <HAL_GPIO_EXTI_IRQHandler+0x2c>)
 8002d8c:	695a      	ldr	r2, [r3, #20]
 8002d8e:	88fb      	ldrh	r3, [r7, #6]
 8002d90:	4013      	ands	r3, r2
 8002d92:	2b00      	cmp	r3, #0
 8002d94:	d006      	beq.n	8002da4 <HAL_GPIO_EXTI_IRQHandler+0x24>
 8002d96:	4a05      	ldr	r2, [pc, #20]	@ (8002dac <HAL_GPIO_EXTI_IRQHandler+0x2c>)
 8002d98:	88fb      	ldrh	r3, [r7, #6]
 8002d9a:	6153      	str	r3, [r2, #20]
 8002d9c:	88fb      	ldrh	r3, [r7, #6]
 8002d9e:	4618      	mov	r0, r3
 8002da0:	f7ff f86e 	bl	8001e80 <HAL_GPIO_EXTI_Callback>
 8002da4:	bf00      	nop
 8002da6:	3708      	adds	r7, #8
 8002da8:	46bd      	mov	sp, r7
 8002daa:	bd80      	pop	{r7, pc}
 8002dac:	40013c00 	.word	0x40013c00

08002db0 <HAL_PWR_EnableBkUpAccess>:
 8002db0:	b480      	push	{r7}
 8002db2:	af00      	add	r7, sp, #0
 8002db4:	4b05      	ldr	r3, [pc, #20]	@ (8002dcc <HAL_PWR_EnableBkUpAccess+0x1c>)
 8002db6:	681b      	ldr	r3, [r3, #0]
 8002db8:	4a04      	ldr	r2, [pc, #16]	@ (8002dcc <HAL_PWR_EnableBkUpAccess+0x1c>)
 8002dba:	f443 7380 	orr.w	r3, r3, #256	@ 0x100
 8002dbe:	6013      	str	r3, [r2, #0]
 8002dc0:	bf00      	nop
 8002dc2:	46bd      	mov	sp, r7
 8002dc4:	f85d 7b04 	ldr.w	r7, [sp], #4
 8002dc8:	4770      	bx	lr
 8002dca:	bf00      	nop
 8002dcc:	40007000 	.word	0x40007000

08002dd0 <HAL_PWREx_EnableOverDrive>:
 8002dd0:	b580      	push	{r7, lr}
 8002dd2:	b082      	sub	sp, #8
 8002dd4:	af00      	add	r7, sp, #0
 8002dd6:	2300      	movs	r3, #0
 8002dd8:	607b      	str	r3, [r7, #4]
 8002dda:	4b23      	ldr	r3, [pc, #140]	@ (8002e68 <HAL_PWREx_EnableOverDrive+0x98>)
 8002ddc:	6c1b      	ldr	r3, [r3, #64]	@ 0x40
 8002dde:	4a22      	ldr	r2, [pc, #136]	@ (8002e68 <HAL_PWREx_EnableOverDrive+0x98>)
 8002de0:	f043 5380 	orr.w	r3, r3, #268435456	@ 0x10000000
 8002de4:	6413      	str	r3, [r2, #64]	@ 0x40
 8002de6:	4b20      	ldr	r3, [pc, #128]	@ (8002e68 <HAL_PWREx_EnableOverDrive+0x98>)
 8002de8:	6c1b      	ldr	r3, [r3, #64]	@ 0x40
 8002dea:	f003 5380 	and.w	r3, r3, #268435456	@ 0x10000000
 8002dee:	603b      	str	r3, [r7, #0]
 8002df0:	683b      	ldr	r3, [r7, #0]
 8002df2:	4b1e      	ldr	r3, [pc, #120]	@ (8002e6c <HAL_PWREx_EnableOverDrive+0x9c>)
 8002df4:	681b      	ldr	r3, [r3, #0]
 8002df6:	4a1d      	ldr	r2, [pc, #116]	@ (8002e6c <HAL_PWREx_EnableOverDrive+0x9c>)
 8002df8:	f443 3380 	orr.w	r3, r3, #65536	@ 0x10000
 8002dfc:	6013      	str	r3, [r2, #0]
 8002dfe:	f7ff fc9f 	bl	8002740 <HAL_GetTick>
 8002e02:	6078      	str	r0, [r7, #4]
 8002e04:	e009      	b.n	8002e1a <HAL_PWREx_EnableOverDrive+0x4a>
 8002e06:	f7ff fc9b 	bl	8002740 <HAL_GetTick>
 8002e0a:	4602      	mov	r2, r0
 8002e0c:	687b      	ldr	r3, [r7, #4]
 8002e0e:	1ad3      	subs	r3, r2, r3
 8002e10:	f5b3 7f7a 	cmp.w	r3, #1000	@ 0x3e8
 8002e14:	d901      	bls.n	8002e1a <HAL_PWREx_EnableOverDrive+0x4a>
 8002e16:	2303      	movs	r3, #3
 8002e18:	e022      	b.n	8002e60 <HAL_PWREx_EnableOverDrive+0x90>
 8002e1a:	4b14      	ldr	r3, [pc, #80]	@ (8002e6c <HAL_PWREx_EnableOverDrive+0x9c>)
 8002e1c:	685b      	ldr	r3, [r3, #4]
 8002e1e:	f403 3380 	and.w	r3, r3, #65536	@ 0x10000
 8002e22:	f5b3 3f80 	cmp.w	r3, #65536	@ 0x10000
 8002e26:	d1ee      	bne.n	8002e06 <HAL_PWREx_EnableOverDrive+0x36>
 8002e28:	4b10      	ldr	r3, [pc, #64]	@ (8002e6c <HAL_PWREx_EnableOverDrive+0x9c>)
 8002e2a:	681b      	ldr	r3, [r3, #0]
 8002e2c:	4a0f      	ldr	r2, [pc, #60]	@ (8002e6c <HAL_PWREx_EnableOverDrive+0x9c>)
 8002e2e:	f443 3300 	orr.w	r3, r3, #131072	@ 0x20000
 8002e32:	6013      	str	r3, [r2, #0]
 8002e34:	f7ff fc84 	bl	8002740 <HAL_GetTick>
 8002e38:	6078      	str	r0, [r7, #4]
 8002e3a:	e009      	b.n	8002e50 <HAL_PWREx_EnableOverDrive+0x80>
 8002e3c:	f7ff fc80 	bl	8002740 <HAL_GetTick>
 8002e40:	4602      	mov	r2, r0
 8002e42:	687b      	ldr	r3, [r7, #4]
 8002e44:	1ad3      	subs	r3, r2, r3
 8002e46:	f5b3 7f7a 	cmp.w	r3, #1000	@ 0x3e8
 8002e4a:	d901      	bls.n	8002e50 <HAL_PWREx_EnableOverDrive+0x80>
 8002e4c:	2303      	movs	r3, #3
 8002e4e:	e007      	b.n	8002e60 <HAL_PWREx_EnableOverDrive+0x90>
 8002e50:	4b06      	ldr	r3, [pc, #24]	@ (8002e6c <HAL_PWREx_EnableOverDrive+0x9c>)
 8002e52:	685b      	ldr	r3, [r3, #4]
 8002e54:	f403 3300 	and.w	r3, r3, #131072	@ 0x20000
 8002e58:	f5b3 3f00 	cmp.w	r3, #131072	@ 0x20000
 8002e5c:	d1ee      	bne.n	8002e3c <HAL_PWREx_EnableOverDrive+0x6c>
 8002e5e:	2300      	movs	r3, #0
 8002e60:	4618      	mov	r0, r3
 8002e62:	3708      	adds	r7, #8
 8002e64:	46bd      	mov	sp, r7
 8002e66:	bd80      	pop	{r7, pc}
 8002e68:	40023800 	.word	0x40023800
 8002e6c:	40007000 	.word	0x40007000

08002e70 <HAL_RCC_OscConfig>:
 8002e70:	b580      	push	{r7, lr}
 8002e72:	b086      	sub	sp, #24
 8002e74:	af00      	add	r7, sp, #0
 8002e76:	6078      	str	r0, [r7, #4]
 8002e78:	2300      	movs	r3, #0
 8002e7a:	75fb      	strb	r3, [r7, #23]
 8002e7c:	687b      	ldr	r3, [r7, #4]
 8002e7e:	2b00      	cmp	r3, #0
 8002e80:	d101      	bne.n	8002e86 <HAL_RCC_OscConfig+0x16>
 8002e82:	2301      	movs	r3, #1
 8002e84:	e29b      	b.n	80033be <HAL_RCC_OscConfig+0x54e>
 8002e86:	687b      	ldr	r3, [r7, #4]
 8002e88:	681b      	ldr	r3, [r3, #0]
 8002e8a:	f003 0301 	and.w	r3, r3, #1
 8002e8e:	2b00      	cmp	r3, #0
 8002e90:	f000 8087 	beq.w	8002fa2 <HAL_RCC_OscConfig+0x132>
 8002e94:	4b96      	ldr	r3, [pc, #600]	@ (80030f0 <HAL_RCC_OscConfig+0x280>)
 8002e96:	689b      	ldr	r3, [r3, #8]
 8002e98:	f003 030c 	and.w	r3, r3, #12
 8002e9c:	2b04      	cmp	r3, #4
 8002e9e:	d00c      	beq.n	8002eba <HAL_RCC_OscConfig+0x4a>
 8002ea0:	4b93      	ldr	r3, [pc, #588]	@ (80030f0 <HAL_RCC_OscConfig+0x280>)
 8002ea2:	689b      	ldr	r3, [r3, #8]
 8002ea4:	f003 030c 	and.w	r3, r3, #12
 8002ea8:	2b08      	cmp	r3, #8
 8002eaa:	d112      	bne.n	8002ed2 <HAL_RCC_OscConfig+0x62>
 8002eac:	4b90      	ldr	r3, [pc, #576]	@ (80030f0 <HAL_RCC_OscConfig+0x280>)
 8002eae:	685b      	ldr	r3, [r3, #4]
 8002eb0:	f403 0380 	and.w	r3, r3, #4194304	@ 0x400000
 8002eb4:	f5b3 0f80 	cmp.w	r3, #4194304	@ 0x400000
 8002eb8:	d10b      	bne.n	8002ed2 <HAL_RCC_OscConfig+0x62>
 8002eba:	4b8d      	ldr	r3, [pc, #564]	@ (80030f0 <HAL_RCC_OscConfig+0x280>)
 8002ebc:	681b      	ldr	r3, [r3, #0]
 8002ebe:	f403 3300 	and.w	r3, r3, #131072	@ 0x20000
 8002ec2:	2b00      	cmp	r3, #0
 8002ec4:	d06c      	beq.n	8002fa0 <HAL_RCC_OscConfig+0x130>
 8002ec6:	687b      	ldr	r3, [r7, #4]
 8002ec8:	685b      	ldr	r3, [r3, #4]
 8002eca:	2b00      	cmp	r3, #0
 8002ecc:	d168      	bne.n	8002fa0 <HAL_RCC_OscConfig+0x130>
 8002ece:	2301      	movs	r3, #1
 8002ed0:	e275      	b.n	80033be <HAL_RCC_OscConfig+0x54e>
 8002ed2:	687b      	ldr	r3, [r7, #4]
 8002ed4:	685b      	ldr	r3, [r3, #4]
 8002ed6:	f5b3 3f80 	cmp.w	r3, #65536	@ 0x10000
 8002eda:	d106      	bne.n	8002eea <HAL_RCC_OscConfig+0x7a>
 8002edc:	4b84      	ldr	r3, [pc, #528]	@ (80030f0 <HAL_RCC_OscConfig+0x280>)
 8002ede:	681b      	ldr	r3, [r3, #0]
 8002ee0:	4a83      	ldr	r2, [pc, #524]	@ (80030f0 <HAL_RCC_OscConfig+0x280>)
 8002ee2:	f443 3380 	orr.w	r3, r3, #65536	@ 0x10000
 8002ee6:	6013      	str	r3, [r2, #0]
 8002ee8:	e02e      	b.n	8002f48 <HAL_RCC_OscConfig+0xd8>
 8002eea:	687b      	ldr	r3, [r7, #4]
 8002eec:	685b      	ldr	r3, [r3, #4]
 8002eee:	2b00      	cmp	r3, #0
 8002ef0:	d10c      	bne.n	8002f0c <HAL_RCC_OscConfig+0x9c>
 8002ef2:	4b7f      	ldr	r3, [pc, #508]	@ (80030f0 <HAL_RCC_OscConfig+0x280>)
 8002ef4:	681b      	ldr	r3, [r3, #0]
 8002ef6:	4a7e      	ldr	r2, [pc, #504]	@ (80030f0 <HAL_RCC_OscConfig+0x280>)
 8002ef8:	f423 3380 	bic.w	r3, r3, #65536	@ 0x10000
 8002efc:	6013      	str	r3, [r2, #0]
 8002efe:	4b7c      	ldr	r3, [pc, #496]	@ (80030f0 <HAL_RCC_OscConfig+0x280>)
 8002f00:	681b      	ldr	r3, [r3, #0]
 8002f02:	4a7b      	ldr	r2, [pc, #492]	@ (80030f0 <HAL_RCC_OscConfig+0x280>)
 8002f04:	f423 2380 	bic.w	r3, r3, #262144	@ 0x40000
 8002f08:	6013      	str	r3, [r2, #0]
 8002f0a:	e01d      	b.n	8002f48 <HAL_RCC_OscConfig+0xd8>
 8002f0c:	687b      	ldr	r3, [r7, #4]
 8002f0e:	685b      	ldr	r3, [r3, #4]
 8002f10:	f5b3 2fa0 	cmp.w	r3, #327680	@ 0x50000
 8002f14:	d10c      	bne.n	8002f30 <HAL_RCC_OscConfig+0xc0>
 8002f16:	4b76      	ldr	r3, [pc, #472]	@ (80030f0 <HAL_RCC_OscConfig+0x280>)
 8002f18:	681b      	ldr	r3, [r3, #0]
 8002f1a:	4a75      	ldr	r2, [pc, #468]	@ (80030f0 <HAL_RCC_OscConfig+0x280>)
 8002f1c:	f443 2380 	orr.w	r3, r3, #262144	@ 0x40000
 8002f20:	6013      	str	r3, [r2, #0]
 8002f22:	4b73      	ldr	r3, [pc, #460]	@ (80030f0 <HAL_RCC_OscConfig+0x280>)
 8002f24:	681b      	ldr	r3, [r3, #0]
 8002f26:	4a72      	ldr	r2, [pc, #456]	@ (80030f0 <HAL_RCC_OscConfig+0x280>)
 8002f28:	f443 3380 	orr.w	r3, r3, #65536	@ 0x10000
 8002f2c:	6013      	str	r3, [r2, #0]
 8002f2e:	e00b      	b.n	8002f48 <HAL_RCC_OscConfig+0xd8>
 8002f30:	4b6f      	ldr	r3, [pc, #444]	@ (80030f0 <HAL_RCC_OscConfig+0x280>)
 8002f32:	681b      	ldr	r3, [r3, #0]
 8002f34:	4a6e      	ldr	r2, [pc, #440]	@ (80030f0 <HAL_RCC_OscConfig+0x280>)
 8002f36:	f423 3380 	bic.w	r3, r3, #65536	@ 0x10000
 8002f3a:	6013      	str	r3, [r2, #0]
 8002f3c:	4b6c      	ldr	r3, [pc, #432]	@ (80030f0 <HAL_RCC_OscConfig+0x280>)
 8002f3e:	681b      	ldr	r3, [r3, #0]
 8002f40:	4a6b      	ldr	r2, [pc, #428]	@ (80030f0 <HAL_RCC_OscConfig+0x280>)
 8002f42:	f423 2380 	bic.w	r3, r3, #262144	@ 0x40000
 8002f46:	6013      	str	r3, [r2, #0]
 8002f48:	687b      	ldr	r3, [r7, #4]
 8002f4a:	685b      	ldr	r3, [r3, #4]
 8002f4c:	2b00      	cmp	r3, #0
 8002f4e:	d013      	beq.n	8002f78 <HAL_RCC_OscConfig+0x108>
 8002f50:	f7ff fbf6 	bl	8002740 <HAL_GetTick>
 8002f54:	6138      	str	r0, [r7, #16]
 8002f56:	e008      	b.n	8002f6a <HAL_RCC_OscConfig+0xfa>
 8002f58:	f7ff fbf2 	bl	8002740 <HAL_GetTick>
 8002f5c:	4602      	mov	r2, r0
 8002f5e:	693b      	ldr	r3, [r7, #16]
 8002f60:	1ad3      	subs	r3, r2, r3
 8002f62:	2b64      	cmp	r3, #100	@ 0x64
 8002f64:	d901      	bls.n	8002f6a <HAL_RCC_OscConfig+0xfa>
 8002f66:	2303      	movs	r3, #3
 8002f68:	e229      	b.n	80033be <HAL_RCC_OscConfig+0x54e>
 8002f6a:	4b61      	ldr	r3, [pc, #388]	@ (80030f0 <HAL_RCC_OscConfig+0x280>)
 8002f6c:	681b      	ldr	r3, [r3, #0]
 8002f6e:	f403 3300 	and.w	r3, r3, #131072	@ 0x20000
 8002f72:	2b00      	cmp	r3, #0
 8002f74:	d0f0      	beq.n	8002f58 <HAL_RCC_OscConfig+0xe8>
 8002f76:	e014      	b.n	8002fa2 <HAL_RCC_OscConfig+0x132>
 8002f78:	f7ff fbe2 	bl	8002740 <HAL_GetTick>
 8002f7c:	6138      	str	r0, [r7, #16]
 8002f7e:	e008      	b.n	8002f92 <HAL_RCC_OscConfig+0x122>
 8002f80:	f7ff fbde 	bl	8002740 <HAL_GetTick>
 8002f84:	4602      	mov	r2, r0
 8002f86:	693b      	ldr	r3, [r7, #16]
 8002f88:	1ad3      	subs	r3, r2, r3
 8002f8a:	2b64      	cmp	r3, #100	@ 0x64
 8002f8c:	d901      	bls.n	8002f92 <HAL_RCC_OscConfig+0x122>
 8002f8e:	2303      	movs	r3, #3
 8002f90:	e215      	b.n	80033be <HAL_RCC_OscConfig+0x54e>
 8002f92:	4b57      	ldr	r3, [pc, #348]	@ (80030f0 <HAL_RCC_OscConfig+0x280>)
 8002f94:	681b      	ldr	r3, [r3, #0]
 8002f96:	f403 3300 	and.w	r3, r3, #131072	@ 0x20000
 8002f9a:	2b00      	cmp	r3, #0
 8002f9c:	d1f0      	bne.n	8002f80 <HAL_RCC_OscConfig+0x110>
 8002f9e:	e000      	b.n	8002fa2 <HAL_RCC_OscConfig+0x132>
 8002fa0:	bf00      	nop
 8002fa2:	687b      	ldr	r3, [r7, #4]
 8002fa4:	681b      	ldr	r3, [r3, #0]
 8002fa6:	f003 0302 	and.w	r3, r3, #2
 8002faa:	2b00      	cmp	r3, #0
 8002fac:	d069      	beq.n	8003082 <HAL_RCC_OscConfig+0x212>
 8002fae:	4b50      	ldr	r3, [pc, #320]	@ (80030f0 <HAL_RCC_OscConfig+0x280>)
 8002fb0:	689b      	ldr	r3, [r3, #8]
 8002fb2:	f003 030c 	and.w	r3, r3, #12
 8002fb6:	2b00      	cmp	r3, #0
 8002fb8:	d00b      	beq.n	8002fd2 <HAL_RCC_OscConfig+0x162>
 8002fba:	4b4d      	ldr	r3, [pc, #308]	@ (80030f0 <HAL_RCC_OscConfig+0x280>)
 8002fbc:	689b      	ldr	r3, [r3, #8]
 8002fbe:	f003 030c 	and.w	r3, r3, #12
 8002fc2:	2b08      	cmp	r3, #8
 8002fc4:	d11c      	bne.n	8003000 <HAL_RCC_OscConfig+0x190>
 8002fc6:	4b4a      	ldr	r3, [pc, #296]	@ (80030f0 <HAL_RCC_OscConfig+0x280>)
 8002fc8:	685b      	ldr	r3, [r3, #4]
 8002fca:	f403 0380 	and.w	r3, r3, #4194304	@ 0x400000
 8002fce:	2b00      	cmp	r3, #0
 8002fd0:	d116      	bne.n	8003000 <HAL_RCC_OscConfig+0x190>
 8002fd2:	4b47      	ldr	r3, [pc, #284]	@ (80030f0 <HAL_RCC_OscConfig+0x280>)
 8002fd4:	681b      	ldr	r3, [r3, #0]
 8002fd6:	f003 0302 	and.w	r3, r3, #2
 8002fda:	2b00      	cmp	r3, #0
 8002fdc:	d005      	beq.n	8002fea <HAL_RCC_OscConfig+0x17a>
 8002fde:	687b      	ldr	r3, [r7, #4]
 8002fe0:	68db      	ldr	r3, [r3, #12]
 8002fe2:	2b01      	cmp	r3, #1
 8002fe4:	d001      	beq.n	8002fea <HAL_RCC_OscConfig+0x17a>
 8002fe6:	2301      	movs	r3, #1
 8002fe8:	e1e9      	b.n	80033be <HAL_RCC_OscConfig+0x54e>
 8002fea:	4b41      	ldr	r3, [pc, #260]	@ (80030f0 <HAL_RCC_OscConfig+0x280>)
 8002fec:	681b      	ldr	r3, [r3, #0]
 8002fee:	f023 02f8 	bic.w	r2, r3, #248	@ 0xf8
 8002ff2:	687b      	ldr	r3, [r7, #4]
 8002ff4:	691b      	ldr	r3, [r3, #16]
 8002ff6:	00db      	lsls	r3, r3, #3
 8002ff8:	493d      	ldr	r1, [pc, #244]	@ (80030f0 <HAL_RCC_OscConfig+0x280>)
 8002ffa:	4313      	orrs	r3, r2
 8002ffc:	600b      	str	r3, [r1, #0]
 8002ffe:	e040      	b.n	8003082 <HAL_RCC_OscConfig+0x212>
 8003000:	687b      	ldr	r3, [r7, #4]
 8003002:	68db      	ldr	r3, [r3, #12]
 8003004:	2b00      	cmp	r3, #0
 8003006:	d023      	beq.n	8003050 <HAL_RCC_OscConfig+0x1e0>
 8003008:	4b39      	ldr	r3, [pc, #228]	@ (80030f0 <HAL_RCC_OscConfig+0x280>)
 800300a:	681b      	ldr	r3, [r3, #0]
 800300c:	4a38      	ldr	r2, [pc, #224]	@ (80030f0 <HAL_RCC_OscConfig+0x280>)
 800300e:	f043 0301 	orr.w	r3, r3, #1
 8003012:	6013      	str	r3, [r2, #0]
 8003014:	f7ff fb94 	bl	8002740 <HAL_GetTick>
 8003018:	6138      	str	r0, [r7, #16]
 800301a:	e008      	b.n	800302e <HAL_RCC_OscConfig+0x1be>
 800301c:	f7ff fb90 	bl	8002740 <HAL_GetTick>
 8003020:	4602      	mov	r2, r0
 8003022:	693b      	ldr	r3, [r7, #16]
 8003024:	1ad3      	subs	r3, r2, r3
 8003026:	2b02      	cmp	r3, #2
 8003028:	d901      	bls.n	800302e <HAL_RCC_OscConfig+0x1be>
 800302a:	2303      	movs	r3, #3
 800302c:	e1c7      	b.n	80033be <HAL_RCC_OscConfig+0x54e>
 800302e:	4b30      	ldr	r3, [pc, #192]	@ (80030f0 <HAL_RCC_OscConfig+0x280>)
 8003030:	681b      	ldr	r3, [r3, #0]
 8003032:	f003 0302 	and.w	r3, r3, #2
 8003036:	2b00      	cmp	r3, #0
 8003038:	d0f0      	beq.n	800301c <HAL_RCC_OscConfig+0x1ac>
 800303a:	4b2d      	ldr	r3, [pc, #180]	@ (80030f0 <HAL_RCC_OscConfig+0x280>)
 800303c:	681b      	ldr	r3, [r3, #0]
 800303e:	f023 02f8 	bic.w	r2, r3, #248	@ 0xf8
 8003042:	687b      	ldr	r3, [r7, #4]
 8003044:	691b      	ldr	r3, [r3, #16]
 8003046:	00db      	lsls	r3, r3, #3
 8003048:	4929      	ldr	r1, [pc, #164]	@ (80030f0 <HAL_RCC_OscConfig+0x280>)
 800304a:	4313      	orrs	r3, r2
 800304c:	600b      	str	r3, [r1, #0]
 800304e:	e018      	b.n	8003082 <HAL_RCC_OscConfig+0x212>
 8003050:	4b27      	ldr	r3, [pc, #156]	@ (80030f0 <HAL_RCC_OscConfig+0x280>)
 8003052:	681b      	ldr	r3, [r3, #0]
 8003054:	4a26      	ldr	r2, [pc, #152]	@ (80030f0 <HAL_RCC_OscConfig+0x280>)
 8003056:	f023 0301 	bic.w	r3, r3, #1
 800305a:	6013      	str	r3, [r2, #0]
 800305c:	f7ff fb70 	bl	8002740 <HAL_GetTick>
 8003060:	6138      	str	r0, [r7, #16]
 8003062:	e008      	b.n	8003076 <HAL_RCC_OscConfig+0x206>
 8003064:	f7ff fb6c 	bl	8002740 <HAL_GetTick>
 8003068:	4602      	mov	r2, r0
 800306a:	693b      	ldr	r3, [r7, #16]
 800306c:	1ad3      	subs	r3, r2, r3
 800306e:	2b02      	cmp	r3, #2
 8003070:	d901      	bls.n	8003076 <HAL_RCC_OscConfig+0x206>
 8003072:	2303      	movs	r3, #3
 8003074:	e1a3      	b.n	80033be <HAL_RCC_OscConfig+0x54e>
 8003076:	4b1e      	ldr	r3, [pc, #120]	@ (80030f0 <HAL_RCC_OscConfig+0x280>)
 8003078:	681b      	ldr	r3, [r3, #0]
 800307a:	f003 0302 	and.w	r3, r3, #2
 800307e:	2b00      	cmp	r3, #0
 8003080:	d1f0      	bne.n	8003064 <HAL_RCC_OscConfig+0x1f4>
 8003082:	687b      	ldr	r3, [r7, #4]
 8003084:	681b      	ldr	r3, [r3, #0]
 8003086:	f003 0308 	and.w	r3, r3, #8
 800308a:	2b00      	cmp	r3, #0
 800308c:	d038      	beq.n	8003100 <HAL_RCC_OscConfig+0x290>
 800308e:	687b      	ldr	r3, [r7, #4]
 8003090:	695b      	ldr	r3, [r3, #20]
 8003092:	2b00      	cmp	r3, #0
 8003094:	d019      	beq.n	80030ca <HAL_RCC_OscConfig+0x25a>
 8003096:	4b16      	ldr	r3, [pc, #88]	@ (80030f0 <HAL_RCC_OscConfig+0x280>)
 8003098:	6f5b      	ldr	r3, [r3, #116]	@ 0x74
 800309a:	4a15      	ldr	r2, [pc, #84]	@ (80030f0 <HAL_RCC_OscConfig+0x280>)
 800309c:	f043 0301 	orr.w	r3, r3, #1
 80030a0:	6753      	str	r3, [r2, #116]	@ 0x74
 80030a2:	f7ff fb4d 	bl	8002740 <HAL_GetTick>
 80030a6:	6138      	str	r0, [r7, #16]
 80030a8:	e008      	b.n	80030bc <HAL_RCC_OscConfig+0x24c>
 80030aa:	f7ff fb49 	bl	8002740 <HAL_GetTick>
 80030ae:	4602      	mov	r2, r0
 80030b0:	693b      	ldr	r3, [r7, #16]
 80030b2:	1ad3      	subs	r3, r2, r3
 80030b4:	2b02      	cmp	r3, #2
 80030b6:	d901      	bls.n	80030bc <HAL_RCC_OscConfig+0x24c>
 80030b8:	2303      	movs	r3, #3
 80030ba:	e180      	b.n	80033be <HAL_RCC_OscConfig+0x54e>
 80030bc:	4b0c      	ldr	r3, [pc, #48]	@ (80030f0 <HAL_RCC_OscConfig+0x280>)
 80030be:	6f5b      	ldr	r3, [r3, #116]	@ 0x74
 80030c0:	f003 0302 	and.w	r3, r3, #2
 80030c4:	2b00      	cmp	r3, #0
 80030c6:	d0f0      	beq.n	80030aa <HAL_RCC_OscConfig+0x23a>
 80030c8:	e01a      	b.n	8003100 <HAL_RCC_OscConfig+0x290>
 80030ca:	4b09      	ldr	r3, [pc, #36]	@ (80030f0 <HAL_RCC_OscConfig+0x280>)
 80030cc:	6f5b      	ldr	r3, [r3, #116]	@ 0x74
 80030ce:	4a08      	ldr	r2, [pc, #32]	@ (80030f0 <HAL_RCC_OscConfig+0x280>)
 80030d0:	f023 0301 	bic.w	r3, r3, #1
 80030d4:	6753      	str	r3, [r2, #116]	@ 0x74
 80030d6:	f7ff fb33 	bl	8002740 <HAL_GetTick>
 80030da:	6138      	str	r0, [r7, #16]
 80030dc:	e00a      	b.n	80030f4 <HAL_RCC_OscConfig+0x284>
 80030de:	f7ff fb2f 	bl	8002740 <HAL_GetTick>
 80030e2:	4602      	mov	r2, r0
 80030e4:	693b      	ldr	r3, [r7, #16]
 80030e6:	1ad3      	subs	r3, r2, r3
 80030e8:	2b02      	cmp	r3, #2
 80030ea:	d903      	bls.n	80030f4 <HAL_RCC_OscConfig+0x284>
 80030ec:	2303      	movs	r3, #3
 80030ee:	e166      	b.n	80033be <HAL_RCC_OscConfig+0x54e>
 80030f0:	40023800 	.word	0x40023800
 80030f4:	4b92      	ldr	r3, [pc, #584]	@ (8003340 <HAL_RCC_OscConfig+0x4d0>)
 80030f6:	6f5b      	ldr	r3, [r3, #116]	@ 0x74
 80030f8:	f003 0302 	and.w	r3, r3, #2
 80030fc:	2b00      	cmp	r3, #0
 80030fe:	d1ee      	bne.n	80030de <HAL_RCC_OscConfig+0x26e>
 8003100:	687b      	ldr	r3, [r7, #4]
 8003102:	681b      	ldr	r3, [r3, #0]
 8003104:	f003 0304 	and.w	r3, r3, #4
 8003108:	2b00      	cmp	r3, #0
 800310a:	f000 80a4 	beq.w	8003256 <HAL_RCC_OscConfig+0x3e6>
 800310e:	4b8c      	ldr	r3, [pc, #560]	@ (8003340 <HAL_RCC_OscConfig+0x4d0>)
 8003110:	6c1b      	ldr	r3, [r3, #64]	@ 0x40
 8003112:	f003 5380 	and.w	r3, r3, #268435456	@ 0x10000000
 8003116:	2b00      	cmp	r3, #0
 8003118:	d10d      	bne.n	8003136 <HAL_RCC_OscConfig+0x2c6>
 800311a:	4b89      	ldr	r3, [pc, #548]	@ (8003340 <HAL_RCC_OscConfig+0x4d0>)
 800311c:	6c1b      	ldr	r3, [r3, #64]	@ 0x40
 800311e:	4a88      	ldr	r2, [pc, #544]	@ (8003340 <HAL_RCC_OscConfig+0x4d0>)
 8003120:	f043 5380 	orr.w	r3, r3, #268435456	@ 0x10000000
 8003124:	6413      	str	r3, [r2, #64]	@ 0x40
 8003126:	4b86      	ldr	r3, [pc, #536]	@ (8003340 <HAL_RCC_OscConfig+0x4d0>)
 8003128:	6c1b      	ldr	r3, [r3, #64]	@ 0x40
 800312a:	f003 5380 	and.w	r3, r3, #268435456	@ 0x10000000
 800312e:	60bb      	str	r3, [r7, #8]
 8003130:	68bb      	ldr	r3, [r7, #8]
 8003132:	2301      	movs	r3, #1
 8003134:	75fb      	strb	r3, [r7, #23]
 8003136:	4b83      	ldr	r3, [pc, #524]	@ (8003344 <HAL_RCC_OscConfig+0x4d4>)
 8003138:	681b      	ldr	r3, [r3, #0]
 800313a:	f403 7380 	and.w	r3, r3, #256	@ 0x100
 800313e:	2b00      	cmp	r3, #0
 8003140:	d118      	bne.n	8003174 <HAL_RCC_OscConfig+0x304>
 8003142:	4b80      	ldr	r3, [pc, #512]	@ (8003344 <HAL_RCC_OscConfig+0x4d4>)
 8003144:	681b      	ldr	r3, [r3, #0]
 8003146:	4a7f      	ldr	r2, [pc, #508]	@ (8003344 <HAL_RCC_OscConfig+0x4d4>)
 8003148:	f443 7380 	orr.w	r3, r3, #256	@ 0x100
 800314c:	6013      	str	r3, [r2, #0]
 800314e:	f7ff faf7 	bl	8002740 <HAL_GetTick>
 8003152:	6138      	str	r0, [r7, #16]
 8003154:	e008      	b.n	8003168 <HAL_RCC_OscConfig+0x2f8>
 8003156:	f7ff faf3 	bl	8002740 <HAL_GetTick>
 800315a:	4602      	mov	r2, r0
 800315c:	693b      	ldr	r3, [r7, #16]
 800315e:	1ad3      	subs	r3, r2, r3
 8003160:	2b64      	cmp	r3, #100	@ 0x64
 8003162:	d901      	bls.n	8003168 <HAL_RCC_OscConfig+0x2f8>
 8003164:	2303      	movs	r3, #3
 8003166:	e12a      	b.n	80033be <HAL_RCC_OscConfig+0x54e>
 8003168:	4b76      	ldr	r3, [pc, #472]	@ (8003344 <HAL_RCC_OscConfig+0x4d4>)
 800316a:	681b      	ldr	r3, [r3, #0]
 800316c:	f403 7380 	and.w	r3, r3, #256	@ 0x100
 8003170:	2b00      	cmp	r3, #0
 8003172:	d0f0      	beq.n	8003156 <HAL_RCC_OscConfig+0x2e6>
 8003174:	687b      	ldr	r3, [r7, #4]
 8003176:	689b      	ldr	r3, [r3, #8]
 8003178:	2b01      	cmp	r3, #1
 800317a:	d106      	bne.n	800318a <HAL_RCC_OscConfig+0x31a>
 800317c:	4b70      	ldr	r3, [pc, #448]	@ (8003340 <HAL_RCC_OscConfig+0x4d0>)
 800317e:	6f1b      	ldr	r3, [r3, #112]	@ 0x70
 8003180:	4a6f      	ldr	r2, [pc, #444]	@ (8003340 <HAL_RCC_OscConfig+0x4d0>)
 8003182:	f043 0301 	orr.w	r3, r3, #1
 8003186:	6713      	str	r3, [r2, #112]	@ 0x70
 8003188:	e02d      	b.n	80031e6 <HAL_RCC_OscConfig+0x376>
 800318a:	687b      	ldr	r3, [r7, #4]
 800318c:	689b      	ldr	r3, [r3, #8]
 800318e:	2b00      	cmp	r3, #0
 8003190:	d10c      	bne.n	80031ac <HAL_RCC_OscConfig+0x33c>
 8003192:	4b6b      	ldr	r3, [pc, #428]	@ (8003340 <HAL_RCC_OscConfig+0x4d0>)
 8003194:	6f1b      	ldr	r3, [r3, #112]	@ 0x70
 8003196:	4a6a      	ldr	r2, [pc, #424]	@ (8003340 <HAL_RCC_OscConfig+0x4d0>)
 8003198:	f023 0301 	bic.w	r3, r3, #1
 800319c:	6713      	str	r3, [r2, #112]	@ 0x70
 800319e:	4b68      	ldr	r3, [pc, #416]	@ (8003340 <HAL_RCC_OscConfig+0x4d0>)
 80031a0:	6f1b      	ldr	r3, [r3, #112]	@ 0x70
 80031a2:	4a67      	ldr	r2, [pc, #412]	@ (8003340 <HAL_RCC_OscConfig+0x4d0>)
 80031a4:	f023 0304 	bic.w	r3, r3, #4
 80031a8:	6713      	str	r3, [r2, #112]	@ 0x70
 80031aa:	e01c      	b.n	80031e6 <HAL_RCC_OscConfig+0x376>
 80031ac:	687b      	ldr	r3, [r7, #4]
 80031ae:	689b      	ldr	r3, [r3, #8]
 80031b0:	2b05      	cmp	r3, #5
 80031b2:	d10c      	bne.n	80031ce <HAL_RCC_OscConfig+0x35e>
 80031b4:	4b62      	ldr	r3, [pc, #392]	@ (8003340 <HAL_RCC_OscConfig+0x4d0>)
 80031b6:	6f1b      	ldr	r3, [r3, #112]	@ 0x70
 80031b8:	4a61      	ldr	r2, [pc, #388]	@ (8003340 <HAL_RCC_OscConfig+0x4d0>)
 80031ba:	f043 0304 	orr.w	r3, r3, #4
 80031be:	6713      	str	r3, [r2, #112]	@ 0x70
 80031c0:	4b5f      	ldr	r3, [pc, #380]	@ (8003340 <HAL_RCC_OscConfig+0x4d0>)
 80031c2:	6f1b      	ldr	r3, [r3, #112]	@ 0x70
 80031c4:	4a5e      	ldr	r2, [pc, #376]	@ (8003340 <HAL_RCC_OscConfig+0x4d0>)
 80031c6:	f043 0301 	orr.w	r3, r3, #1
 80031ca:	6713      	str	r3, [r2, #112]	@ 0x70
 80031cc:	e00b      	b.n	80031e6 <HAL_RCC_OscConfig+0x376>
 80031ce:	4b5c      	ldr	r3, [pc, #368]	@ (8003340 <HAL_RCC_OscConfig+0x4d0>)
 80031d0:	6f1b      	ldr	r3, [r3, #112]	@ 0x70
 80031d2:	4a5b      	ldr	r2, [pc, #364]	@ (8003340 <HAL_RCC_OscConfig+0x4d0>)
 80031d4:	f023 0301 	bic.w	r3, r3, #1
 80031d8:	6713      	str	r3, [r2, #112]	@ 0x70
 80031da:	4b59      	ldr	r3, [pc, #356]	@ (8003340 <HAL_RCC_OscConfig+0x4d0>)
 80031dc:	6f1b      	ldr	r3, [r3, #112]	@ 0x70
 80031de:	4a58      	ldr	r2, [pc, #352]	@ (8003340 <HAL_RCC_OscConfig+0x4d0>)
 80031e0:	f023 0304 	bic.w	r3, r3, #4
 80031e4:	6713      	str	r3, [r2, #112]	@ 0x70
 80031e6:	687b      	ldr	r3, [r7, #4]
 80031e8:	689b      	ldr	r3, [r3, #8]
 80031ea:	2b00      	cmp	r3, #0
 80031ec:	d015      	beq.n	800321a <HAL_RCC_OscConfig+0x3aa>
 80031ee:	f7ff faa7 	bl	8002740 <HAL_GetTick>
 80031f2:	6138      	str	r0, [r7, #16]
 80031f4:	e00a      	b.n	800320c <HAL_RCC_OscConfig+0x39c>
 80031f6:	f7ff faa3 	bl	8002740 <HAL_GetTick>
 80031fa:	4602      	mov	r2, r0
 80031fc:	693b      	ldr	r3, [r7, #16]
 80031fe:	1ad3      	subs	r3, r2, r3
 8003200:	f241 3288 	movw	r2, #5000	@ 0x1388
 8003204:	4293      	cmp	r3, r2
 8003206:	d901      	bls.n	800320c <HAL_RCC_OscConfig+0x39c>
 8003208:	2303      	movs	r3, #3
 800320a:	e0d8      	b.n	80033be <HAL_RCC_OscConfig+0x54e>
 800320c:	4b4c      	ldr	r3, [pc, #304]	@ (8003340 <HAL_RCC_OscConfig+0x4d0>)
 800320e:	6f1b      	ldr	r3, [r3, #112]	@ 0x70
 8003210:	f003 0302 	and.w	r3, r3, #2
 8003214:	2b00      	cmp	r3, #0
 8003216:	d0ee      	beq.n	80031f6 <HAL_RCC_OscConfig+0x386>
 8003218:	e014      	b.n	8003244 <HAL_RCC_OscConfig+0x3d4>
 800321a:	f7ff fa91 	bl	8002740 <HAL_GetTick>
 800321e:	6138      	str	r0, [r7, #16]
 8003220:	e00a      	b.n	8003238 <HAL_RCC_OscConfig+0x3c8>
 8003222:	f7ff fa8d 	bl	8002740 <HAL_GetTick>
 8003226:	4602      	mov	r2, r0
 8003228:	693b      	ldr	r3, [r7, #16]
 800322a:	1ad3      	subs	r3, r2, r3
 800322c:	f241 3288 	movw	r2, #5000	@ 0x1388
 8003230:	4293      	cmp	r3, r2
 8003232:	d901      	bls.n	8003238 <HAL_RCC_OscConfig+0x3c8>
 8003234:	2303      	movs	r3, #3
 8003236:	e0c2      	b.n	80033be <HAL_RCC_OscConfig+0x54e>
 8003238:	4b41      	ldr	r3, [pc, #260]	@ (8003340 <HAL_RCC_OscConfig+0x4d0>)
 800323a:	6f1b      	ldr	r3, [r3, #112]	@ 0x70
 800323c:	f003 0302 	and.w	r3, r3, #2
 8003240:	2b00      	cmp	r3, #0
 8003242:	d1ee      	bne.n	8003222 <HAL_RCC_OscConfig+0x3b2>
 8003244:	7dfb      	ldrb	r3, [r7, #23]
 8003246:	2b01      	cmp	r3, #1
 8003248:	d105      	bne.n	8003256 <HAL_RCC_OscConfig+0x3e6>
 800324a:	4b3d      	ldr	r3, [pc, #244]	@ (8003340 <HAL_RCC_OscConfig+0x4d0>)
 800324c:	6c1b      	ldr	r3, [r3, #64]	@ 0x40
 800324e:	4a3c      	ldr	r2, [pc, #240]	@ (8003340 <HAL_RCC_OscConfig+0x4d0>)
 8003250:	f023 5380 	bic.w	r3, r3, #268435456	@ 0x10000000
 8003254:	6413      	str	r3, [r2, #64]	@ 0x40
 8003256:	687b      	ldr	r3, [r7, #4]
 8003258:	699b      	ldr	r3, [r3, #24]
 800325a:	2b00      	cmp	r3, #0
 800325c:	f000 80ae 	beq.w	80033bc <HAL_RCC_OscConfig+0x54c>
 8003260:	4b37      	ldr	r3, [pc, #220]	@ (8003340 <HAL_RCC_OscConfig+0x4d0>)
 8003262:	689b      	ldr	r3, [r3, #8]
 8003264:	f003 030c 	and.w	r3, r3, #12
 8003268:	2b08      	cmp	r3, #8
 800326a:	d06d      	beq.n	8003348 <HAL_RCC_OscConfig+0x4d8>
 800326c:	687b      	ldr	r3, [r7, #4]
 800326e:	699b      	ldr	r3, [r3, #24]
 8003270:	2b02      	cmp	r3, #2
 8003272:	d14b      	bne.n	800330c <HAL_RCC_OscConfig+0x49c>
 8003274:	4b32      	ldr	r3, [pc, #200]	@ (8003340 <HAL_RCC_OscConfig+0x4d0>)
 8003276:	681b      	ldr	r3, [r3, #0]
 8003278:	4a31      	ldr	r2, [pc, #196]	@ (8003340 <HAL_RCC_OscConfig+0x4d0>)
 800327a:	f023 7380 	bic.w	r3, r3, #16777216	@ 0x1000000
 800327e:	6013      	str	r3, [r2, #0]
 8003280:	f7ff fa5e 	bl	8002740 <HAL_GetTick>
 8003284:	6138      	str	r0, [r7, #16]
 8003286:	e008      	b.n	800329a <HAL_RCC_OscConfig+0x42a>
 8003288:	f7ff fa5a 	bl	8002740 <HAL_GetTick>
 800328c:	4602      	mov	r2, r0
 800328e:	693b      	ldr	r3, [r7, #16]
 8003290:	1ad3      	subs	r3, r2, r3
 8003292:	2b02      	cmp	r3, #2
 8003294:	d901      	bls.n	800329a <HAL_RCC_OscConfig+0x42a>
 8003296:	2303      	movs	r3, #3
 8003298:	e091      	b.n	80033be <HAL_RCC_OscConfig+0x54e>
 800329a:	4b29      	ldr	r3, [pc, #164]	@ (8003340 <HAL_RCC_OscConfig+0x4d0>)
 800329c:	681b      	ldr	r3, [r3, #0]
 800329e:	f003 7300 	and.w	r3, r3, #33554432	@ 0x2000000
 80032a2:	2b00      	cmp	r3, #0
 80032a4:	d1f0      	bne.n	8003288 <HAL_RCC_OscConfig+0x418>
 80032a6:	687b      	ldr	r3, [r7, #4]
 80032a8:	69da      	ldr	r2, [r3, #28]
 80032aa:	687b      	ldr	r3, [r7, #4]
 80032ac:	6a1b      	ldr	r3, [r3, #32]
 80032ae:	431a      	orrs	r2, r3
 80032b0:	687b      	ldr	r3, [r7, #4]
 80032b2:	6a5b      	ldr	r3, [r3, #36]	@ 0x24
 80032b4:	019b      	lsls	r3, r3, #6
 80032b6:	431a      	orrs	r2, r3
 80032b8:	687b      	ldr	r3, [r7, #4]
 80032ba:	6a9b      	ldr	r3, [r3, #40]	@ 0x28
 80032bc:	085b      	lsrs	r3, r3, #1
 80032be:	3b01      	subs	r3, #1
 80032c0:	041b      	lsls	r3, r3, #16
 80032c2:	431a      	orrs	r2, r3
 80032c4:	687b      	ldr	r3, [r7, #4]
 80032c6:	6adb      	ldr	r3, [r3, #44]	@ 0x2c
 80032c8:	061b      	lsls	r3, r3, #24
 80032ca:	431a      	orrs	r2, r3
 80032cc:	687b      	ldr	r3, [r7, #4]
 80032ce:	6b1b      	ldr	r3, [r3, #48]	@ 0x30
 80032d0:	071b      	lsls	r3, r3, #28
 80032d2:	491b      	ldr	r1, [pc, #108]	@ (8003340 <HAL_RCC_OscConfig+0x4d0>)
 80032d4:	4313      	orrs	r3, r2
 80032d6:	604b      	str	r3, [r1, #4]
 80032d8:	4b19      	ldr	r3, [pc, #100]	@ (8003340 <HAL_RCC_OscConfig+0x4d0>)
 80032da:	681b      	ldr	r3, [r3, #0]
 80032dc:	4a18      	ldr	r2, [pc, #96]	@ (8003340 <HAL_RCC_OscConfig+0x4d0>)
 80032de:	f043 7380 	orr.w	r3, r3, #16777216	@ 0x1000000
 80032e2:	6013      	str	r3, [r2, #0]
 80032e4:	f7ff fa2c 	bl	8002740 <HAL_GetTick>
 80032e8:	6138      	str	r0, [r7, #16]
 80032ea:	e008      	b.n	80032fe <HAL_RCC_OscConfig+0x48e>
 80032ec:	f7ff fa28 	bl	8002740 <HAL_GetTick>
 80032f0:	4602      	mov	r2, r0
 80032f2:	693b      	ldr	r3, [r7, #16]
 80032f4:	1ad3      	subs	r3, r2, r3
 80032f6:	2b02      	cmp	r3, #2
 80032f8:	d901      	bls.n	80032fe <HAL_RCC_OscConfig+0x48e>
 80032fa:	2303      	movs	r3, #3
 80032fc:	e05f      	b.n	80033be <HAL_RCC_OscConfig+0x54e>
 80032fe:	4b10      	ldr	r3, [pc, #64]	@ (8003340 <HAL_RCC_OscConfig+0x4d0>)
 8003300:	681b      	ldr	r3, [r3, #0]
 8003302:	f003 7300 	and.w	r3, r3, #33554432	@ 0x2000000
 8003306:	2b00      	cmp	r3, #0
 8003308:	d0f0      	beq.n	80032ec <HAL_RCC_OscConfig+0x47c>
 800330a:	e057      	b.n	80033bc <HAL_RCC_OscConfig+0x54c>
 800330c:	4b0c      	ldr	r3, [pc, #48]	@ (8003340 <HAL_RCC_OscConfig+0x4d0>)
 800330e:	681b      	ldr	r3, [r3, #0]
 8003310:	4a0b      	ldr	r2, [pc, #44]	@ (8003340 <HAL_RCC_OscConfig+0x4d0>)
 8003312:	f023 7380 	bic.w	r3, r3, #16777216	@ 0x1000000
 8003316:	6013      	str	r3, [r2, #0]
 8003318:	f7ff fa12 	bl	8002740 <HAL_GetTick>
 800331c:	6138      	str	r0, [r7, #16]
 800331e:	e008      	b.n	8003332 <HAL_RCC_OscConfig+0x4c2>
 8003320:	f7ff fa0e 	bl	8002740 <HAL_GetTick>
 8003324:	4602      	mov	r2, r0
 8003326:	693b      	ldr	r3, [r7, #16]
 8003328:	1ad3      	subs	r3, r2, r3
 800332a:	2b02      	cmp	r3, #2
 800332c:	d901      	bls.n	8003332 <HAL_RCC_OscConfig+0x4c2>
 800332e:	2303      	movs	r3, #3
 8003330:	e045      	b.n	80033be <HAL_RCC_OscConfig+0x54e>
 8003332:	4b03      	ldr	r3, [pc, #12]	@ (8003340 <HAL_RCC_OscConfig+0x4d0>)
 8003334:	681b      	ldr	r3, [r3, #0]
 8003336:	f003 7300 	and.w	r3, r3, #33554432	@ 0x2000000
 800333a:	2b00      	cmp	r3, #0
 800333c:	d1f0      	bne.n	8003320 <HAL_RCC_OscConfig+0x4b0>
 800333e:	e03d      	b.n	80033bc <HAL_RCC_OscConfig+0x54c>
 8003340:	40023800 	.word	0x40023800
 8003344:	40007000 	.word	0x40007000
 8003348:	4b1f      	ldr	r3, [pc, #124]	@ (80033c8 <HAL_RCC_OscConfig+0x558>)
 800334a:	685b      	ldr	r3, [r3, #4]
 800334c:	60fb      	str	r3, [r7, #12]
 800334e:	687b      	ldr	r3, [r7, #4]
 8003350:	699b      	ldr	r3, [r3, #24]
 8003352:	2b01      	cmp	r3, #1
 8003354:	d030      	beq.n	80033b8 <HAL_RCC_OscConfig+0x548>
 8003356:	68fb      	ldr	r3, [r7, #12]
 8003358:	f403 0280 	and.w	r2, r3, #4194304	@ 0x400000
 800335c:	687b      	ldr	r3, [r7, #4]
 800335e:	69db      	ldr	r3, [r3, #28]
 8003360:	429a      	cmp	r2, r3
 8003362:	d129      	bne.n	80033b8 <HAL_RCC_OscConfig+0x548>
 8003364:	68fb      	ldr	r3, [r7, #12]
 8003366:	f003 023f 	and.w	r2, r3, #63	@ 0x3f
 800336a:	687b      	ldr	r3, [r7, #4]
 800336c:	6a1b      	ldr	r3, [r3, #32]
 800336e:	429a      	cmp	r2, r3
 8003370:	d122      	bne.n	80033b8 <HAL_RCC_OscConfig+0x548>
 8003372:	68fa      	ldr	r2, [r7, #12]
 8003374:	f647 73c0 	movw	r3, #32704	@ 0x7fc0
 8003378:	4013      	ands	r3, r2
 800337a:	687a      	ldr	r2, [r7, #4]
 800337c:	6a52      	ldr	r2, [r2, #36]	@ 0x24
 800337e:	0192      	lsls	r2, r2, #6
 8003380:	4293      	cmp	r3, r2
 8003382:	d119      	bne.n	80033b8 <HAL_RCC_OscConfig+0x548>
 8003384:	68fb      	ldr	r3, [r7, #12]
 8003386:	f403 3240 	and.w	r2, r3, #196608	@ 0x30000
 800338a:	687b      	ldr	r3, [r7, #4]
 800338c:	6a9b      	ldr	r3, [r3, #40]	@ 0x28
 800338e:	085b      	lsrs	r3, r3, #1
 8003390:	3b01      	subs	r3, #1
 8003392:	041b      	lsls	r3, r3, #16
 8003394:	429a      	cmp	r2, r3
 8003396:	d10f      	bne.n	80033b8 <HAL_RCC_OscConfig+0x548>
 8003398:	68fb      	ldr	r3, [r7, #12]
 800339a:	f003 6270 	and.w	r2, r3, #251658240	@ 0xf000000
 800339e:	687b      	ldr	r3, [r7, #4]
 80033a0:	6adb      	ldr	r3, [r3, #44]	@ 0x2c
 80033a2:	061b      	lsls	r3, r3, #24
 80033a4:	429a      	cmp	r2, r3
 80033a6:	d107      	bne.n	80033b8 <HAL_RCC_OscConfig+0x548>
 80033a8:	68fb      	ldr	r3, [r7, #12]
 80033aa:	f003 42e0 	and.w	r2, r3, #1879048192	@ 0x70000000
 80033ae:	687b      	ldr	r3, [r7, #4]
 80033b0:	6b1b      	ldr	r3, [r3, #48]	@ 0x30
 80033b2:	071b      	lsls	r3, r3, #28
 80033b4:	429a      	cmp	r2, r3
 80033b6:	d001      	beq.n	80033bc <HAL_RCC_OscConfig+0x54c>
 80033b8:	2301      	movs	r3, #1
 80033ba:	e000      	b.n	80033be <HAL_RCC_OscConfig+0x54e>
 80033bc:	2300      	movs	r3, #0
 80033be:	4618      	mov	r0, r3
 80033c0:	3718      	adds	r7, #24
 80033c2:	46bd      	mov	sp, r7
 80033c4:	bd80      	pop	{r7, pc}
 80033c6:	bf00      	nop
 80033c8:	40023800 	.word	0x40023800

080033cc <HAL_RCC_ClockConfig>:
 80033cc:	b580      	push	{r7, lr}
 80033ce:	b084      	sub	sp, #16
 80033d0:	af00      	add	r7, sp, #0
 80033d2:	6078      	str	r0, [r7, #4]
 80033d4:	6039      	str	r1, [r7, #0]
 80033d6:	2300      	movs	r3, #0
 80033d8:	60fb      	str	r3, [r7, #12]
 80033da:	687b      	ldr	r3, [r7, #4]
 80033dc:	2b00      	cmp	r3, #0
 80033de:	d101      	bne.n	80033e4 <HAL_RCC_ClockConfig+0x18>
 80033e0:	2301      	movs	r3, #1
 80033e2:	e0d0      	b.n	8003586 <HAL_RCC_ClockConfig+0x1ba>
 80033e4:	4b6a      	ldr	r3, [pc, #424]	@ (8003590 <HAL_RCC_ClockConfig+0x1c4>)
 80033e6:	681b      	ldr	r3, [r3, #0]
 80033e8:	f003 030f 	and.w	r3, r3, #15
 80033ec:	683a      	ldr	r2, [r7, #0]
 80033ee:	429a      	cmp	r2, r3
 80033f0:	d910      	bls.n	8003414 <HAL_RCC_ClockConfig+0x48>
 80033f2:	4b67      	ldr	r3, [pc, #412]	@ (8003590 <HAL_RCC_ClockConfig+0x1c4>)
 80033f4:	681b      	ldr	r3, [r3, #0]
 80033f6:	f023 020f 	bic.w	r2, r3, #15
 80033fa:	4965      	ldr	r1, [pc, #404]	@ (8003590 <HAL_RCC_ClockConfig+0x1c4>)
 80033fc:	683b      	ldr	r3, [r7, #0]
 80033fe:	4313      	orrs	r3, r2
 8003400:	600b      	str	r3, [r1, #0]
 8003402:	4b63      	ldr	r3, [pc, #396]	@ (8003590 <HAL_RCC_ClockConfig+0x1c4>)
 8003404:	681b      	ldr	r3, [r3, #0]
 8003406:	f003 030f 	and.w	r3, r3, #15
 800340a:	683a      	ldr	r2, [r7, #0]
 800340c:	429a      	cmp	r2, r3
 800340e:	d001      	beq.n	8003414 <HAL_RCC_ClockConfig+0x48>
 8003410:	2301      	movs	r3, #1
 8003412:	e0b8      	b.n	8003586 <HAL_RCC_ClockConfig+0x1ba>
 8003414:	687b      	ldr	r3, [r7, #4]
 8003416:	681b      	ldr	r3, [r3, #0]
 8003418:	f003 0302 	and.w	r3, r3, #2
 800341c:	2b00      	cmp	r3, #0
 800341e:	d020      	beq.n	8003462 <HAL_RCC_ClockConfig+0x96>
 8003420:	687b      	ldr	r3, [r7, #4]
 8003422:	681b      	ldr	r3, [r3, #0]
 8003424:	f003 0304 	and.w	r3, r3, #4
 8003428:	2b00      	cmp	r3, #0
 800342a:	d005      	beq.n	8003438 <HAL_RCC_ClockConfig+0x6c>
 800342c:	4b59      	ldr	r3, [pc, #356]	@ (8003594 <HAL_RCC_ClockConfig+0x1c8>)
 800342e:	689b      	ldr	r3, [r3, #8]
 8003430:	4a58      	ldr	r2, [pc, #352]	@ (8003594 <HAL_RCC_ClockConfig+0x1c8>)
 8003432:	f443 53e0 	orr.w	r3, r3, #7168	@ 0x1c00
 8003436:	6093      	str	r3, [r2, #8]
 8003438:	687b      	ldr	r3, [r7, #4]
 800343a:	681b      	ldr	r3, [r3, #0]
 800343c:	f003 0308 	and.w	r3, r3, #8
 8003440:	2b00      	cmp	r3, #0
 8003442:	d005      	beq.n	8003450 <HAL_RCC_ClockConfig+0x84>
 8003444:	4b53      	ldr	r3, [pc, #332]	@ (8003594 <HAL_RCC_ClockConfig+0x1c8>)
 8003446:	689b      	ldr	r3, [r3, #8]
 8003448:	4a52      	ldr	r2, [pc, #328]	@ (8003594 <HAL_RCC_ClockConfig+0x1c8>)
 800344a:	f443 4360 	orr.w	r3, r3, #57344	@ 0xe000
 800344e:	6093      	str	r3, [r2, #8]
 8003450:	4b50      	ldr	r3, [pc, #320]	@ (8003594 <HAL_RCC_ClockConfig+0x1c8>)
 8003452:	689b      	ldr	r3, [r3, #8]
 8003454:	f023 02f0 	bic.w	r2, r3, #240	@ 0xf0
 8003458:	687b      	ldr	r3, [r7, #4]
 800345a:	689b      	ldr	r3, [r3, #8]
 800345c:	494d      	ldr	r1, [pc, #308]	@ (8003594 <HAL_RCC_ClockConfig+0x1c8>)
 800345e:	4313      	orrs	r3, r2
 8003460:	608b      	str	r3, [r1, #8]
 8003462:	687b      	ldr	r3, [r7, #4]
 8003464:	681b      	ldr	r3, [r3, #0]
 8003466:	f003 0301 	and.w	r3, r3, #1
 800346a:	2b00      	cmp	r3, #0
 800346c:	d040      	beq.n	80034f0 <HAL_RCC_ClockConfig+0x124>
 800346e:	687b      	ldr	r3, [r7, #4]
 8003470:	685b      	ldr	r3, [r3, #4]
 8003472:	2b01      	cmp	r3, #1
 8003474:	d107      	bne.n	8003486 <HAL_RCC_ClockConfig+0xba>
 8003476:	4b47      	ldr	r3, [pc, #284]	@ (8003594 <HAL_RCC_ClockConfig+0x1c8>)
 8003478:	681b      	ldr	r3, [r3, #0]
 800347a:	f403 3300 	and.w	r3, r3, #131072	@ 0x20000
 800347e:	2b00      	cmp	r3, #0
 8003480:	d115      	bne.n	80034ae <HAL_RCC_ClockConfig+0xe2>
 8003482:	2301      	movs	r3, #1
 8003484:	e07f      	b.n	8003586 <HAL_RCC_ClockConfig+0x1ba>
 8003486:	687b      	ldr	r3, [r7, #4]
 8003488:	685b      	ldr	r3, [r3, #4]
 800348a:	2b02      	cmp	r3, #2
 800348c:	d107      	bne.n	800349e <HAL_RCC_ClockConfig+0xd2>
 800348e:	4b41      	ldr	r3, [pc, #260]	@ (8003594 <HAL_RCC_ClockConfig+0x1c8>)
 8003490:	681b      	ldr	r3, [r3, #0]
 8003492:	f003 7300 	and.w	r3, r3, #33554432	@ 0x2000000
 8003496:	2b00      	cmp	r3, #0
 8003498:	d109      	bne.n	80034ae <HAL_RCC_ClockConfig+0xe2>
 800349a:	2301      	movs	r3, #1
 800349c:	e073      	b.n	8003586 <HAL_RCC_ClockConfig+0x1ba>
 800349e:	4b3d      	ldr	r3, [pc, #244]	@ (8003594 <HAL_RCC_ClockConfig+0x1c8>)
 80034a0:	681b      	ldr	r3, [r3, #0]
 80034a2:	f003 0302 	and.w	r3, r3, #2
 80034a6:	2b00      	cmp	r3, #0
 80034a8:	d101      	bne.n	80034ae <HAL_RCC_ClockConfig+0xe2>
 80034aa:	2301      	movs	r3, #1
 80034ac:	e06b      	b.n	8003586 <HAL_RCC_ClockConfig+0x1ba>
 80034ae:	4b39      	ldr	r3, [pc, #228]	@ (8003594 <HAL_RCC_ClockConfig+0x1c8>)
 80034b0:	689b      	ldr	r3, [r3, #8]
 80034b2:	f023 0203 	bic.w	r2, r3, #3
 80034b6:	687b      	ldr	r3, [r7, #4]
 80034b8:	685b      	ldr	r3, [r3, #4]
 80034ba:	4936      	ldr	r1, [pc, #216]	@ (8003594 <HAL_RCC_ClockConfig+0x1c8>)
 80034bc:	4313      	orrs	r3, r2
 80034be:	608b      	str	r3, [r1, #8]
 80034c0:	f7ff f93e 	bl	8002740 <HAL_GetTick>
 80034c4:	60f8      	str	r0, [r7, #12]
 80034c6:	e00a      	b.n	80034de <HAL_RCC_ClockConfig+0x112>
 80034c8:	f7ff f93a 	bl	8002740 <HAL_GetTick>
 80034cc:	4602      	mov	r2, r0
 80034ce:	68fb      	ldr	r3, [r7, #12]
 80034d0:	1ad3      	subs	r3, r2, r3
 80034d2:	f241 3288 	movw	r2, #5000	@ 0x1388
 80034d6:	4293      	cmp	r3, r2
 80034d8:	d901      	bls.n	80034de <HAL_RCC_ClockConfig+0x112>
 80034da:	2303      	movs	r3, #3
 80034dc:	e053      	b.n	8003586 <HAL_RCC_ClockConfig+0x1ba>
 80034de:	4b2d      	ldr	r3, [pc, #180]	@ (8003594 <HAL_RCC_ClockConfig+0x1c8>)
 80034e0:	689b      	ldr	r3, [r3, #8]
 80034e2:	f003 020c 	and.w	r2, r3, #12
 80034e6:	687b      	ldr	r3, [r7, #4]
 80034e8:	685b      	ldr	r3, [r3, #4]
 80034ea:	009b      	lsls	r3, r3, #2
 80034ec:	429a      	cmp	r2, r3
 80034ee:	d1eb      	bne.n	80034c8 <HAL_RCC_ClockConfig+0xfc>
 80034f0:	4b27      	ldr	r3, [pc, #156]	@ (8003590 <HAL_RCC_ClockConfig+0x1c4>)
 80034f2:	681b      	ldr	r3, [r3, #0]
 80034f4:	f003 030f 	and.w	r3, r3, #15
 80034f8:	683a      	ldr	r2, [r7, #0]
 80034fa:	429a      	cmp	r2, r3
 80034fc:	d210      	bcs.n	8003520 <HAL_RCC_ClockConfig+0x154>
 80034fe:	4b24      	ldr	r3, [pc, #144]	@ (8003590 <HAL_RCC_ClockConfig+0x1c4>)
 8003500:	681b      	ldr	r3, [r3, #0]
 8003502:	f023 020f 	bic.w	r2, r3, #15
 8003506:	4922      	ldr	r1, [pc, #136]	@ (8003590 <HAL_RCC_ClockConfig+0x1c4>)
 8003508:	683b      	ldr	r3, [r7, #0]
 800350a:	4313      	orrs	r3, r2
 800350c:	600b      	str	r3, [r1, #0]
 800350e:	4b20      	ldr	r3, [pc, #128]	@ (8003590 <HAL_RCC_ClockConfig+0x1c4>)
 8003510:	681b      	ldr	r3, [r3, #0]
 8003512:	f003 030f 	and.w	r3, r3, #15
 8003516:	683a      	ldr	r2, [r7, #0]
 8003518:	429a      	cmp	r2, r3
 800351a:	d001      	beq.n	8003520 <HAL_RCC_ClockConfig+0x154>
 800351c:	2301      	movs	r3, #1
 800351e:	e032      	b.n	8003586 <HAL_RCC_ClockConfig+0x1ba>
 8003520:	687b      	ldr	r3, [r7, #4]
 8003522:	681b      	ldr	r3, [r3, #0]
 8003524:	f003 0304 	and.w	r3, r3, #4
 8003528:	2b00      	cmp	r3, #0
 800352a:	d008      	beq.n	800353e <HAL_RCC_ClockConfig+0x172>
 800352c:	4b19      	ldr	r3, [pc, #100]	@ (8003594 <HAL_RCC_ClockConfig+0x1c8>)
 800352e:	689b      	ldr	r3, [r3, #8]
 8003530:	f423 52e0 	bic.w	r2, r3, #7168	@ 0x1c00
 8003534:	687b      	ldr	r3, [r7, #4]
 8003536:	68db      	ldr	r3, [r3, #12]
 8003538:	4916      	ldr	r1, [pc, #88]	@ (8003594 <HAL_RCC_ClockConfig+0x1c8>)
 800353a:	4313      	orrs	r3, r2
 800353c:	608b      	str	r3, [r1, #8]
 800353e:	687b      	ldr	r3, [r7, #4]
 8003540:	681b      	ldr	r3, [r3, #0]
 8003542:	f003 0308 	and.w	r3, r3, #8
 8003546:	2b00      	cmp	r3, #0
 8003548:	d009      	beq.n	800355e <HAL_RCC_ClockConfig+0x192>
 800354a:	4b12      	ldr	r3, [pc, #72]	@ (8003594 <HAL_RCC_ClockConfig+0x1c8>)
 800354c:	689b      	ldr	r3, [r3, #8]
 800354e:	f423 4260 	bic.w	r2, r3, #57344	@ 0xe000
 8003552:	687b      	ldr	r3, [r7, #4]
 8003554:	691b      	ldr	r3, [r3, #16]
 8003556:	00db      	lsls	r3, r3, #3
 8003558:	490e      	ldr	r1, [pc, #56]	@ (8003594 <HAL_RCC_ClockConfig+0x1c8>)
 800355a:	4313      	orrs	r3, r2
 800355c:	608b      	str	r3, [r1, #8]
 800355e:	f000 f821 	bl	80035a4 <HAL_RCC_GetSysClockFreq>
 8003562:	4602      	mov	r2, r0
 8003564:	4b0b      	ldr	r3, [pc, #44]	@ (8003594 <HAL_RCC_ClockConfig+0x1c8>)
 8003566:	689b      	ldr	r3, [r3, #8]
 8003568:	091b      	lsrs	r3, r3, #4
 800356a:	f003 030f 	and.w	r3, r3, #15
 800356e:	490a      	ldr	r1, [pc, #40]	@ (8003598 <HAL_RCC_ClockConfig+0x1cc>)
 8003570:	5ccb      	ldrb	r3, [r1, r3]
 8003572:	fa22 f303 	lsr.w	r3, r2, r3
 8003576:	4a09      	ldr	r2, [pc, #36]	@ (800359c <HAL_RCC_ClockConfig+0x1d0>)
 8003578:	6013      	str	r3, [r2, #0]
 800357a:	4b09      	ldr	r3, [pc, #36]	@ (80035a0 <HAL_RCC_ClockConfig+0x1d4>)
 800357c:	681b      	ldr	r3, [r3, #0]
 800357e:	4618      	mov	r0, r3
 8003580:	f7ff f89a 	bl	80026b8 <HAL_InitTick>
 8003584:	2300      	movs	r3, #0
 8003586:	4618      	mov	r0, r3
 8003588:	3710      	adds	r7, #16
 800358a:	46bd      	mov	sp, r7
 800358c:	bd80      	pop	{r7, pc}
 800358e:	bf00      	nop
 8003590:	40023c00 	.word	0x40023c00
 8003594:	40023800 	.word	0x40023800
 8003598:	08007f4c 	.word	0x08007f4c
 800359c:	20000014 	.word	0x20000014
 80035a0:	20000018 	.word	0x20000018

080035a4 <HAL_RCC_GetSysClockFreq>:
 80035a4:	e92d 4fb0 	stmdb	sp!, {r4, r5, r7, r8, r9, sl, fp, lr}
 80035a8:	b094      	sub	sp, #80	@ 0x50
 80035aa:	af00      	add	r7, sp, #0
 80035ac:	2300      	movs	r3, #0
 80035ae:	647b      	str	r3, [r7, #68]	@ 0x44
 80035b0:	2300      	movs	r3, #0
 80035b2:	64fb      	str	r3, [r7, #76]	@ 0x4c
 80035b4:	2300      	movs	r3, #0
 80035b6:	643b      	str	r3, [r7, #64]	@ 0x40
 80035b8:	2300      	movs	r3, #0
 80035ba:	64bb      	str	r3, [r7, #72]	@ 0x48
 80035bc:	4b79      	ldr	r3, [pc, #484]	@ (80037a4 <HAL_RCC_GetSysClockFreq+0x200>)
 80035be:	689b      	ldr	r3, [r3, #8]
 80035c0:	f003 030c 	and.w	r3, r3, #12
 80035c4:	2b08      	cmp	r3, #8
 80035c6:	d00d      	beq.n	80035e4 <HAL_RCC_GetSysClockFreq+0x40>
 80035c8:	2b08      	cmp	r3, #8
 80035ca:	f200 80e1 	bhi.w	8003790 <HAL_RCC_GetSysClockFreq+0x1ec>
 80035ce:	2b00      	cmp	r3, #0
 80035d0:	d002      	beq.n	80035d8 <HAL_RCC_GetSysClockFreq+0x34>
 80035d2:	2b04      	cmp	r3, #4
 80035d4:	d003      	beq.n	80035de <HAL_RCC_GetSysClockFreq+0x3a>
 80035d6:	e0db      	b.n	8003790 <HAL_RCC_GetSysClockFreq+0x1ec>
 80035d8:	4b73      	ldr	r3, [pc, #460]	@ (80037a8 <HAL_RCC_GetSysClockFreq+0x204>)
 80035da:	64bb      	str	r3, [r7, #72]	@ 0x48
 80035dc:	e0db      	b.n	8003796 <HAL_RCC_GetSysClockFreq+0x1f2>
 80035de:	4b73      	ldr	r3, [pc, #460]	@ (80037ac <HAL_RCC_GetSysClockFreq+0x208>)
 80035e0:	64bb      	str	r3, [r7, #72]	@ 0x48
 80035e2:	e0d8      	b.n	8003796 <HAL_RCC_GetSysClockFreq+0x1f2>
 80035e4:	4b6f      	ldr	r3, [pc, #444]	@ (80037a4 <HAL_RCC_GetSysClockFreq+0x200>)
 80035e6:	685b      	ldr	r3, [r3, #4]
 80035e8:	f003 033f 	and.w	r3, r3, #63	@ 0x3f
 80035ec:	647b      	str	r3, [r7, #68]	@ 0x44
 80035ee:	4b6d      	ldr	r3, [pc, #436]	@ (80037a4 <HAL_RCC_GetSysClockFreq+0x200>)
 80035f0:	685b      	ldr	r3, [r3, #4]
 80035f2:	f403 0380 	and.w	r3, r3, #4194304	@ 0x400000
 80035f6:	2b00      	cmp	r3, #0
 80035f8:	d063      	beq.n	80036c2 <HAL_RCC_GetSysClockFreq+0x11e>
 80035fa:	4b6a      	ldr	r3, [pc, #424]	@ (80037a4 <HAL_RCC_GetSysClockFreq+0x200>)
 80035fc:	685b      	ldr	r3, [r3, #4]
 80035fe:	099b      	lsrs	r3, r3, #6
 8003600:	2200      	movs	r2, #0
 8003602:	63bb      	str	r3, [r7, #56]	@ 0x38
 8003604:	63fa      	str	r2, [r7, #60]	@ 0x3c
 8003606:	6bbb      	ldr	r3, [r7, #56]	@ 0x38
 8003608:	f3c3 0308 	ubfx	r3, r3, #0, #9
 800360c:	633b      	str	r3, [r7, #48]	@ 0x30
 800360e:	2300      	movs	r3, #0
 8003610:	637b      	str	r3, [r7, #52]	@ 0x34
 8003612:	e9d7 450c 	ldrd	r4, r5, [r7, #48]	@ 0x30
 8003616:	4622      	mov	r2, r4
 8003618:	462b      	mov	r3, r5
 800361a:	f04f 0000 	mov.w	r0, #0
 800361e:	f04f 0100 	mov.w	r1, #0
 8003622:	0159      	lsls	r1, r3, #5
 8003624:	ea41 61d2 	orr.w	r1, r1, r2, lsr #27
 8003628:	0150      	lsls	r0, r2, #5
 800362a:	4602      	mov	r2, r0
 800362c:	460b      	mov	r3, r1
 800362e:	4621      	mov	r1, r4
 8003630:	1a51      	subs	r1, r2, r1
 8003632:	6139      	str	r1, [r7, #16]
 8003634:	4629      	mov	r1, r5
 8003636:	eb63 0301 	sbc.w	r3, r3, r1
 800363a:	617b      	str	r3, [r7, #20]
 800363c:	f04f 0200 	mov.w	r2, #0
 8003640:	f04f 0300 	mov.w	r3, #0
 8003644:	e9d7 ab04 	ldrd	sl, fp, [r7, #16]
 8003648:	4659      	mov	r1, fp
 800364a:	018b      	lsls	r3, r1, #6
 800364c:	4651      	mov	r1, sl
 800364e:	ea43 6391 	orr.w	r3, r3, r1, lsr #26
 8003652:	4651      	mov	r1, sl
 8003654:	018a      	lsls	r2, r1, #6
 8003656:	4651      	mov	r1, sl
 8003658:	ebb2 0801 	subs.w	r8, r2, r1
 800365c:	4659      	mov	r1, fp
 800365e:	eb63 0901 	sbc.w	r9, r3, r1
 8003662:	f04f 0200 	mov.w	r2, #0
 8003666:	f04f 0300 	mov.w	r3, #0
 800366a:	ea4f 03c9 	mov.w	r3, r9, lsl #3
 800366e:	ea43 7358 	orr.w	r3, r3, r8, lsr #29
 8003672:	ea4f 02c8 	mov.w	r2, r8, lsl #3
 8003676:	4690      	mov	r8, r2
 8003678:	4699      	mov	r9, r3
 800367a:	4623      	mov	r3, r4
 800367c:	eb18 0303 	adds.w	r3, r8, r3
 8003680:	60bb      	str	r3, [r7, #8]
 8003682:	462b      	mov	r3, r5
 8003684:	eb49 0303 	adc.w	r3, r9, r3
 8003688:	60fb      	str	r3, [r7, #12]
 800368a:	f04f 0200 	mov.w	r2, #0
 800368e:	f04f 0300 	mov.w	r3, #0
 8003692:	e9d7 4502 	ldrd	r4, r5, [r7, #8]
 8003696:	4629      	mov	r1, r5
 8003698:	024b      	lsls	r3, r1, #9
 800369a:	4621      	mov	r1, r4
 800369c:	ea43 53d1 	orr.w	r3, r3, r1, lsr #23
 80036a0:	4621      	mov	r1, r4
 80036a2:	024a      	lsls	r2, r1, #9
 80036a4:	4610      	mov	r0, r2
 80036a6:	4619      	mov	r1, r3
 80036a8:	6c7b      	ldr	r3, [r7, #68]	@ 0x44
 80036aa:	2200      	movs	r2, #0
 80036ac:	62bb      	str	r3, [r7, #40]	@ 0x28
 80036ae:	62fa      	str	r2, [r7, #44]	@ 0x2c
 80036b0:	e9d7 230a 	ldrd	r2, r3, [r7, #40]	@ 0x28
 80036b4:	f7fc fe1c 	bl	80002f0 <__aeabi_uldivmod>
 80036b8:	4602      	mov	r2, r0
 80036ba:	460b      	mov	r3, r1
 80036bc:	4613      	mov	r3, r2
 80036be:	64fb      	str	r3, [r7, #76]	@ 0x4c
 80036c0:	e058      	b.n	8003774 <HAL_RCC_GetSysClockFreq+0x1d0>
 80036c2:	4b38      	ldr	r3, [pc, #224]	@ (80037a4 <HAL_RCC_GetSysClockFreq+0x200>)
 80036c4:	685b      	ldr	r3, [r3, #4]
 80036c6:	099b      	lsrs	r3, r3, #6
 80036c8:	2200      	movs	r2, #0
 80036ca:	4618      	mov	r0, r3
 80036cc:	4611      	mov	r1, r2
 80036ce:	f3c0 0308 	ubfx	r3, r0, #0, #9
 80036d2:	623b      	str	r3, [r7, #32]
 80036d4:	2300      	movs	r3, #0
 80036d6:	627b      	str	r3, [r7, #36]	@ 0x24
 80036d8:	e9d7 8908 	ldrd	r8, r9, [r7, #32]
 80036dc:	4642      	mov	r2, r8
 80036de:	464b      	mov	r3, r9
 80036e0:	f04f 0000 	mov.w	r0, #0
 80036e4:	f04f 0100 	mov.w	r1, #0
 80036e8:	0159      	lsls	r1, r3, #5
 80036ea:	ea41 61d2 	orr.w	r1, r1, r2, lsr #27
 80036ee:	0150      	lsls	r0, r2, #5
 80036f0:	4602      	mov	r2, r0
 80036f2:	460b      	mov	r3, r1
 80036f4:	4641      	mov	r1, r8
 80036f6:	ebb2 0a01 	subs.w	sl, r2, r1
 80036fa:	4649      	mov	r1, r9
 80036fc:	eb63 0b01 	sbc.w	fp, r3, r1
 8003700:	f04f 0200 	mov.w	r2, #0
 8003704:	f04f 0300 	mov.w	r3, #0
 8003708:	ea4f 138b 	mov.w	r3, fp, lsl #6
 800370c:	ea43 639a 	orr.w	r3, r3, sl, lsr #26
 8003710:	ea4f 128a 	mov.w	r2, sl, lsl #6
 8003714:	ebb2 040a 	subs.w	r4, r2, sl
 8003718:	eb63 050b 	sbc.w	r5, r3, fp
 800371c:	f04f 0200 	mov.w	r2, #0
 8003720:	f04f 0300 	mov.w	r3, #0
 8003724:	00eb      	lsls	r3, r5, #3
 8003726:	ea43 7354 	orr.w	r3, r3, r4, lsr #29
 800372a:	00e2      	lsls	r2, r4, #3
 800372c:	4614      	mov	r4, r2
 800372e:	461d      	mov	r5, r3
 8003730:	4643      	mov	r3, r8
 8003732:	18e3      	adds	r3, r4, r3
 8003734:	603b      	str	r3, [r7, #0]
 8003736:	464b      	mov	r3, r9
 8003738:	eb45 0303 	adc.w	r3, r5, r3
 800373c:	607b      	str	r3, [r7, #4]
 800373e:	f04f 0200 	mov.w	r2, #0
 8003742:	f04f 0300 	mov.w	r3, #0
 8003746:	e9d7 4500 	ldrd	r4, r5, [r7]
 800374a:	4629      	mov	r1, r5
 800374c:	028b      	lsls	r3, r1, #10
 800374e:	4621      	mov	r1, r4
 8003750:	ea43 5391 	orr.w	r3, r3, r1, lsr #22
 8003754:	4621      	mov	r1, r4
 8003756:	028a      	lsls	r2, r1, #10
 8003758:	4610      	mov	r0, r2
 800375a:	4619      	mov	r1, r3
 800375c:	6c7b      	ldr	r3, [r7, #68]	@ 0x44
 800375e:	2200      	movs	r2, #0
 8003760:	61bb      	str	r3, [r7, #24]
 8003762:	61fa      	str	r2, [r7, #28]
 8003764:	e9d7 2306 	ldrd	r2, r3, [r7, #24]
 8003768:	f7fc fdc2 	bl	80002f0 <__aeabi_uldivmod>
 800376c:	4602      	mov	r2, r0
 800376e:	460b      	mov	r3, r1
 8003770:	4613      	mov	r3, r2
 8003772:	64fb      	str	r3, [r7, #76]	@ 0x4c
 8003774:	4b0b      	ldr	r3, [pc, #44]	@ (80037a4 <HAL_RCC_GetSysClockFreq+0x200>)
 8003776:	685b      	ldr	r3, [r3, #4]
 8003778:	0c1b      	lsrs	r3, r3, #16
 800377a:	f003 0303 	and.w	r3, r3, #3
 800377e:	3301      	adds	r3, #1
 8003780:	005b      	lsls	r3, r3, #1
 8003782:	643b      	str	r3, [r7, #64]	@ 0x40
 8003784:	6cfa      	ldr	r2, [r7, #76]	@ 0x4c
 8003786:	6c3b      	ldr	r3, [r7, #64]	@ 0x40
 8003788:	fbb2 f3f3 	udiv	r3, r2, r3
 800378c:	64bb      	str	r3, [r7, #72]	@ 0x48
 800378e:	e002      	b.n	8003796 <HAL_RCC_GetSysClockFreq+0x1f2>
 8003790:	4b05      	ldr	r3, [pc, #20]	@ (80037a8 <HAL_RCC_GetSysClockFreq+0x204>)
 8003792:	64bb      	str	r3, [r7, #72]	@ 0x48
 8003794:	bf00      	nop
 8003796:	6cbb      	ldr	r3, [r7, #72]	@ 0x48
 8003798:	4618      	mov	r0, r3
 800379a:	3750      	adds	r7, #80	@ 0x50
 800379c:	46bd      	mov	sp, r7
 800379e:	e8bd 8fb0 	ldmia.w	sp!, {r4, r5, r7, r8, r9, sl, fp, pc}
 80037a2:	bf00      	nop
 80037a4:	40023800 	.word	0x40023800
 80037a8:	00f42400 	.word	0x00f42400
 80037ac:	007a1200 	.word	0x007a1200

080037b0 <HAL_RCC_GetHCLKFreq>:
 80037b0:	b480      	push	{r7}
 80037b2:	af00      	add	r7, sp, #0
 80037b4:	4b03      	ldr	r3, [pc, #12]	@ (80037c4 <HAL_RCC_GetHCLKFreq+0x14>)
 80037b6:	681b      	ldr	r3, [r3, #0]
 80037b8:	4618      	mov	r0, r3
 80037ba:	46bd      	mov	sp, r7
 80037bc:	f85d 7b04 	ldr.w	r7, [sp], #4
 80037c0:	4770      	bx	lr
 80037c2:	bf00      	nop
 80037c4:	20000014 	.word	0x20000014

080037c8 <HAL_RCC_GetPCLK1Freq>:
 80037c8:	b580      	push	{r7, lr}
 80037ca:	af00      	add	r7, sp, #0
 80037cc:	f7ff fff0 	bl	80037b0 <HAL_RCC_GetHCLKFreq>
 80037d0:	4602      	mov	r2, r0
 80037d2:	4b05      	ldr	r3, [pc, #20]	@ (80037e8 <HAL_RCC_GetPCLK1Freq+0x20>)
 80037d4:	689b      	ldr	r3, [r3, #8]
 80037d6:	0a9b      	lsrs	r3, r3, #10
 80037d8:	f003 0307 	and.w	r3, r3, #7
 80037dc:	4903      	ldr	r1, [pc, #12]	@ (80037ec <HAL_RCC_GetPCLK1Freq+0x24>)
 80037de:	5ccb      	ldrb	r3, [r1, r3]
 80037e0:	fa22 f303 	lsr.w	r3, r2, r3
 80037e4:	4618      	mov	r0, r3
 80037e6:	bd80      	pop	{r7, pc}
 80037e8:	40023800 	.word	0x40023800
 80037ec:	08007f5c 	.word	0x08007f5c

080037f0 <HAL_RCC_GetPCLK2Freq>:
 80037f0:	b580      	push	{r7, lr}
 80037f2:	af00      	add	r7, sp, #0
 80037f4:	f7ff ffdc 	bl	80037b0 <HAL_RCC_GetHCLKFreq>
 80037f8:	4602      	mov	r2, r0
 80037fa:	4b05      	ldr	r3, [pc, #20]	@ (8003810 <HAL_RCC_GetPCLK2Freq+0x20>)
 80037fc:	689b      	ldr	r3, [r3, #8]
 80037fe:	0b5b      	lsrs	r3, r3, #13
 8003800:	f003 0307 	and.w	r3, r3, #7
 8003804:	4903      	ldr	r1, [pc, #12]	@ (8003814 <HAL_RCC_GetPCLK2Freq+0x24>)
 8003806:	5ccb      	ldrb	r3, [r1, r3]
 8003808:	fa22 f303 	lsr.w	r3, r2, r3
 800380c:	4618      	mov	r0, r3
 800380e:	bd80      	pop	{r7, pc}
 8003810:	40023800 	.word	0x40023800
 8003814:	08007f5c 	.word	0x08007f5c

08003818 <HAL_RCCEx_PeriphCLKConfig>:
 8003818:	b580      	push	{r7, lr}
 800381a:	b088      	sub	sp, #32
 800381c:	af00      	add	r7, sp, #0
 800381e:	6078      	str	r0, [r7, #4]
 8003820:	2300      	movs	r3, #0
 8003822:	617b      	str	r3, [r7, #20]
 8003824:	2300      	movs	r3, #0
 8003826:	613b      	str	r3, [r7, #16]
 8003828:	2300      	movs	r3, #0
 800382a:	60fb      	str	r3, [r7, #12]
 800382c:	2300      	movs	r3, #0
 800382e:	61fb      	str	r3, [r7, #28]
 8003830:	2300      	movs	r3, #0
 8003832:	61bb      	str	r3, [r7, #24]
 8003834:	687b      	ldr	r3, [r7, #4]
 8003836:	681b      	ldr	r3, [r3, #0]
 8003838:	f003 0301 	and.w	r3, r3, #1
 800383c:	2b00      	cmp	r3, #0
 800383e:	d012      	beq.n	8003866 <HAL_RCCEx_PeriphCLKConfig+0x4e>
 8003840:	4b69      	ldr	r3, [pc, #420]	@ (80039e8 <HAL_RCCEx_PeriphCLKConfig+0x1d0>)
 8003842:	689b      	ldr	r3, [r3, #8]
 8003844:	4a68      	ldr	r2, [pc, #416]	@ (80039e8 <HAL_RCCEx_PeriphCLKConfig+0x1d0>)
 8003846:	f423 0300 	bic.w	r3, r3, #8388608	@ 0x800000
 800384a:	6093      	str	r3, [r2, #8]
 800384c:	4b66      	ldr	r3, [pc, #408]	@ (80039e8 <HAL_RCCEx_PeriphCLKConfig+0x1d0>)
 800384e:	689a      	ldr	r2, [r3, #8]
 8003850:	687b      	ldr	r3, [r7, #4]
 8003852:	6b5b      	ldr	r3, [r3, #52]	@ 0x34
 8003854:	4964      	ldr	r1, [pc, #400]	@ (80039e8 <HAL_RCCEx_PeriphCLKConfig+0x1d0>)
 8003856:	4313      	orrs	r3, r2
 8003858:	608b      	str	r3, [r1, #8]
 800385a:	687b      	ldr	r3, [r7, #4]
 800385c:	6b5b      	ldr	r3, [r3, #52]	@ 0x34
 800385e:	2b00      	cmp	r3, #0
 8003860:	d101      	bne.n	8003866 <HAL_RCCEx_PeriphCLKConfig+0x4e>
 8003862:	2301      	movs	r3, #1
 8003864:	61fb      	str	r3, [r7, #28]
 8003866:	687b      	ldr	r3, [r7, #4]
 8003868:	681b      	ldr	r3, [r3, #0]
 800386a:	f403 2300 	and.w	r3, r3, #524288	@ 0x80000
 800386e:	2b00      	cmp	r3, #0
 8003870:	d017      	beq.n	80038a2 <HAL_RCCEx_PeriphCLKConfig+0x8a>
 8003872:	4b5d      	ldr	r3, [pc, #372]	@ (80039e8 <HAL_RCCEx_PeriphCLKConfig+0x1d0>)
 8003874:	f8d3 308c 	ldr.w	r3, [r3, #140]	@ 0x8c
 8003878:	f423 1240 	bic.w	r2, r3, #3145728	@ 0x300000
 800387c:	687b      	ldr	r3, [r7, #4]
 800387e:	6bdb      	ldr	r3, [r3, #60]	@ 0x3c
 8003880:	4959      	ldr	r1, [pc, #356]	@ (80039e8 <HAL_RCCEx_PeriphCLKConfig+0x1d0>)
 8003882:	4313      	orrs	r3, r2
 8003884:	f8c1 308c 	str.w	r3, [r1, #140]	@ 0x8c
 8003888:	687b      	ldr	r3, [r7, #4]
 800388a:	6bdb      	ldr	r3, [r3, #60]	@ 0x3c
 800388c:	f5b3 1f80 	cmp.w	r3, #1048576	@ 0x100000
 8003890:	d101      	bne.n	8003896 <HAL_RCCEx_PeriphCLKConfig+0x7e>
 8003892:	2301      	movs	r3, #1
 8003894:	61fb      	str	r3, [r7, #28]
 8003896:	687b      	ldr	r3, [r7, #4]
 8003898:	6bdb      	ldr	r3, [r3, #60]	@ 0x3c
 800389a:	2b00      	cmp	r3, #0
 800389c:	d101      	bne.n	80038a2 <HAL_RCCEx_PeriphCLKConfig+0x8a>
 800389e:	2301      	movs	r3, #1
 80038a0:	61bb      	str	r3, [r7, #24]
 80038a2:	687b      	ldr	r3, [r7, #4]
 80038a4:	681b      	ldr	r3, [r3, #0]
 80038a6:	f403 1380 	and.w	r3, r3, #1048576	@ 0x100000
 80038aa:	2b00      	cmp	r3, #0
 80038ac:	d017      	beq.n	80038de <HAL_RCCEx_PeriphCLKConfig+0xc6>
 80038ae:	4b4e      	ldr	r3, [pc, #312]	@ (80039e8 <HAL_RCCEx_PeriphCLKConfig+0x1d0>)
 80038b0:	f8d3 308c 	ldr.w	r3, [r3, #140]	@ 0x8c
 80038b4:	f423 0240 	bic.w	r2, r3, #12582912	@ 0xc00000
 80038b8:	687b      	ldr	r3, [r7, #4]
 80038ba:	6c1b      	ldr	r3, [r3, #64]	@ 0x40
 80038bc:	494a      	ldr	r1, [pc, #296]	@ (80039e8 <HAL_RCCEx_PeriphCLKConfig+0x1d0>)
 80038be:	4313      	orrs	r3, r2
 80038c0:	f8c1 308c 	str.w	r3, [r1, #140]	@ 0x8c
 80038c4:	687b      	ldr	r3, [r7, #4]
 80038c6:	6c1b      	ldr	r3, [r3, #64]	@ 0x40
 80038c8:	f5b3 0f80 	cmp.w	r3, #4194304	@ 0x400000
 80038cc:	d101      	bne.n	80038d2 <HAL_RCCEx_PeriphCLKConfig+0xba>
 80038ce:	2301      	movs	r3, #1
 80038d0:	61fb      	str	r3, [r7, #28]
 80038d2:	687b      	ldr	r3, [r7, #4]
 80038d4:	6c1b      	ldr	r3, [r3, #64]	@ 0x40
 80038d6:	2b00      	cmp	r3, #0
 80038d8:	d101      	bne.n	80038de <HAL_RCCEx_PeriphCLKConfig+0xc6>
 80038da:	2301      	movs	r3, #1
 80038dc:	61bb      	str	r3, [r7, #24]
 80038de:	687b      	ldr	r3, [r7, #4]
 80038e0:	681b      	ldr	r3, [r3, #0]
 80038e2:	f003 7380 	and.w	r3, r3, #16777216	@ 0x1000000
 80038e6:	2b00      	cmp	r3, #0
 80038e8:	d001      	beq.n	80038ee <HAL_RCCEx_PeriphCLKConfig+0xd6>
 80038ea:	2301      	movs	r3, #1
 80038ec:	61fb      	str	r3, [r7, #28]
 80038ee:	687b      	ldr	r3, [r7, #4]
 80038f0:	681b      	ldr	r3, [r3, #0]
 80038f2:	f003 0320 	and.w	r3, r3, #32
 80038f6:	2b00      	cmp	r3, #0
 80038f8:	f000 808b 	beq.w	8003a12 <HAL_RCCEx_PeriphCLKConfig+0x1fa>
 80038fc:	4b3a      	ldr	r3, [pc, #232]	@ (80039e8 <HAL_RCCEx_PeriphCLKConfig+0x1d0>)
 80038fe:	6c1b      	ldr	r3, [r3, #64]	@ 0x40
 8003900:	4a39      	ldr	r2, [pc, #228]	@ (80039e8 <HAL_RCCEx_PeriphCLKConfig+0x1d0>)
 8003902:	f043 5380 	orr.w	r3, r3, #268435456	@ 0x10000000
 8003906:	6413      	str	r3, [r2, #64]	@ 0x40
 8003908:	4b37      	ldr	r3, [pc, #220]	@ (80039e8 <HAL_RCCEx_PeriphCLKConfig+0x1d0>)
 800390a:	6c1b      	ldr	r3, [r3, #64]	@ 0x40
 800390c:	f003 5380 	and.w	r3, r3, #268435456	@ 0x10000000
 8003910:	60bb      	str	r3, [r7, #8]
 8003912:	68bb      	ldr	r3, [r7, #8]
 8003914:	4b35      	ldr	r3, [pc, #212]	@ (80039ec <HAL_RCCEx_PeriphCLKConfig+0x1d4>)
 8003916:	681b      	ldr	r3, [r3, #0]
 8003918:	4a34      	ldr	r2, [pc, #208]	@ (80039ec <HAL_RCCEx_PeriphCLKConfig+0x1d4>)
 800391a:	f443 7380 	orr.w	r3, r3, #256	@ 0x100
 800391e:	6013      	str	r3, [r2, #0]
 8003920:	f7fe ff0e 	bl	8002740 <HAL_GetTick>
 8003924:	6178      	str	r0, [r7, #20]
 8003926:	e008      	b.n	800393a <HAL_RCCEx_PeriphCLKConfig+0x122>
 8003928:	f7fe ff0a 	bl	8002740 <HAL_GetTick>
 800392c:	4602      	mov	r2, r0
 800392e:	697b      	ldr	r3, [r7, #20]
 8003930:	1ad3      	subs	r3, r2, r3
 8003932:	2b64      	cmp	r3, #100	@ 0x64
 8003934:	d901      	bls.n	800393a <HAL_RCCEx_PeriphCLKConfig+0x122>
 8003936:	2303      	movs	r3, #3
 8003938:	e38f      	b.n	800405a <HAL_RCCEx_PeriphCLKConfig+0x842>
 800393a:	4b2c      	ldr	r3, [pc, #176]	@ (80039ec <HAL_RCCEx_PeriphCLKConfig+0x1d4>)
 800393c:	681b      	ldr	r3, [r3, #0]
 800393e:	f403 7380 	and.w	r3, r3, #256	@ 0x100
 8003942:	2b00      	cmp	r3, #0
 8003944:	d0f0      	beq.n	8003928 <HAL_RCCEx_PeriphCLKConfig+0x110>
 8003946:	4b28      	ldr	r3, [pc, #160]	@ (80039e8 <HAL_RCCEx_PeriphCLKConfig+0x1d0>)
 8003948:	6f1b      	ldr	r3, [r3, #112]	@ 0x70
 800394a:	f403 7340 	and.w	r3, r3, #768	@ 0x300
 800394e:	613b      	str	r3, [r7, #16]
 8003950:	693b      	ldr	r3, [r7, #16]
 8003952:	2b00      	cmp	r3, #0
 8003954:	d035      	beq.n	80039c2 <HAL_RCCEx_PeriphCLKConfig+0x1aa>
 8003956:	687b      	ldr	r3, [r7, #4]
 8003958:	6b1b      	ldr	r3, [r3, #48]	@ 0x30
 800395a:	f403 7340 	and.w	r3, r3, #768	@ 0x300
 800395e:	693a      	ldr	r2, [r7, #16]
 8003960:	429a      	cmp	r2, r3
 8003962:	d02e      	beq.n	80039c2 <HAL_RCCEx_PeriphCLKConfig+0x1aa>
 8003964:	4b20      	ldr	r3, [pc, #128]	@ (80039e8 <HAL_RCCEx_PeriphCLKConfig+0x1d0>)
 8003966:	6f1b      	ldr	r3, [r3, #112]	@ 0x70
 8003968:	f423 7340 	bic.w	r3, r3, #768	@ 0x300
 800396c:	613b      	str	r3, [r7, #16]
 800396e:	4b1e      	ldr	r3, [pc, #120]	@ (80039e8 <HAL_RCCEx_PeriphCLKConfig+0x1d0>)
 8003970:	6f1b      	ldr	r3, [r3, #112]	@ 0x70
 8003972:	4a1d      	ldr	r2, [pc, #116]	@ (80039e8 <HAL_RCCEx_PeriphCLKConfig+0x1d0>)
 8003974:	f443 3380 	orr.w	r3, r3, #65536	@ 0x10000
 8003978:	6713      	str	r3, [r2, #112]	@ 0x70
 800397a:	4b1b      	ldr	r3, [pc, #108]	@ (80039e8 <HAL_RCCEx_PeriphCLKConfig+0x1d0>)
 800397c:	6f1b      	ldr	r3, [r3, #112]	@ 0x70
 800397e:	4a1a      	ldr	r2, [pc, #104]	@ (80039e8 <HAL_RCCEx_PeriphCLKConfig+0x1d0>)
 8003980:	f423 3380 	bic.w	r3, r3, #65536	@ 0x10000
 8003984:	6713      	str	r3, [r2, #112]	@ 0x70
 8003986:	4a18      	ldr	r2, [pc, #96]	@ (80039e8 <HAL_RCCEx_PeriphCLKConfig+0x1d0>)
 8003988:	693b      	ldr	r3, [r7, #16]
 800398a:	6713      	str	r3, [r2, #112]	@ 0x70
 800398c:	4b16      	ldr	r3, [pc, #88]	@ (80039e8 <HAL_RCCEx_PeriphCLKConfig+0x1d0>)
 800398e:	6f1b      	ldr	r3, [r3, #112]	@ 0x70
 8003990:	f003 0301 	and.w	r3, r3, #1
 8003994:	2b01      	cmp	r3, #1
 8003996:	d114      	bne.n	80039c2 <HAL_RCCEx_PeriphCLKConfig+0x1aa>
 8003998:	f7fe fed2 	bl	8002740 <HAL_GetTick>
 800399c:	6178      	str	r0, [r7, #20]
 800399e:	e00a      	b.n	80039b6 <HAL_RCCEx_PeriphCLKConfig+0x19e>
 80039a0:	f7fe fece 	bl	8002740 <HAL_GetTick>
 80039a4:	4602      	mov	r2, r0
 80039a6:	697b      	ldr	r3, [r7, #20]
 80039a8:	1ad3      	subs	r3, r2, r3
 80039aa:	f241 3288 	movw	r2, #5000	@ 0x1388
 80039ae:	4293      	cmp	r3, r2
 80039b0:	d901      	bls.n	80039b6 <HAL_RCCEx_PeriphCLKConfig+0x19e>
 80039b2:	2303      	movs	r3, #3
 80039b4:	e351      	b.n	800405a <HAL_RCCEx_PeriphCLKConfig+0x842>
 80039b6:	4b0c      	ldr	r3, [pc, #48]	@ (80039e8 <HAL_RCCEx_PeriphCLKConfig+0x1d0>)
 80039b8:	6f1b      	ldr	r3, [r3, #112]	@ 0x70
 80039ba:	f003 0302 	and.w	r3, r3, #2
 80039be:	2b00      	cmp	r3, #0
 80039c0:	d0ee      	beq.n	80039a0 <HAL_RCCEx_PeriphCLKConfig+0x188>
 80039c2:	687b      	ldr	r3, [r7, #4]
 80039c4:	6b1b      	ldr	r3, [r3, #48]	@ 0x30
 80039c6:	f403 7340 	and.w	r3, r3, #768	@ 0x300
 80039ca:	f5b3 7f40 	cmp.w	r3, #768	@ 0x300
 80039ce:	d111      	bne.n	80039f4 <HAL_RCCEx_PeriphCLKConfig+0x1dc>
 80039d0:	4b05      	ldr	r3, [pc, #20]	@ (80039e8 <HAL_RCCEx_PeriphCLKConfig+0x1d0>)
 80039d2:	689b      	ldr	r3, [r3, #8]
 80039d4:	f423 12f8 	bic.w	r2, r3, #2031616	@ 0x1f0000
 80039d8:	687b      	ldr	r3, [r7, #4]
 80039da:	6b19      	ldr	r1, [r3, #48]	@ 0x30
 80039dc:	4b04      	ldr	r3, [pc, #16]	@ (80039f0 <HAL_RCCEx_PeriphCLKConfig+0x1d8>)
 80039de:	400b      	ands	r3, r1
 80039e0:	4901      	ldr	r1, [pc, #4]	@ (80039e8 <HAL_RCCEx_PeriphCLKConfig+0x1d0>)
 80039e2:	4313      	orrs	r3, r2
 80039e4:	608b      	str	r3, [r1, #8]
 80039e6:	e00b      	b.n	8003a00 <HAL_RCCEx_PeriphCLKConfig+0x1e8>
 80039e8:	40023800 	.word	0x40023800
 80039ec:	40007000 	.word	0x40007000
 80039f0:	0ffffcff 	.word	0x0ffffcff
 80039f4:	4bac      	ldr	r3, [pc, #688]	@ (8003ca8 <HAL_RCCEx_PeriphCLKConfig+0x490>)
 80039f6:	689b      	ldr	r3, [r3, #8]
 80039f8:	4aab      	ldr	r2, [pc, #684]	@ (8003ca8 <HAL_RCCEx_PeriphCLKConfig+0x490>)
 80039fa:	f423 13f8 	bic.w	r3, r3, #2031616	@ 0x1f0000
 80039fe:	6093      	str	r3, [r2, #8]
 8003a00:	4ba9      	ldr	r3, [pc, #676]	@ (8003ca8 <HAL_RCCEx_PeriphCLKConfig+0x490>)
 8003a02:	6f1a      	ldr	r2, [r3, #112]	@ 0x70
 8003a04:	687b      	ldr	r3, [r7, #4]
 8003a06:	6b1b      	ldr	r3, [r3, #48]	@ 0x30
 8003a08:	f3c3 030b 	ubfx	r3, r3, #0, #12
 8003a0c:	49a6      	ldr	r1, [pc, #664]	@ (8003ca8 <HAL_RCCEx_PeriphCLKConfig+0x490>)
 8003a0e:	4313      	orrs	r3, r2
 8003a10:	670b      	str	r3, [r1, #112]	@ 0x70
 8003a12:	687b      	ldr	r3, [r7, #4]
 8003a14:	681b      	ldr	r3, [r3, #0]
 8003a16:	f003 0310 	and.w	r3, r3, #16
 8003a1a:	2b00      	cmp	r3, #0
 8003a1c:	d010      	beq.n	8003a40 <HAL_RCCEx_PeriphCLKConfig+0x228>
 8003a1e:	4ba2      	ldr	r3, [pc, #648]	@ (8003ca8 <HAL_RCCEx_PeriphCLKConfig+0x490>)
 8003a20:	f8d3 308c 	ldr.w	r3, [r3, #140]	@ 0x8c
 8003a24:	4aa0      	ldr	r2, [pc, #640]	@ (8003ca8 <HAL_RCCEx_PeriphCLKConfig+0x490>)
 8003a26:	f023 7380 	bic.w	r3, r3, #16777216	@ 0x1000000
 8003a2a:	f8c2 308c 	str.w	r3, [r2, #140]	@ 0x8c
 8003a2e:	4b9e      	ldr	r3, [pc, #632]	@ (8003ca8 <HAL_RCCEx_PeriphCLKConfig+0x490>)
 8003a30:	f8d3 208c 	ldr.w	r2, [r3, #140]	@ 0x8c
 8003a34:	687b      	ldr	r3, [r7, #4]
 8003a36:	6b9b      	ldr	r3, [r3, #56]	@ 0x38
 8003a38:	499b      	ldr	r1, [pc, #620]	@ (8003ca8 <HAL_RCCEx_PeriphCLKConfig+0x490>)
 8003a3a:	4313      	orrs	r3, r2
 8003a3c:	f8c1 308c 	str.w	r3, [r1, #140]	@ 0x8c
 8003a40:	687b      	ldr	r3, [r7, #4]
 8003a42:	681b      	ldr	r3, [r3, #0]
 8003a44:	f403 4380 	and.w	r3, r3, #16384	@ 0x4000
 8003a48:	2b00      	cmp	r3, #0
 8003a4a:	d00a      	beq.n	8003a62 <HAL_RCCEx_PeriphCLKConfig+0x24a>
 8003a4c:	4b96      	ldr	r3, [pc, #600]	@ (8003ca8 <HAL_RCCEx_PeriphCLKConfig+0x490>)
 8003a4e:	f8d3 3090 	ldr.w	r3, [r3, #144]	@ 0x90
 8003a52:	f423 3240 	bic.w	r2, r3, #196608	@ 0x30000
 8003a56:	687b      	ldr	r3, [r7, #4]
 8003a58:	6e5b      	ldr	r3, [r3, #100]	@ 0x64
 8003a5a:	4993      	ldr	r1, [pc, #588]	@ (8003ca8 <HAL_RCCEx_PeriphCLKConfig+0x490>)
 8003a5c:	4313      	orrs	r3, r2
 8003a5e:	f8c1 3090 	str.w	r3, [r1, #144]	@ 0x90
 8003a62:	687b      	ldr	r3, [r7, #4]
 8003a64:	681b      	ldr	r3, [r3, #0]
 8003a66:	f403 4300 	and.w	r3, r3, #32768	@ 0x8000
 8003a6a:	2b00      	cmp	r3, #0
 8003a6c:	d00a      	beq.n	8003a84 <HAL_RCCEx_PeriphCLKConfig+0x26c>
 8003a6e:	4b8e      	ldr	r3, [pc, #568]	@ (8003ca8 <HAL_RCCEx_PeriphCLKConfig+0x490>)
 8003a70:	f8d3 3090 	ldr.w	r3, [r3, #144]	@ 0x90
 8003a74:	f423 2240 	bic.w	r2, r3, #786432	@ 0xc0000
 8003a78:	687b      	ldr	r3, [r7, #4]
 8003a7a:	6e9b      	ldr	r3, [r3, #104]	@ 0x68
 8003a7c:	498a      	ldr	r1, [pc, #552]	@ (8003ca8 <HAL_RCCEx_PeriphCLKConfig+0x490>)
 8003a7e:	4313      	orrs	r3, r2
 8003a80:	f8c1 3090 	str.w	r3, [r1, #144]	@ 0x90
 8003a84:	687b      	ldr	r3, [r7, #4]
 8003a86:	681b      	ldr	r3, [r3, #0]
 8003a88:	f403 3380 	and.w	r3, r3, #65536	@ 0x10000
 8003a8c:	2b00      	cmp	r3, #0
 8003a8e:	d00a      	beq.n	8003aa6 <HAL_RCCEx_PeriphCLKConfig+0x28e>
 8003a90:	4b85      	ldr	r3, [pc, #532]	@ (8003ca8 <HAL_RCCEx_PeriphCLKConfig+0x490>)
 8003a92:	f8d3 3090 	ldr.w	r3, [r3, #144]	@ 0x90
 8003a96:	f423 1240 	bic.w	r2, r3, #3145728	@ 0x300000
 8003a9a:	687b      	ldr	r3, [r7, #4]
 8003a9c:	6edb      	ldr	r3, [r3, #108]	@ 0x6c
 8003a9e:	4982      	ldr	r1, [pc, #520]	@ (8003ca8 <HAL_RCCEx_PeriphCLKConfig+0x490>)
 8003aa0:	4313      	orrs	r3, r2
 8003aa2:	f8c1 3090 	str.w	r3, [r1, #144]	@ 0x90
 8003aa6:	687b      	ldr	r3, [r7, #4]
 8003aa8:	681b      	ldr	r3, [r3, #0]
 8003aaa:	f403 3300 	and.w	r3, r3, #131072	@ 0x20000
 8003aae:	2b00      	cmp	r3, #0
 8003ab0:	d00a      	beq.n	8003ac8 <HAL_RCCEx_PeriphCLKConfig+0x2b0>
 8003ab2:	4b7d      	ldr	r3, [pc, #500]	@ (8003ca8 <HAL_RCCEx_PeriphCLKConfig+0x490>)
 8003ab4:	f8d3 3090 	ldr.w	r3, [r3, #144]	@ 0x90
 8003ab8:	f423 0240 	bic.w	r2, r3, #12582912	@ 0xc00000
 8003abc:	687b      	ldr	r3, [r7, #4]
 8003abe:	6f1b      	ldr	r3, [r3, #112]	@ 0x70
 8003ac0:	4979      	ldr	r1, [pc, #484]	@ (8003ca8 <HAL_RCCEx_PeriphCLKConfig+0x490>)
 8003ac2:	4313      	orrs	r3, r2
 8003ac4:	f8c1 3090 	str.w	r3, [r1, #144]	@ 0x90
 8003ac8:	687b      	ldr	r3, [r7, #4]
 8003aca:	681b      	ldr	r3, [r3, #0]
 8003acc:	f003 0340 	and.w	r3, r3, #64	@ 0x40
 8003ad0:	2b00      	cmp	r3, #0
 8003ad2:	d00a      	beq.n	8003aea <HAL_RCCEx_PeriphCLKConfig+0x2d2>
 8003ad4:	4b74      	ldr	r3, [pc, #464]	@ (8003ca8 <HAL_RCCEx_PeriphCLKConfig+0x490>)
 8003ad6:	f8d3 3090 	ldr.w	r3, [r3, #144]	@ 0x90
 8003ada:	f023 0203 	bic.w	r2, r3, #3
 8003ade:	687b      	ldr	r3, [r7, #4]
 8003ae0:	6c5b      	ldr	r3, [r3, #68]	@ 0x44
 8003ae2:	4971      	ldr	r1, [pc, #452]	@ (8003ca8 <HAL_RCCEx_PeriphCLKConfig+0x490>)
 8003ae4:	4313      	orrs	r3, r2
 8003ae6:	f8c1 3090 	str.w	r3, [r1, #144]	@ 0x90
 8003aea:	687b      	ldr	r3, [r7, #4]
 8003aec:	681b      	ldr	r3, [r3, #0]
 8003aee:	f003 0380 	and.w	r3, r3, #128	@ 0x80
 8003af2:	2b00      	cmp	r3, #0
 8003af4:	d00a      	beq.n	8003b0c <HAL_RCCEx_PeriphCLKConfig+0x2f4>
 8003af6:	4b6c      	ldr	r3, [pc, #432]	@ (8003ca8 <HAL_RCCEx_PeriphCLKConfig+0x490>)
 8003af8:	f8d3 3090 	ldr.w	r3, [r3, #144]	@ 0x90
 8003afc:	f023 020c 	bic.w	r2, r3, #12
 8003b00:	687b      	ldr	r3, [r7, #4]
 8003b02:	6c9b      	ldr	r3, [r3, #72]	@ 0x48
 8003b04:	4968      	ldr	r1, [pc, #416]	@ (8003ca8 <HAL_RCCEx_PeriphCLKConfig+0x490>)
 8003b06:	4313      	orrs	r3, r2
 8003b08:	f8c1 3090 	str.w	r3, [r1, #144]	@ 0x90
 8003b0c:	687b      	ldr	r3, [r7, #4]
 8003b0e:	681b      	ldr	r3, [r3, #0]
 8003b10:	f403 7380 	and.w	r3, r3, #256	@ 0x100
 8003b14:	2b00      	cmp	r3, #0
 8003b16:	d00a      	beq.n	8003b2e <HAL_RCCEx_PeriphCLKConfig+0x316>
 8003b18:	4b63      	ldr	r3, [pc, #396]	@ (8003ca8 <HAL_RCCEx_PeriphCLKConfig+0x490>)
 8003b1a:	f8d3 3090 	ldr.w	r3, [r3, #144]	@ 0x90
 8003b1e:	f023 0230 	bic.w	r2, r3, #48	@ 0x30
 8003b22:	687b      	ldr	r3, [r7, #4]
 8003b24:	6cdb      	ldr	r3, [r3, #76]	@ 0x4c
 8003b26:	4960      	ldr	r1, [pc, #384]	@ (8003ca8 <HAL_RCCEx_PeriphCLKConfig+0x490>)
 8003b28:	4313      	orrs	r3, r2
 8003b2a:	f8c1 3090 	str.w	r3, [r1, #144]	@ 0x90
 8003b2e:	687b      	ldr	r3, [r7, #4]
 8003b30:	681b      	ldr	r3, [r3, #0]
 8003b32:	f403 7300 	and.w	r3, r3, #512	@ 0x200
 8003b36:	2b00      	cmp	r3, #0
 8003b38:	d00a      	beq.n	8003b50 <HAL_RCCEx_PeriphCLKConfig+0x338>
 8003b3a:	4b5b      	ldr	r3, [pc, #364]	@ (8003ca8 <HAL_RCCEx_PeriphCLKConfig+0x490>)
 8003b3c:	f8d3 3090 	ldr.w	r3, [r3, #144]	@ 0x90
 8003b40:	f023 02c0 	bic.w	r2, r3, #192	@ 0xc0
 8003b44:	687b      	ldr	r3, [r7, #4]
 8003b46:	6d1b      	ldr	r3, [r3, #80]	@ 0x50
 8003b48:	4957      	ldr	r1, [pc, #348]	@ (8003ca8 <HAL_RCCEx_PeriphCLKConfig+0x490>)
 8003b4a:	4313      	orrs	r3, r2
 8003b4c:	f8c1 3090 	str.w	r3, [r1, #144]	@ 0x90
 8003b50:	687b      	ldr	r3, [r7, #4]
 8003b52:	681b      	ldr	r3, [r3, #0]
 8003b54:	f403 6380 	and.w	r3, r3, #1024	@ 0x400
 8003b58:	2b00      	cmp	r3, #0
 8003b5a:	d00a      	beq.n	8003b72 <HAL_RCCEx_PeriphCLKConfig+0x35a>
 8003b5c:	4b52      	ldr	r3, [pc, #328]	@ (8003ca8 <HAL_RCCEx_PeriphCLKConfig+0x490>)
 8003b5e:	f8d3 3090 	ldr.w	r3, [r3, #144]	@ 0x90
 8003b62:	f423 7240 	bic.w	r2, r3, #768	@ 0x300
 8003b66:	687b      	ldr	r3, [r7, #4]
 8003b68:	6d5b      	ldr	r3, [r3, #84]	@ 0x54
 8003b6a:	494f      	ldr	r1, [pc, #316]	@ (8003ca8 <HAL_RCCEx_PeriphCLKConfig+0x490>)
 8003b6c:	4313      	orrs	r3, r2
 8003b6e:	f8c1 3090 	str.w	r3, [r1, #144]	@ 0x90
 8003b72:	687b      	ldr	r3, [r7, #4]
 8003b74:	681b      	ldr	r3, [r3, #0]
 8003b76:	f403 6300 	and.w	r3, r3, #2048	@ 0x800
 8003b7a:	2b00      	cmp	r3, #0
 8003b7c:	d00a      	beq.n	8003b94 <HAL_RCCEx_PeriphCLKConfig+0x37c>
 8003b7e:	4b4a      	ldr	r3, [pc, #296]	@ (8003ca8 <HAL_RCCEx_PeriphCLKConfig+0x490>)
 8003b80:	f8d3 3090 	ldr.w	r3, [r3, #144]	@ 0x90
 8003b84:	f423 6240 	bic.w	r2, r3, #3072	@ 0xc00
 8003b88:	687b      	ldr	r3, [r7, #4]
 8003b8a:	6d9b      	ldr	r3, [r3, #88]	@ 0x58
 8003b8c:	4946      	ldr	r1, [pc, #280]	@ (8003ca8 <HAL_RCCEx_PeriphCLKConfig+0x490>)
 8003b8e:	4313      	orrs	r3, r2
 8003b90:	f8c1 3090 	str.w	r3, [r1, #144]	@ 0x90
 8003b94:	687b      	ldr	r3, [r7, #4]
 8003b96:	681b      	ldr	r3, [r3, #0]
 8003b98:	f403 5380 	and.w	r3, r3, #4096	@ 0x1000
 8003b9c:	2b00      	cmp	r3, #0
 8003b9e:	d00a      	beq.n	8003bb6 <HAL_RCCEx_PeriphCLKConfig+0x39e>
 8003ba0:	4b41      	ldr	r3, [pc, #260]	@ (8003ca8 <HAL_RCCEx_PeriphCLKConfig+0x490>)
 8003ba2:	f8d3 3090 	ldr.w	r3, [r3, #144]	@ 0x90
 8003ba6:	f423 5240 	bic.w	r2, r3, #12288	@ 0x3000
 8003baa:	687b      	ldr	r3, [r7, #4]
 8003bac:	6ddb      	ldr	r3, [r3, #92]	@ 0x5c
 8003bae:	493e      	ldr	r1, [pc, #248]	@ (8003ca8 <HAL_RCCEx_PeriphCLKConfig+0x490>)
 8003bb0:	4313      	orrs	r3, r2
 8003bb2:	f8c1 3090 	str.w	r3, [r1, #144]	@ 0x90
 8003bb6:	687b      	ldr	r3, [r7, #4]
 8003bb8:	681b      	ldr	r3, [r3, #0]
 8003bba:	f403 5300 	and.w	r3, r3, #8192	@ 0x2000
 8003bbe:	2b00      	cmp	r3, #0
 8003bc0:	d00a      	beq.n	8003bd8 <HAL_RCCEx_PeriphCLKConfig+0x3c0>
 8003bc2:	4b39      	ldr	r3, [pc, #228]	@ (8003ca8 <HAL_RCCEx_PeriphCLKConfig+0x490>)
 8003bc4:	f8d3 3090 	ldr.w	r3, [r3, #144]	@ 0x90
 8003bc8:	f423 4240 	bic.w	r2, r3, #49152	@ 0xc000
 8003bcc:	687b      	ldr	r3, [r7, #4]
 8003bce:	6e1b      	ldr	r3, [r3, #96]	@ 0x60
 8003bd0:	4935      	ldr	r1, [pc, #212]	@ (8003ca8 <HAL_RCCEx_PeriphCLKConfig+0x490>)
 8003bd2:	4313      	orrs	r3, r2
 8003bd4:	f8c1 3090 	str.w	r3, [r1, #144]	@ 0x90
 8003bd8:	687b      	ldr	r3, [r7, #4]
 8003bda:	681b      	ldr	r3, [r3, #0]
 8003bdc:	f403 0380 	and.w	r3, r3, #4194304	@ 0x400000
 8003be0:	2b00      	cmp	r3, #0
 8003be2:	d00a      	beq.n	8003bfa <HAL_RCCEx_PeriphCLKConfig+0x3e2>
 8003be4:	4b30      	ldr	r3, [pc, #192]	@ (8003ca8 <HAL_RCCEx_PeriphCLKConfig+0x490>)
 8003be6:	f8d3 3090 	ldr.w	r3, [r3, #144]	@ 0x90
 8003bea:	f023 6280 	bic.w	r2, r3, #67108864	@ 0x4000000
 8003bee:	687b      	ldr	r3, [r7, #4]
 8003bf0:	6f9b      	ldr	r3, [r3, #120]	@ 0x78
 8003bf2:	492d      	ldr	r1, [pc, #180]	@ (8003ca8 <HAL_RCCEx_PeriphCLKConfig+0x490>)
 8003bf4:	4313      	orrs	r3, r2
 8003bf6:	f8c1 3090 	str.w	r3, [r1, #144]	@ 0x90
 8003bfa:	687b      	ldr	r3, [r7, #4]
 8003bfc:	681b      	ldr	r3, [r3, #0]
 8003bfe:	f403 1300 	and.w	r3, r3, #2097152	@ 0x200000
 8003c02:	2b00      	cmp	r3, #0
 8003c04:	d011      	beq.n	8003c2a <HAL_RCCEx_PeriphCLKConfig+0x412>
 8003c06:	4b28      	ldr	r3, [pc, #160]	@ (8003ca8 <HAL_RCCEx_PeriphCLKConfig+0x490>)
 8003c08:	f8d3 3090 	ldr.w	r3, [r3, #144]	@ 0x90
 8003c0c:	f023 6200 	bic.w	r2, r3, #134217728	@ 0x8000000
 8003c10:	687b      	ldr	r3, [r7, #4]
 8003c12:	6fdb      	ldr	r3, [r3, #124]	@ 0x7c
 8003c14:	4924      	ldr	r1, [pc, #144]	@ (8003ca8 <HAL_RCCEx_PeriphCLKConfig+0x490>)
 8003c16:	4313      	orrs	r3, r2
 8003c18:	f8c1 3090 	str.w	r3, [r1, #144]	@ 0x90
 8003c1c:	687b      	ldr	r3, [r7, #4]
 8003c1e:	6fdb      	ldr	r3, [r3, #124]	@ 0x7c
 8003c20:	f1b3 6f00 	cmp.w	r3, #134217728	@ 0x8000000
 8003c24:	d101      	bne.n	8003c2a <HAL_RCCEx_PeriphCLKConfig+0x412>
 8003c26:	2301      	movs	r3, #1
 8003c28:	61bb      	str	r3, [r7, #24]
 8003c2a:	687b      	ldr	r3, [r7, #4]
 8003c2c:	681b      	ldr	r3, [r3, #0]
 8003c2e:	f003 0308 	and.w	r3, r3, #8
 8003c32:	2b00      	cmp	r3, #0
 8003c34:	d001      	beq.n	8003c3a <HAL_RCCEx_PeriphCLKConfig+0x422>
 8003c36:	2301      	movs	r3, #1
 8003c38:	61bb      	str	r3, [r7, #24]
 8003c3a:	687b      	ldr	r3, [r7, #4]
 8003c3c:	681b      	ldr	r3, [r3, #0]
 8003c3e:	f403 2380 	and.w	r3, r3, #262144	@ 0x40000
 8003c42:	2b00      	cmp	r3, #0
 8003c44:	d00a      	beq.n	8003c5c <HAL_RCCEx_PeriphCLKConfig+0x444>
 8003c46:	4b18      	ldr	r3, [pc, #96]	@ (8003ca8 <HAL_RCCEx_PeriphCLKConfig+0x490>)
 8003c48:	f8d3 3090 	ldr.w	r3, [r3, #144]	@ 0x90
 8003c4c:	f023 7240 	bic.w	r2, r3, #50331648	@ 0x3000000
 8003c50:	687b      	ldr	r3, [r7, #4]
 8003c52:	6f5b      	ldr	r3, [r3, #116]	@ 0x74
 8003c54:	4914      	ldr	r1, [pc, #80]	@ (8003ca8 <HAL_RCCEx_PeriphCLKConfig+0x490>)
 8003c56:	4313      	orrs	r3, r2
 8003c58:	f8c1 3090 	str.w	r3, [r1, #144]	@ 0x90
 8003c5c:	687b      	ldr	r3, [r7, #4]
 8003c5e:	681b      	ldr	r3, [r3, #0]
 8003c60:	f403 0300 	and.w	r3, r3, #8388608	@ 0x800000
 8003c64:	2b00      	cmp	r3, #0
 8003c66:	d00b      	beq.n	8003c80 <HAL_RCCEx_PeriphCLKConfig+0x468>
 8003c68:	4b0f      	ldr	r3, [pc, #60]	@ (8003ca8 <HAL_RCCEx_PeriphCLKConfig+0x490>)
 8003c6a:	f8d3 3090 	ldr.w	r3, [r3, #144]	@ 0x90
 8003c6e:	f023 5280 	bic.w	r2, r3, #268435456	@ 0x10000000
 8003c72:	687b      	ldr	r3, [r7, #4]
 8003c74:	f8d3 3080 	ldr.w	r3, [r3, #128]	@ 0x80
 8003c78:	490b      	ldr	r1, [pc, #44]	@ (8003ca8 <HAL_RCCEx_PeriphCLKConfig+0x490>)
 8003c7a:	4313      	orrs	r3, r2
 8003c7c:	f8c1 3090 	str.w	r3, [r1, #144]	@ 0x90
 8003c80:	687b      	ldr	r3, [r7, #4]
 8003c82:	681b      	ldr	r3, [r3, #0]
 8003c84:	f003 6380 	and.w	r3, r3, #67108864	@ 0x4000000
 8003c88:	2b00      	cmp	r3, #0
 8003c8a:	d00f      	beq.n	8003cac <HAL_RCCEx_PeriphCLKConfig+0x494>
 8003c8c:	4b06      	ldr	r3, [pc, #24]	@ (8003ca8 <HAL_RCCEx_PeriphCLKConfig+0x490>)
 8003c8e:	f8d3 3090 	ldr.w	r3, [r3, #144]	@ 0x90
 8003c92:	f023 5200 	bic.w	r2, r3, #536870912	@ 0x20000000
 8003c96:	687b      	ldr	r3, [r7, #4]
 8003c98:	f8d3 3084 	ldr.w	r3, [r3, #132]	@ 0x84
 8003c9c:	4902      	ldr	r1, [pc, #8]	@ (8003ca8 <HAL_RCCEx_PeriphCLKConfig+0x490>)
 8003c9e:	4313      	orrs	r3, r2
 8003ca0:	f8c1 3090 	str.w	r3, [r1, #144]	@ 0x90
 8003ca4:	e002      	b.n	8003cac <HAL_RCCEx_PeriphCLKConfig+0x494>
 8003ca6:	bf00      	nop
 8003ca8:	40023800 	.word	0x40023800
 8003cac:	687b      	ldr	r3, [r7, #4]
 8003cae:	681b      	ldr	r3, [r3, #0]
 8003cb0:	f003 6300 	and.w	r3, r3, #134217728	@ 0x8000000
 8003cb4:	2b00      	cmp	r3, #0
 8003cb6:	d00b      	beq.n	8003cd0 <HAL_RCCEx_PeriphCLKConfig+0x4b8>
 8003cb8:	4b8a      	ldr	r3, [pc, #552]	@ (8003ee4 <HAL_RCCEx_PeriphCLKConfig+0x6cc>)
 8003cba:	f8d3 308c 	ldr.w	r3, [r3, #140]	@ 0x8c
 8003cbe:	f023 7200 	bic.w	r2, r3, #33554432	@ 0x2000000
 8003cc2:	687b      	ldr	r3, [r7, #4]
 8003cc4:	f8d3 3088 	ldr.w	r3, [r3, #136]	@ 0x88
 8003cc8:	4986      	ldr	r1, [pc, #536]	@ (8003ee4 <HAL_RCCEx_PeriphCLKConfig+0x6cc>)
 8003cca:	4313      	orrs	r3, r2
 8003ccc:	f8c1 308c 	str.w	r3, [r1, #140]	@ 0x8c
 8003cd0:	687b      	ldr	r3, [r7, #4]
 8003cd2:	681b      	ldr	r3, [r3, #0]
 8003cd4:	f003 5380 	and.w	r3, r3, #268435456	@ 0x10000000
 8003cd8:	2b00      	cmp	r3, #0
 8003cda:	d00b      	beq.n	8003cf4 <HAL_RCCEx_PeriphCLKConfig+0x4dc>
 8003cdc:	4b81      	ldr	r3, [pc, #516]	@ (8003ee4 <HAL_RCCEx_PeriphCLKConfig+0x6cc>)
 8003cde:	f8d3 308c 	ldr.w	r3, [r3, #140]	@ 0x8c
 8003ce2:	f023 6280 	bic.w	r2, r3, #67108864	@ 0x4000000
 8003ce6:	687b      	ldr	r3, [r7, #4]
 8003ce8:	f8d3 308c 	ldr.w	r3, [r3, #140]	@ 0x8c
 8003cec:	497d      	ldr	r1, [pc, #500]	@ (8003ee4 <HAL_RCCEx_PeriphCLKConfig+0x6cc>)
 8003cee:	4313      	orrs	r3, r2
 8003cf0:	f8c1 308c 	str.w	r3, [r1, #140]	@ 0x8c
 8003cf4:	69fb      	ldr	r3, [r7, #28]
 8003cf6:	2b01      	cmp	r3, #1
 8003cf8:	d006      	beq.n	8003d08 <HAL_RCCEx_PeriphCLKConfig+0x4f0>
 8003cfa:	687b      	ldr	r3, [r7, #4]
 8003cfc:	681b      	ldr	r3, [r3, #0]
 8003cfe:	f003 7300 	and.w	r3, r3, #33554432	@ 0x2000000
 8003d02:	2b00      	cmp	r3, #0
 8003d04:	f000 80d6 	beq.w	8003eb4 <HAL_RCCEx_PeriphCLKConfig+0x69c>
 8003d08:	4b76      	ldr	r3, [pc, #472]	@ (8003ee4 <HAL_RCCEx_PeriphCLKConfig+0x6cc>)
 8003d0a:	681b      	ldr	r3, [r3, #0]
 8003d0c:	4a75      	ldr	r2, [pc, #468]	@ (8003ee4 <HAL_RCCEx_PeriphCLKConfig+0x6cc>)
 8003d0e:	f023 6380 	bic.w	r3, r3, #67108864	@ 0x4000000
 8003d12:	6013      	str	r3, [r2, #0]
 8003d14:	f7fe fd14 	bl	8002740 <HAL_GetTick>
 8003d18:	6178      	str	r0, [r7, #20]
 8003d1a:	e008      	b.n	8003d2e <HAL_RCCEx_PeriphCLKConfig+0x516>
 8003d1c:	f7fe fd10 	bl	8002740 <HAL_GetTick>
 8003d20:	4602      	mov	r2, r0
 8003d22:	697b      	ldr	r3, [r7, #20]
 8003d24:	1ad3      	subs	r3, r2, r3
 8003d26:	2b64      	cmp	r3, #100	@ 0x64
 8003d28:	d901      	bls.n	8003d2e <HAL_RCCEx_PeriphCLKConfig+0x516>
 8003d2a:	2303      	movs	r3, #3
 8003d2c:	e195      	b.n	800405a <HAL_RCCEx_PeriphCLKConfig+0x842>
 8003d2e:	4b6d      	ldr	r3, [pc, #436]	@ (8003ee4 <HAL_RCCEx_PeriphCLKConfig+0x6cc>)
 8003d30:	681b      	ldr	r3, [r3, #0]
 8003d32:	f003 6300 	and.w	r3, r3, #134217728	@ 0x8000000
 8003d36:	2b00      	cmp	r3, #0
 8003d38:	d1f0      	bne.n	8003d1c <HAL_RCCEx_PeriphCLKConfig+0x504>
 8003d3a:	687b      	ldr	r3, [r7, #4]
 8003d3c:	681b      	ldr	r3, [r3, #0]
 8003d3e:	f003 0301 	and.w	r3, r3, #1
 8003d42:	2b00      	cmp	r3, #0
 8003d44:	d021      	beq.n	8003d8a <HAL_RCCEx_PeriphCLKConfig+0x572>
 8003d46:	687b      	ldr	r3, [r7, #4]
 8003d48:	6b5b      	ldr	r3, [r3, #52]	@ 0x34
 8003d4a:	2b00      	cmp	r3, #0
 8003d4c:	d11d      	bne.n	8003d8a <HAL_RCCEx_PeriphCLKConfig+0x572>
 8003d4e:	4b65      	ldr	r3, [pc, #404]	@ (8003ee4 <HAL_RCCEx_PeriphCLKConfig+0x6cc>)
 8003d50:	f8d3 3084 	ldr.w	r3, [r3, #132]	@ 0x84
 8003d54:	0c1b      	lsrs	r3, r3, #16
 8003d56:	f003 0303 	and.w	r3, r3, #3
 8003d5a:	613b      	str	r3, [r7, #16]
 8003d5c:	4b61      	ldr	r3, [pc, #388]	@ (8003ee4 <HAL_RCCEx_PeriphCLKConfig+0x6cc>)
 8003d5e:	f8d3 3084 	ldr.w	r3, [r3, #132]	@ 0x84
 8003d62:	0e1b      	lsrs	r3, r3, #24
 8003d64:	f003 030f 	and.w	r3, r3, #15
 8003d68:	60fb      	str	r3, [r7, #12]
 8003d6a:	687b      	ldr	r3, [r7, #4]
 8003d6c:	685b      	ldr	r3, [r3, #4]
 8003d6e:	019a      	lsls	r2, r3, #6
 8003d70:	693b      	ldr	r3, [r7, #16]
 8003d72:	041b      	lsls	r3, r3, #16
 8003d74:	431a      	orrs	r2, r3
 8003d76:	68fb      	ldr	r3, [r7, #12]
 8003d78:	061b      	lsls	r3, r3, #24
 8003d7a:	431a      	orrs	r2, r3
 8003d7c:	687b      	ldr	r3, [r7, #4]
 8003d7e:	689b      	ldr	r3, [r3, #8]
 8003d80:	071b      	lsls	r3, r3, #28
 8003d82:	4958      	ldr	r1, [pc, #352]	@ (8003ee4 <HAL_RCCEx_PeriphCLKConfig+0x6cc>)
 8003d84:	4313      	orrs	r3, r2
 8003d86:	f8c1 3084 	str.w	r3, [r1, #132]	@ 0x84
 8003d8a:	687b      	ldr	r3, [r7, #4]
 8003d8c:	681b      	ldr	r3, [r3, #0]
 8003d8e:	f403 2300 	and.w	r3, r3, #524288	@ 0x80000
 8003d92:	2b00      	cmp	r3, #0
 8003d94:	d004      	beq.n	8003da0 <HAL_RCCEx_PeriphCLKConfig+0x588>
 8003d96:	687b      	ldr	r3, [r7, #4]
 8003d98:	6bdb      	ldr	r3, [r3, #60]	@ 0x3c
 8003d9a:	f5b3 1f80 	cmp.w	r3, #1048576	@ 0x100000
 8003d9e:	d00a      	beq.n	8003db6 <HAL_RCCEx_PeriphCLKConfig+0x59e>
 8003da0:	687b      	ldr	r3, [r7, #4]
 8003da2:	681b      	ldr	r3, [r3, #0]
 8003da4:	f403 1380 	and.w	r3, r3, #1048576	@ 0x100000
 8003da8:	2b00      	cmp	r3, #0
 8003daa:	d02e      	beq.n	8003e0a <HAL_RCCEx_PeriphCLKConfig+0x5f2>
 8003dac:	687b      	ldr	r3, [r7, #4]
 8003dae:	6c1b      	ldr	r3, [r3, #64]	@ 0x40
 8003db0:	f5b3 0f80 	cmp.w	r3, #4194304	@ 0x400000
 8003db4:	d129      	bne.n	8003e0a <HAL_RCCEx_PeriphCLKConfig+0x5f2>
 8003db6:	4b4b      	ldr	r3, [pc, #300]	@ (8003ee4 <HAL_RCCEx_PeriphCLKConfig+0x6cc>)
 8003db8:	f8d3 3084 	ldr.w	r3, [r3, #132]	@ 0x84
 8003dbc:	0c1b      	lsrs	r3, r3, #16
 8003dbe:	f003 0303 	and.w	r3, r3, #3
 8003dc2:	613b      	str	r3, [r7, #16]
 8003dc4:	4b47      	ldr	r3, [pc, #284]	@ (8003ee4 <HAL_RCCEx_PeriphCLKConfig+0x6cc>)
 8003dc6:	f8d3 3084 	ldr.w	r3, [r3, #132]	@ 0x84
 8003dca:	0f1b      	lsrs	r3, r3, #28
 8003dcc:	f003 0307 	and.w	r3, r3, #7
 8003dd0:	60fb      	str	r3, [r7, #12]
 8003dd2:	687b      	ldr	r3, [r7, #4]
 8003dd4:	685b      	ldr	r3, [r3, #4]
 8003dd6:	019a      	lsls	r2, r3, #6
 8003dd8:	693b      	ldr	r3, [r7, #16]
 8003dda:	041b      	lsls	r3, r3, #16
 8003ddc:	431a      	orrs	r2, r3
 8003dde:	687b      	ldr	r3, [r7, #4]
 8003de0:	68db      	ldr	r3, [r3, #12]
 8003de2:	061b      	lsls	r3, r3, #24
 8003de4:	431a      	orrs	r2, r3
 8003de6:	68fb      	ldr	r3, [r7, #12]
 8003de8:	071b      	lsls	r3, r3, #28
 8003dea:	493e      	ldr	r1, [pc, #248]	@ (8003ee4 <HAL_RCCEx_PeriphCLKConfig+0x6cc>)
 8003dec:	4313      	orrs	r3, r2
 8003dee:	f8c1 3084 	str.w	r3, [r1, #132]	@ 0x84
 8003df2:	4b3c      	ldr	r3, [pc, #240]	@ (8003ee4 <HAL_RCCEx_PeriphCLKConfig+0x6cc>)
 8003df4:	f8d3 308c 	ldr.w	r3, [r3, #140]	@ 0x8c
 8003df8:	f023 021f 	bic.w	r2, r3, #31
 8003dfc:	687b      	ldr	r3, [r7, #4]
 8003dfe:	6a5b      	ldr	r3, [r3, #36]	@ 0x24
 8003e00:	3b01      	subs	r3, #1
 8003e02:	4938      	ldr	r1, [pc, #224]	@ (8003ee4 <HAL_RCCEx_PeriphCLKConfig+0x6cc>)
 8003e04:	4313      	orrs	r3, r2
 8003e06:	f8c1 308c 	str.w	r3, [r1, #140]	@ 0x8c
 8003e0a:	687b      	ldr	r3, [r7, #4]
 8003e0c:	681b      	ldr	r3, [r3, #0]
 8003e0e:	f003 7380 	and.w	r3, r3, #16777216	@ 0x1000000
 8003e12:	2b00      	cmp	r3, #0
 8003e14:	d01d      	beq.n	8003e52 <HAL_RCCEx_PeriphCLKConfig+0x63a>
 8003e16:	4b33      	ldr	r3, [pc, #204]	@ (8003ee4 <HAL_RCCEx_PeriphCLKConfig+0x6cc>)
 8003e18:	f8d3 3084 	ldr.w	r3, [r3, #132]	@ 0x84
 8003e1c:	0e1b      	lsrs	r3, r3, #24
 8003e1e:	f003 030f 	and.w	r3, r3, #15
 8003e22:	613b      	str	r3, [r7, #16]
 8003e24:	4b2f      	ldr	r3, [pc, #188]	@ (8003ee4 <HAL_RCCEx_PeriphCLKConfig+0x6cc>)
 8003e26:	f8d3 3084 	ldr.w	r3, [r3, #132]	@ 0x84
 8003e2a:	0f1b      	lsrs	r3, r3, #28
 8003e2c:	f003 0307 	and.w	r3, r3, #7
 8003e30:	60fb      	str	r3, [r7, #12]
 8003e32:	687b      	ldr	r3, [r7, #4]
 8003e34:	685b      	ldr	r3, [r3, #4]
 8003e36:	019a      	lsls	r2, r3, #6
 8003e38:	687b      	ldr	r3, [r7, #4]
 8003e3a:	691b      	ldr	r3, [r3, #16]
 8003e3c:	041b      	lsls	r3, r3, #16
 8003e3e:	431a      	orrs	r2, r3
 8003e40:	693b      	ldr	r3, [r7, #16]
 8003e42:	061b      	lsls	r3, r3, #24
 8003e44:	431a      	orrs	r2, r3
 8003e46:	68fb      	ldr	r3, [r7, #12]
 8003e48:	071b      	lsls	r3, r3, #28
 8003e4a:	4926      	ldr	r1, [pc, #152]	@ (8003ee4 <HAL_RCCEx_PeriphCLKConfig+0x6cc>)
 8003e4c:	4313      	orrs	r3, r2
 8003e4e:	f8c1 3084 	str.w	r3, [r1, #132]	@ 0x84
 8003e52:	687b      	ldr	r3, [r7, #4]
 8003e54:	681b      	ldr	r3, [r3, #0]
 8003e56:	f003 7300 	and.w	r3, r3, #33554432	@ 0x2000000
 8003e5a:	2b00      	cmp	r3, #0
 8003e5c:	d011      	beq.n	8003e82 <HAL_RCCEx_PeriphCLKConfig+0x66a>
 8003e5e:	687b      	ldr	r3, [r7, #4]
 8003e60:	685b      	ldr	r3, [r3, #4]
 8003e62:	019a      	lsls	r2, r3, #6
 8003e64:	687b      	ldr	r3, [r7, #4]
 8003e66:	691b      	ldr	r3, [r3, #16]
 8003e68:	041b      	lsls	r3, r3, #16
 8003e6a:	431a      	orrs	r2, r3
 8003e6c:	687b      	ldr	r3, [r7, #4]
 8003e6e:	68db      	ldr	r3, [r3, #12]
 8003e70:	061b      	lsls	r3, r3, #24
 8003e72:	431a      	orrs	r2, r3
 8003e74:	687b      	ldr	r3, [r7, #4]
 8003e76:	689b      	ldr	r3, [r3, #8]
 8003e78:	071b      	lsls	r3, r3, #28
 8003e7a:	491a      	ldr	r1, [pc, #104]	@ (8003ee4 <HAL_RCCEx_PeriphCLKConfig+0x6cc>)
 8003e7c:	4313      	orrs	r3, r2
 8003e7e:	f8c1 3084 	str.w	r3, [r1, #132]	@ 0x84
 8003e82:	4b18      	ldr	r3, [pc, #96]	@ (8003ee4 <HAL_RCCEx_PeriphCLKConfig+0x6cc>)
 8003e84:	681b      	ldr	r3, [r3, #0]
 8003e86:	4a17      	ldr	r2, [pc, #92]	@ (8003ee4 <HAL_RCCEx_PeriphCLKConfig+0x6cc>)
 8003e88:	f043 6380 	orr.w	r3, r3, #67108864	@ 0x4000000
 8003e8c:	6013      	str	r3, [r2, #0]
 8003e8e:	f7fe fc57 	bl	8002740 <HAL_GetTick>
 8003e92:	6178      	str	r0, [r7, #20]
 8003e94:	e008      	b.n	8003ea8 <HAL_RCCEx_PeriphCLKConfig+0x690>
 8003e96:	f7fe fc53 	bl	8002740 <HAL_GetTick>
 8003e9a:	4602      	mov	r2, r0
 8003e9c:	697b      	ldr	r3, [r7, #20]
 8003e9e:	1ad3      	subs	r3, r2, r3
 8003ea0:	2b64      	cmp	r3, #100	@ 0x64
 8003ea2:	d901      	bls.n	8003ea8 <HAL_RCCEx_PeriphCLKConfig+0x690>
 8003ea4:	2303      	movs	r3, #3
 8003ea6:	e0d8      	b.n	800405a <HAL_RCCEx_PeriphCLKConfig+0x842>
 8003ea8:	4b0e      	ldr	r3, [pc, #56]	@ (8003ee4 <HAL_RCCEx_PeriphCLKConfig+0x6cc>)
 8003eaa:	681b      	ldr	r3, [r3, #0]
 8003eac:	f003 6300 	and.w	r3, r3, #134217728	@ 0x8000000
 8003eb0:	2b00      	cmp	r3, #0
 8003eb2:	d0f0      	beq.n	8003e96 <HAL_RCCEx_PeriphCLKConfig+0x67e>
 8003eb4:	69bb      	ldr	r3, [r7, #24]
 8003eb6:	2b01      	cmp	r3, #1
 8003eb8:	f040 80ce 	bne.w	8004058 <HAL_RCCEx_PeriphCLKConfig+0x840>
 8003ebc:	4b09      	ldr	r3, [pc, #36]	@ (8003ee4 <HAL_RCCEx_PeriphCLKConfig+0x6cc>)
 8003ebe:	681b      	ldr	r3, [r3, #0]
 8003ec0:	4a08      	ldr	r2, [pc, #32]	@ (8003ee4 <HAL_RCCEx_PeriphCLKConfig+0x6cc>)
 8003ec2:	f023 5380 	bic.w	r3, r3, #268435456	@ 0x10000000
 8003ec6:	6013      	str	r3, [r2, #0]
 8003ec8:	f7fe fc3a 	bl	8002740 <HAL_GetTick>
 8003ecc:	6178      	str	r0, [r7, #20]
 8003ece:	e00b      	b.n	8003ee8 <HAL_RCCEx_PeriphCLKConfig+0x6d0>
 8003ed0:	f7fe fc36 	bl	8002740 <HAL_GetTick>
 8003ed4:	4602      	mov	r2, r0
 8003ed6:	697b      	ldr	r3, [r7, #20]
 8003ed8:	1ad3      	subs	r3, r2, r3
 8003eda:	2b64      	cmp	r3, #100	@ 0x64
 8003edc:	d904      	bls.n	8003ee8 <HAL_RCCEx_PeriphCLKConfig+0x6d0>
 8003ede:	2303      	movs	r3, #3
 8003ee0:	e0bb      	b.n	800405a <HAL_RCCEx_PeriphCLKConfig+0x842>
 8003ee2:	bf00      	nop
 8003ee4:	40023800 	.word	0x40023800
 8003ee8:	4b5e      	ldr	r3, [pc, #376]	@ (8004064 <HAL_RCCEx_PeriphCLKConfig+0x84c>)
 8003eea:	681b      	ldr	r3, [r3, #0]
 8003eec:	f003 5300 	and.w	r3, r3, #536870912	@ 0x20000000
 8003ef0:	f1b3 5f00 	cmp.w	r3, #536870912	@ 0x20000000
 8003ef4:	d0ec      	beq.n	8003ed0 <HAL_RCCEx_PeriphCLKConfig+0x6b8>
 8003ef6:	687b      	ldr	r3, [r7, #4]
 8003ef8:	681b      	ldr	r3, [r3, #0]
 8003efa:	f403 2300 	and.w	r3, r3, #524288	@ 0x80000
 8003efe:	2b00      	cmp	r3, #0
 8003f00:	d003      	beq.n	8003f0a <HAL_RCCEx_PeriphCLKConfig+0x6f2>
 8003f02:	687b      	ldr	r3, [r7, #4]
 8003f04:	6bdb      	ldr	r3, [r3, #60]	@ 0x3c
 8003f06:	2b00      	cmp	r3, #0
 8003f08:	d009      	beq.n	8003f1e <HAL_RCCEx_PeriphCLKConfig+0x706>
 8003f0a:	687b      	ldr	r3, [r7, #4]
 8003f0c:	681b      	ldr	r3, [r3, #0]
 8003f0e:	f403 1380 	and.w	r3, r3, #1048576	@ 0x100000
 8003f12:	2b00      	cmp	r3, #0
 8003f14:	d02e      	beq.n	8003f74 <HAL_RCCEx_PeriphCLKConfig+0x75c>
 8003f16:	687b      	ldr	r3, [r7, #4]
 8003f18:	6c1b      	ldr	r3, [r3, #64]	@ 0x40
 8003f1a:	2b00      	cmp	r3, #0
 8003f1c:	d12a      	bne.n	8003f74 <HAL_RCCEx_PeriphCLKConfig+0x75c>
 8003f1e:	4b51      	ldr	r3, [pc, #324]	@ (8004064 <HAL_RCCEx_PeriphCLKConfig+0x84c>)
 8003f20:	f8d3 3088 	ldr.w	r3, [r3, #136]	@ 0x88
 8003f24:	0c1b      	lsrs	r3, r3, #16
 8003f26:	f003 0303 	and.w	r3, r3, #3
 8003f2a:	613b      	str	r3, [r7, #16]
 8003f2c:	4b4d      	ldr	r3, [pc, #308]	@ (8004064 <HAL_RCCEx_PeriphCLKConfig+0x84c>)
 8003f2e:	f8d3 3088 	ldr.w	r3, [r3, #136]	@ 0x88
 8003f32:	0f1b      	lsrs	r3, r3, #28
 8003f34:	f003 0307 	and.w	r3, r3, #7
 8003f38:	60fb      	str	r3, [r7, #12]
 8003f3a:	687b      	ldr	r3, [r7, #4]
 8003f3c:	695b      	ldr	r3, [r3, #20]
 8003f3e:	019a      	lsls	r2, r3, #6
 8003f40:	693b      	ldr	r3, [r7, #16]
 8003f42:	041b      	lsls	r3, r3, #16
 8003f44:	431a      	orrs	r2, r3
 8003f46:	687b      	ldr	r3, [r7, #4]
 8003f48:	699b      	ldr	r3, [r3, #24]
 8003f4a:	061b      	lsls	r3, r3, #24
 8003f4c:	431a      	orrs	r2, r3
 8003f4e:	68fb      	ldr	r3, [r7, #12]
 8003f50:	071b      	lsls	r3, r3, #28
 8003f52:	4944      	ldr	r1, [pc, #272]	@ (8004064 <HAL_RCCEx_PeriphCLKConfig+0x84c>)
 8003f54:	4313      	orrs	r3, r2
 8003f56:	f8c1 3088 	str.w	r3, [r1, #136]	@ 0x88
 8003f5a:	4b42      	ldr	r3, [pc, #264]	@ (8004064 <HAL_RCCEx_PeriphCLKConfig+0x84c>)
 8003f5c:	f8d3 308c 	ldr.w	r3, [r3, #140]	@ 0x8c
 8003f60:	f423 52f8 	bic.w	r2, r3, #7936	@ 0x1f00
 8003f64:	687b      	ldr	r3, [r7, #4]
 8003f66:	6a9b      	ldr	r3, [r3, #40]	@ 0x28
 8003f68:	3b01      	subs	r3, #1
 8003f6a:	021b      	lsls	r3, r3, #8
 8003f6c:	493d      	ldr	r1, [pc, #244]	@ (8004064 <HAL_RCCEx_PeriphCLKConfig+0x84c>)
 8003f6e:	4313      	orrs	r3, r2
 8003f70:	f8c1 308c 	str.w	r3, [r1, #140]	@ 0x8c
 8003f74:	687b      	ldr	r3, [r7, #4]
 8003f76:	681b      	ldr	r3, [r3, #0]
 8003f78:	f403 1300 	and.w	r3, r3, #2097152	@ 0x200000
 8003f7c:	2b00      	cmp	r3, #0
 8003f7e:	d022      	beq.n	8003fc6 <HAL_RCCEx_PeriphCLKConfig+0x7ae>
 8003f80:	687b      	ldr	r3, [r7, #4]
 8003f82:	6fdb      	ldr	r3, [r3, #124]	@ 0x7c
 8003f84:	f1b3 6f00 	cmp.w	r3, #134217728	@ 0x8000000
 8003f88:	d11d      	bne.n	8003fc6 <HAL_RCCEx_PeriphCLKConfig+0x7ae>
 8003f8a:	4b36      	ldr	r3, [pc, #216]	@ (8004064 <HAL_RCCEx_PeriphCLKConfig+0x84c>)
 8003f8c:	f8d3 3088 	ldr.w	r3, [r3, #136]	@ 0x88
 8003f90:	0e1b      	lsrs	r3, r3, #24
 8003f92:	f003 030f 	and.w	r3, r3, #15
 8003f96:	613b      	str	r3, [r7, #16]
 8003f98:	4b32      	ldr	r3, [pc, #200]	@ (8004064 <HAL_RCCEx_PeriphCLKConfig+0x84c>)
 8003f9a:	f8d3 3088 	ldr.w	r3, [r3, #136]	@ 0x88
 8003f9e:	0f1b      	lsrs	r3, r3, #28
 8003fa0:	f003 0307 	and.w	r3, r3, #7
 8003fa4:	60fb      	str	r3, [r7, #12]
 8003fa6:	687b      	ldr	r3, [r7, #4]
 8003fa8:	695b      	ldr	r3, [r3, #20]
 8003faa:	019a      	lsls	r2, r3, #6
 8003fac:	687b      	ldr	r3, [r7, #4]
 8003fae:	6a1b      	ldr	r3, [r3, #32]
 8003fb0:	041b      	lsls	r3, r3, #16
 8003fb2:	431a      	orrs	r2, r3
 8003fb4:	693b      	ldr	r3, [r7, #16]
 8003fb6:	061b      	lsls	r3, r3, #24
 8003fb8:	431a      	orrs	r2, r3
 8003fba:	68fb      	ldr	r3, [r7, #12]
 8003fbc:	071b      	lsls	r3, r3, #28
 8003fbe:	4929      	ldr	r1, [pc, #164]	@ (8004064 <HAL_RCCEx_PeriphCLKConfig+0x84c>)
 8003fc0:	4313      	orrs	r3, r2
 8003fc2:	f8c1 3088 	str.w	r3, [r1, #136]	@ 0x88
 8003fc6:	687b      	ldr	r3, [r7, #4]
 8003fc8:	681b      	ldr	r3, [r3, #0]
 8003fca:	f003 0308 	and.w	r3, r3, #8
 8003fce:	2b00      	cmp	r3, #0
 8003fd0:	d028      	beq.n	8004024 <HAL_RCCEx_PeriphCLKConfig+0x80c>
 8003fd2:	4b24      	ldr	r3, [pc, #144]	@ (8004064 <HAL_RCCEx_PeriphCLKConfig+0x84c>)
 8003fd4:	f8d3 3088 	ldr.w	r3, [r3, #136]	@ 0x88
 8003fd8:	0e1b      	lsrs	r3, r3, #24
 8003fda:	f003 030f 	and.w	r3, r3, #15
 8003fde:	613b      	str	r3, [r7, #16]
 8003fe0:	4b20      	ldr	r3, [pc, #128]	@ (8004064 <HAL_RCCEx_PeriphCLKConfig+0x84c>)
 8003fe2:	f8d3 3088 	ldr.w	r3, [r3, #136]	@ 0x88
 8003fe6:	0c1b      	lsrs	r3, r3, #16
 8003fe8:	f003 0303 	and.w	r3, r3, #3
 8003fec:	60fb      	str	r3, [r7, #12]
 8003fee:	687b      	ldr	r3, [r7, #4]
 8003ff0:	695b      	ldr	r3, [r3, #20]
 8003ff2:	019a      	lsls	r2, r3, #6
 8003ff4:	68fb      	ldr	r3, [r7, #12]
 8003ff6:	041b      	lsls	r3, r3, #16
 8003ff8:	431a      	orrs	r2, r3
 8003ffa:	693b      	ldr	r3, [r7, #16]
 8003ffc:	061b      	lsls	r3, r3, #24
 8003ffe:	431a      	orrs	r2, r3
 8004000:	687b      	ldr	r3, [r7, #4]
 8004002:	69db      	ldr	r3, [r3, #28]
 8004004:	071b      	lsls	r3, r3, #28
 8004006:	4917      	ldr	r1, [pc, #92]	@ (8004064 <HAL_RCCEx_PeriphCLKConfig+0x84c>)
 8004008:	4313      	orrs	r3, r2
 800400a:	f8c1 3088 	str.w	r3, [r1, #136]	@ 0x88
 800400e:	4b15      	ldr	r3, [pc, #84]	@ (8004064 <HAL_RCCEx_PeriphCLKConfig+0x84c>)
 8004010:	f8d3 308c 	ldr.w	r3, [r3, #140]	@ 0x8c
 8004014:	f423 3240 	bic.w	r2, r3, #196608	@ 0x30000
 8004018:	687b      	ldr	r3, [r7, #4]
 800401a:	6adb      	ldr	r3, [r3, #44]	@ 0x2c
 800401c:	4911      	ldr	r1, [pc, #68]	@ (8004064 <HAL_RCCEx_PeriphCLKConfig+0x84c>)
 800401e:	4313      	orrs	r3, r2
 8004020:	f8c1 308c 	str.w	r3, [r1, #140]	@ 0x8c
 8004024:	4b0f      	ldr	r3, [pc, #60]	@ (8004064 <HAL_RCCEx_PeriphCLKConfig+0x84c>)
 8004026:	681b      	ldr	r3, [r3, #0]
 8004028:	4a0e      	ldr	r2, [pc, #56]	@ (8004064 <HAL_RCCEx_PeriphCLKConfig+0x84c>)
 800402a:	f043 5380 	orr.w	r3, r3, #268435456	@ 0x10000000
 800402e:	6013      	str	r3, [r2, #0]
 8004030:	f7fe fb86 	bl	8002740 <HAL_GetTick>
 8004034:	6178      	str	r0, [r7, #20]
 8004036:	e008      	b.n	800404a <HAL_RCCEx_PeriphCLKConfig+0x832>
 8004038:	f7fe fb82 	bl	8002740 <HAL_GetTick>
 800403c:	4602      	mov	r2, r0
 800403e:	697b      	ldr	r3, [r7, #20]
 8004040:	1ad3      	subs	r3, r2, r3
 8004042:	2b64      	cmp	r3, #100	@ 0x64
 8004044:	d901      	bls.n	800404a <HAL_RCCEx_PeriphCLKConfig+0x832>
 8004046:	2303      	movs	r3, #3
 8004048:	e007      	b.n	800405a <HAL_RCCEx_PeriphCLKConfig+0x842>
 800404a:	4b06      	ldr	r3, [pc, #24]	@ (8004064 <HAL_RCCEx_PeriphCLKConfig+0x84c>)
 800404c:	681b      	ldr	r3, [r3, #0]
 800404e:	f003 5300 	and.w	r3, r3, #536870912	@ 0x20000000
 8004052:	f1b3 5f00 	cmp.w	r3, #536870912	@ 0x20000000
 8004056:	d1ef      	bne.n	8004038 <HAL_RCCEx_PeriphCLKConfig+0x820>
 8004058:	2300      	movs	r3, #0
 800405a:	4618      	mov	r0, r3
 800405c:	3720      	adds	r7, #32
 800405e:	46bd      	mov	sp, r7
 8004060:	bd80      	pop	{r7, pc}
 8004062:	bf00      	nop
 8004064:	40023800 	.word	0x40023800

08004068 <HAL_SPI_Init>:
 8004068:	b580      	push	{r7, lr}
 800406a:	b084      	sub	sp, #16
 800406c:	af00      	add	r7, sp, #0
 800406e:	6078      	str	r0, [r7, #4]
 8004070:	687b      	ldr	r3, [r7, #4]
 8004072:	2b00      	cmp	r3, #0
 8004074:	d101      	bne.n	800407a <HAL_SPI_Init+0x12>
 8004076:	2301      	movs	r3, #1
 8004078:	e09d      	b.n	80041b6 <HAL_SPI_Init+0x14e>
 800407a:	687b      	ldr	r3, [r7, #4]
 800407c:	6a5b      	ldr	r3, [r3, #36]	@ 0x24
 800407e:	2b00      	cmp	r3, #0
 8004080:	d108      	bne.n	8004094 <HAL_SPI_Init+0x2c>
 8004082:	687b      	ldr	r3, [r7, #4]
 8004084:	685b      	ldr	r3, [r3, #4]
 8004086:	f5b3 7f82 	cmp.w	r3, #260	@ 0x104
 800408a:	d009      	beq.n	80040a0 <HAL_SPI_Init+0x38>
 800408c:	687b      	ldr	r3, [r7, #4]
 800408e:	2200      	movs	r2, #0
 8004090:	61da      	str	r2, [r3, #28]
 8004092:	e005      	b.n	80040a0 <HAL_SPI_Init+0x38>
 8004094:	687b      	ldr	r3, [r7, #4]
 8004096:	2200      	movs	r2, #0
 8004098:	611a      	str	r2, [r3, #16]
 800409a:	687b      	ldr	r3, [r7, #4]
 800409c:	2200      	movs	r2, #0
 800409e:	615a      	str	r2, [r3, #20]
 80040a0:	687b      	ldr	r3, [r7, #4]
 80040a2:	2200      	movs	r2, #0
 80040a4:	629a      	str	r2, [r3, #40]	@ 0x28
 80040a6:	687b      	ldr	r3, [r7, #4]
 80040a8:	f893 305d 	ldrb.w	r3, [r3, #93]	@ 0x5d
 80040ac:	b2db      	uxtb	r3, r3
 80040ae:	2b00      	cmp	r3, #0
 80040b0:	d106      	bne.n	80040c0 <HAL_SPI_Init+0x58>
 80040b2:	687b      	ldr	r3, [r7, #4]
 80040b4:	2200      	movs	r2, #0
 80040b6:	f883 205c 	strb.w	r2, [r3, #92]	@ 0x5c
 80040ba:	6878      	ldr	r0, [r7, #4]
 80040bc:	f7fe f800 	bl	80020c0 <HAL_SPI_MspInit>
 80040c0:	687b      	ldr	r3, [r7, #4]
 80040c2:	2202      	movs	r2, #2
 80040c4:	f883 205d 	strb.w	r2, [r3, #93]	@ 0x5d
 80040c8:	687b      	ldr	r3, [r7, #4]
 80040ca:	681b      	ldr	r3, [r3, #0]
 80040cc:	681a      	ldr	r2, [r3, #0]
 80040ce:	687b      	ldr	r3, [r7, #4]
 80040d0:	681b      	ldr	r3, [r3, #0]
 80040d2:	f022 0240 	bic.w	r2, r2, #64	@ 0x40
 80040d6:	601a      	str	r2, [r3, #0]
 80040d8:	687b      	ldr	r3, [r7, #4]
 80040da:	68db      	ldr	r3, [r3, #12]
 80040dc:	f5b3 6fe0 	cmp.w	r3, #1792	@ 0x700
 80040e0:	d902      	bls.n	80040e8 <HAL_SPI_Init+0x80>
 80040e2:	2300      	movs	r3, #0
 80040e4:	60fb      	str	r3, [r7, #12]
 80040e6:	e002      	b.n	80040ee <HAL_SPI_Init+0x86>
 80040e8:	f44f 5380 	mov.w	r3, #4096	@ 0x1000
 80040ec:	60fb      	str	r3, [r7, #12]
 80040ee:	687b      	ldr	r3, [r7, #4]
 80040f0:	68db      	ldr	r3, [r3, #12]
 80040f2:	f5b3 6f70 	cmp.w	r3, #3840	@ 0xf00
 80040f6:	d007      	beq.n	8004108 <HAL_SPI_Init+0xa0>
 80040f8:	687b      	ldr	r3, [r7, #4]
 80040fa:	68db      	ldr	r3, [r3, #12]
 80040fc:	f5b3 6fe0 	cmp.w	r3, #1792	@ 0x700
 8004100:	d002      	beq.n	8004108 <HAL_SPI_Init+0xa0>
 8004102:	687b      	ldr	r3, [r7, #4]
 8004104:	2200      	movs	r2, #0
 8004106:	629a      	str	r2, [r3, #40]	@ 0x28
 8004108:	687b      	ldr	r3, [r7, #4]
 800410a:	685b      	ldr	r3, [r3, #4]
 800410c:	f403 7282 	and.w	r2, r3, #260	@ 0x104
 8004110:	687b      	ldr	r3, [r7, #4]
 8004112:	689b      	ldr	r3, [r3, #8]
 8004114:	f403 4304 	and.w	r3, r3, #33792	@ 0x8400
 8004118:	431a      	orrs	r2, r3
 800411a:	687b      	ldr	r3, [r7, #4]
 800411c:	691b      	ldr	r3, [r3, #16]
 800411e:	f003 0302 	and.w	r3, r3, #2
 8004122:	431a      	orrs	r2, r3
 8004124:	687b      	ldr	r3, [r7, #4]
 8004126:	695b      	ldr	r3, [r3, #20]
 8004128:	f003 0301 	and.w	r3, r3, #1
 800412c:	431a      	orrs	r2, r3
 800412e:	687b      	ldr	r3, [r7, #4]
 8004130:	699b      	ldr	r3, [r3, #24]
 8004132:	f403 7300 	and.w	r3, r3, #512	@ 0x200
 8004136:	431a      	orrs	r2, r3
 8004138:	687b      	ldr	r3, [r7, #4]
 800413a:	69db      	ldr	r3, [r3, #28]
 800413c:	f003 0338 	and.w	r3, r3, #56	@ 0x38
 8004140:	431a      	orrs	r2, r3
 8004142:	687b      	ldr	r3, [r7, #4]
 8004144:	6a1b      	ldr	r3, [r3, #32]
 8004146:	f003 0380 	and.w	r3, r3, #128	@ 0x80
 800414a:	ea42 0103 	orr.w	r1, r2, r3
 800414e:	687b      	ldr	r3, [r7, #4]
 8004150:	6a9b      	ldr	r3, [r3, #40]	@ 0x28
 8004152:	f403 5200 	and.w	r2, r3, #8192	@ 0x2000
 8004156:	687b      	ldr	r3, [r7, #4]
 8004158:	681b      	ldr	r3, [r3, #0]
 800415a:	430a      	orrs	r2, r1
 800415c:	601a      	str	r2, [r3, #0]
 800415e:	687b      	ldr	r3, [r7, #4]
 8004160:	699b      	ldr	r3, [r3, #24]
 8004162:	0c1b      	lsrs	r3, r3, #16
 8004164:	f003 0204 	and.w	r2, r3, #4
 8004168:	687b      	ldr	r3, [r7, #4]
 800416a:	6a5b      	ldr	r3, [r3, #36]	@ 0x24
 800416c:	f003 0310 	and.w	r3, r3, #16
 8004170:	431a      	orrs	r2, r3
 8004172:	687b      	ldr	r3, [r7, #4]
 8004174:	6b5b      	ldr	r3, [r3, #52]	@ 0x34
 8004176:	f003 0308 	and.w	r3, r3, #8
 800417a:	431a      	orrs	r2, r3
 800417c:	687b      	ldr	r3, [r7, #4]
 800417e:	68db      	ldr	r3, [r3, #12]
 8004180:	f403 6370 	and.w	r3, r3, #3840	@ 0xf00
 8004184:	ea42 0103 	orr.w	r1, r2, r3
 8004188:	68fb      	ldr	r3, [r7, #12]
 800418a:	f403 5280 	and.w	r2, r3, #4096	@ 0x1000
 800418e:	687b      	ldr	r3, [r7, #4]
 8004190:	681b      	ldr	r3, [r3, #0]
 8004192:	430a      	orrs	r2, r1
 8004194:	605a      	str	r2, [r3, #4]
 8004196:	687b      	ldr	r3, [r7, #4]
 8004198:	681b      	ldr	r3, [r3, #0]
 800419a:	69da      	ldr	r2, [r3, #28]
 800419c:	687b      	ldr	r3, [r7, #4]
 800419e:	681b      	ldr	r3, [r3, #0]
 80041a0:	f422 6200 	bic.w	r2, r2, #2048	@ 0x800
 80041a4:	61da      	str	r2, [r3, #28]
 80041a6:	687b      	ldr	r3, [r7, #4]
 80041a8:	2200      	movs	r2, #0
 80041aa:	661a      	str	r2, [r3, #96]	@ 0x60
 80041ac:	687b      	ldr	r3, [r7, #4]
 80041ae:	2201      	movs	r2, #1
 80041b0:	f883 205d 	strb.w	r2, [r3, #93]	@ 0x5d
 80041b4:	2300      	movs	r3, #0
 80041b6:	4618      	mov	r0, r3
 80041b8:	3710      	adds	r7, #16
 80041ba:	46bd      	mov	sp, r7
 80041bc:	bd80      	pop	{r7, pc}

080041be <HAL_SPI_Transmit>:
 80041be:	b580      	push	{r7, lr}
 80041c0:	b088      	sub	sp, #32
 80041c2:	af00      	add	r7, sp, #0
 80041c4:	60f8      	str	r0, [r7, #12]
 80041c6:	60b9      	str	r1, [r7, #8]
 80041c8:	603b      	str	r3, [r7, #0]
 80041ca:	4613      	mov	r3, r2
 80041cc:	80fb      	strh	r3, [r7, #6]
 80041ce:	2300      	movs	r3, #0
 80041d0:	77fb      	strb	r3, [r7, #31]
 80041d2:	68fb      	ldr	r3, [r7, #12]
 80041d4:	f893 305c 	ldrb.w	r3, [r3, #92]	@ 0x5c
 80041d8:	2b01      	cmp	r3, #1
 80041da:	d101      	bne.n	80041e0 <HAL_SPI_Transmit+0x22>
 80041dc:	2302      	movs	r3, #2
 80041de:	e158      	b.n	8004492 <HAL_SPI_Transmit+0x2d4>
 80041e0:	68fb      	ldr	r3, [r7, #12]
 80041e2:	2201      	movs	r2, #1
 80041e4:	f883 205c 	strb.w	r2, [r3, #92]	@ 0x5c
 80041e8:	f7fe faaa 	bl	8002740 <HAL_GetTick>
 80041ec:	61b8      	str	r0, [r7, #24]
 80041ee:	88fb      	ldrh	r3, [r7, #6]
 80041f0:	82fb      	strh	r3, [r7, #22]
 80041f2:	68fb      	ldr	r3, [r7, #12]
 80041f4:	f893 305d 	ldrb.w	r3, [r3, #93]	@ 0x5d
 80041f8:	b2db      	uxtb	r3, r3
 80041fa:	2b01      	cmp	r3, #1
 80041fc:	d002      	beq.n	8004204 <HAL_SPI_Transmit+0x46>
 80041fe:	2302      	movs	r3, #2
 8004200:	77fb      	strb	r3, [r7, #31]
 8004202:	e13d      	b.n	8004480 <HAL_SPI_Transmit+0x2c2>
 8004204:	68bb      	ldr	r3, [r7, #8]
 8004206:	2b00      	cmp	r3, #0
 8004208:	d002      	beq.n	8004210 <HAL_SPI_Transmit+0x52>
 800420a:	88fb      	ldrh	r3, [r7, #6]
 800420c:	2b00      	cmp	r3, #0
 800420e:	d102      	bne.n	8004216 <HAL_SPI_Transmit+0x58>
 8004210:	2301      	movs	r3, #1
 8004212:	77fb      	strb	r3, [r7, #31]
 8004214:	e134      	b.n	8004480 <HAL_SPI_Transmit+0x2c2>
 8004216:	68fb      	ldr	r3, [r7, #12]
 8004218:	2203      	movs	r2, #3
 800421a:	f883 205d 	strb.w	r2, [r3, #93]	@ 0x5d
 800421e:	68fb      	ldr	r3, [r7, #12]
 8004220:	2200      	movs	r2, #0
 8004222:	661a      	str	r2, [r3, #96]	@ 0x60
 8004224:	68fb      	ldr	r3, [r7, #12]
 8004226:	68ba      	ldr	r2, [r7, #8]
 8004228:	639a      	str	r2, [r3, #56]	@ 0x38
 800422a:	68fb      	ldr	r3, [r7, #12]
 800422c:	88fa      	ldrh	r2, [r7, #6]
 800422e:	879a      	strh	r2, [r3, #60]	@ 0x3c
 8004230:	68fb      	ldr	r3, [r7, #12]
 8004232:	88fa      	ldrh	r2, [r7, #6]
 8004234:	87da      	strh	r2, [r3, #62]	@ 0x3e
 8004236:	68fb      	ldr	r3, [r7, #12]
 8004238:	2200      	movs	r2, #0
 800423a:	641a      	str	r2, [r3, #64]	@ 0x40
 800423c:	68fb      	ldr	r3, [r7, #12]
 800423e:	2200      	movs	r2, #0
 8004240:	f8a3 2044 	strh.w	r2, [r3, #68]	@ 0x44
 8004244:	68fb      	ldr	r3, [r7, #12]
 8004246:	2200      	movs	r2, #0
 8004248:	f8a3 2046 	strh.w	r2, [r3, #70]	@ 0x46
 800424c:	68fb      	ldr	r3, [r7, #12]
 800424e:	2200      	movs	r2, #0
 8004250:	651a      	str	r2, [r3, #80]	@ 0x50
 8004252:	68fb      	ldr	r3, [r7, #12]
 8004254:	2200      	movs	r2, #0
 8004256:	64da      	str	r2, [r3, #76]	@ 0x4c
 8004258:	68fb      	ldr	r3, [r7, #12]
 800425a:	689b      	ldr	r3, [r3, #8]
 800425c:	f5b3 4f00 	cmp.w	r3, #32768	@ 0x8000
 8004260:	d10f      	bne.n	8004282 <HAL_SPI_Transmit+0xc4>
 8004262:	68fb      	ldr	r3, [r7, #12]
 8004264:	681b      	ldr	r3, [r3, #0]
 8004266:	681a      	ldr	r2, [r3, #0]
 8004268:	68fb      	ldr	r3, [r7, #12]
 800426a:	681b      	ldr	r3, [r3, #0]
 800426c:	f022 0240 	bic.w	r2, r2, #64	@ 0x40
 8004270:	601a      	str	r2, [r3, #0]
 8004272:	68fb      	ldr	r3, [r7, #12]
 8004274:	681b      	ldr	r3, [r3, #0]
 8004276:	681a      	ldr	r2, [r3, #0]
 8004278:	68fb      	ldr	r3, [r7, #12]
 800427a:	681b      	ldr	r3, [r3, #0]
 800427c:	f442 4280 	orr.w	r2, r2, #16384	@ 0x4000
 8004280:	601a      	str	r2, [r3, #0]
 8004282:	68fb      	ldr	r3, [r7, #12]
 8004284:	681b      	ldr	r3, [r3, #0]
 8004286:	681b      	ldr	r3, [r3, #0]
 8004288:	f003 0340 	and.w	r3, r3, #64	@ 0x40
 800428c:	2b40      	cmp	r3, #64	@ 0x40
 800428e:	d007      	beq.n	80042a0 <HAL_SPI_Transmit+0xe2>
 8004290:	68fb      	ldr	r3, [r7, #12]
 8004292:	681b      	ldr	r3, [r3, #0]
 8004294:	681a      	ldr	r2, [r3, #0]
 8004296:	68fb      	ldr	r3, [r7, #12]
 8004298:	681b      	ldr	r3, [r3, #0]
 800429a:	f042 0240 	orr.w	r2, r2, #64	@ 0x40
 800429e:	601a      	str	r2, [r3, #0]
 80042a0:	68fb      	ldr	r3, [r7, #12]
 80042a2:	68db      	ldr	r3, [r3, #12]
 80042a4:	f5b3 6fe0 	cmp.w	r3, #1792	@ 0x700
 80042a8:	d94b      	bls.n	8004342 <HAL_SPI_Transmit+0x184>
 80042aa:	68fb      	ldr	r3, [r7, #12]
 80042ac:	685b      	ldr	r3, [r3, #4]
 80042ae:	2b00      	cmp	r3, #0
 80042b0:	d002      	beq.n	80042b8 <HAL_SPI_Transmit+0xfa>
 80042b2:	8afb      	ldrh	r3, [r7, #22]
 80042b4:	2b01      	cmp	r3, #1
 80042b6:	d13e      	bne.n	8004336 <HAL_SPI_Transmit+0x178>
 80042b8:	68fb      	ldr	r3, [r7, #12]
 80042ba:	6b9b      	ldr	r3, [r3, #56]	@ 0x38
 80042bc:	881a      	ldrh	r2, [r3, #0]
 80042be:	68fb      	ldr	r3, [r7, #12]
 80042c0:	681b      	ldr	r3, [r3, #0]
 80042c2:	60da      	str	r2, [r3, #12]
 80042c4:	68fb      	ldr	r3, [r7, #12]
 80042c6:	6b9b      	ldr	r3, [r3, #56]	@ 0x38
 80042c8:	1c9a      	adds	r2, r3, #2
 80042ca:	68fb      	ldr	r3, [r7, #12]
 80042cc:	639a      	str	r2, [r3, #56]	@ 0x38
 80042ce:	68fb      	ldr	r3, [r7, #12]
 80042d0:	8fdb      	ldrh	r3, [r3, #62]	@ 0x3e
 80042d2:	b29b      	uxth	r3, r3
 80042d4:	3b01      	subs	r3, #1
 80042d6:	b29a      	uxth	r2, r3
 80042d8:	68fb      	ldr	r3, [r7, #12]
 80042da:	87da      	strh	r2, [r3, #62]	@ 0x3e
 80042dc:	e02b      	b.n	8004336 <HAL_SPI_Transmit+0x178>
 80042de:	68fb      	ldr	r3, [r7, #12]
 80042e0:	681b      	ldr	r3, [r3, #0]
 80042e2:	689b      	ldr	r3, [r3, #8]
 80042e4:	f003 0302 	and.w	r3, r3, #2
 80042e8:	2b02      	cmp	r3, #2
 80042ea:	d112      	bne.n	8004312 <HAL_SPI_Transmit+0x154>
 80042ec:	68fb      	ldr	r3, [r7, #12]
 80042ee:	6b9b      	ldr	r3, [r3, #56]	@ 0x38
 80042f0:	881a      	ldrh	r2, [r3, #0]
 80042f2:	68fb      	ldr	r3, [r7, #12]
 80042f4:	681b      	ldr	r3, [r3, #0]
 80042f6:	60da      	str	r2, [r3, #12]
 80042f8:	68fb      	ldr	r3, [r7, #12]
 80042fa:	6b9b      	ldr	r3, [r3, #56]	@ 0x38
 80042fc:	1c9a      	adds	r2, r3, #2
 80042fe:	68fb      	ldr	r3, [r7, #12]
 8004300:	639a      	str	r2, [r3, #56]	@ 0x38
 8004302:	68fb      	ldr	r3, [r7, #12]
 8004304:	8fdb      	ldrh	r3, [r3, #62]	@ 0x3e
 8004306:	b29b      	uxth	r3, r3
 8004308:	3b01      	subs	r3, #1
 800430a:	b29a      	uxth	r2, r3
 800430c:	68fb      	ldr	r3, [r7, #12]
 800430e:	87da      	strh	r2, [r3, #62]	@ 0x3e
 8004310:	e011      	b.n	8004336 <HAL_SPI_Transmit+0x178>
 8004312:	f7fe fa15 	bl	8002740 <HAL_GetTick>
 8004316:	4602      	mov	r2, r0
 8004318:	69bb      	ldr	r3, [r7, #24]
 800431a:	1ad3      	subs	r3, r2, r3
 800431c:	683a      	ldr	r2, [r7, #0]
 800431e:	429a      	cmp	r2, r3
 8004320:	d803      	bhi.n	800432a <HAL_SPI_Transmit+0x16c>
 8004322:	683b      	ldr	r3, [r7, #0]
 8004324:	f1b3 3fff 	cmp.w	r3, #4294967295
 8004328:	d102      	bne.n	8004330 <HAL_SPI_Transmit+0x172>
 800432a:	683b      	ldr	r3, [r7, #0]
 800432c:	2b00      	cmp	r3, #0
 800432e:	d102      	bne.n	8004336 <HAL_SPI_Transmit+0x178>
 8004330:	2303      	movs	r3, #3
 8004332:	77fb      	strb	r3, [r7, #31]
 8004334:	e0a4      	b.n	8004480 <HAL_SPI_Transmit+0x2c2>
 8004336:	68fb      	ldr	r3, [r7, #12]
 8004338:	8fdb      	ldrh	r3, [r3, #62]	@ 0x3e
 800433a:	b29b      	uxth	r3, r3
 800433c:	2b00      	cmp	r3, #0
 800433e:	d1ce      	bne.n	80042de <HAL_SPI_Transmit+0x120>
 8004340:	e07c      	b.n	800443c <HAL_SPI_Transmit+0x27e>
 8004342:	68fb      	ldr	r3, [r7, #12]
 8004344:	685b      	ldr	r3, [r3, #4]
 8004346:	2b00      	cmp	r3, #0
 8004348:	d002      	beq.n	8004350 <HAL_SPI_Transmit+0x192>
 800434a:	8afb      	ldrh	r3, [r7, #22]
 800434c:	2b01      	cmp	r3, #1
 800434e:	d170      	bne.n	8004432 <HAL_SPI_Transmit+0x274>
 8004350:	68fb      	ldr	r3, [r7, #12]
 8004352:	8fdb      	ldrh	r3, [r3, #62]	@ 0x3e
 8004354:	b29b      	uxth	r3, r3
 8004356:	2b01      	cmp	r3, #1
 8004358:	d912      	bls.n	8004380 <HAL_SPI_Transmit+0x1c2>
 800435a:	68fb      	ldr	r3, [r7, #12]
 800435c:	6b9b      	ldr	r3, [r3, #56]	@ 0x38
 800435e:	881a      	ldrh	r2, [r3, #0]
 8004360:	68fb      	ldr	r3, [r7, #12]
 8004362:	681b      	ldr	r3, [r3, #0]
 8004364:	60da      	str	r2, [r3, #12]
 8004366:	68fb      	ldr	r3, [r7, #12]
 8004368:	6b9b      	ldr	r3, [r3, #56]	@ 0x38
 800436a:	1c9a      	adds	r2, r3, #2
 800436c:	68fb      	ldr	r3, [r7, #12]
 800436e:	639a      	str	r2, [r3, #56]	@ 0x38
 8004370:	68fb      	ldr	r3, [r7, #12]
 8004372:	8fdb      	ldrh	r3, [r3, #62]	@ 0x3e
 8004374:	b29b      	uxth	r3, r3
 8004376:	3b02      	subs	r3, #2
 8004378:	b29a      	uxth	r2, r3
 800437a:	68fb      	ldr	r3, [r7, #12]
 800437c:	87da      	strh	r2, [r3, #62]	@ 0x3e
 800437e:	e058      	b.n	8004432 <HAL_SPI_Transmit+0x274>
 8004380:	68fb      	ldr	r3, [r7, #12]
 8004382:	6b9a      	ldr	r2, [r3, #56]	@ 0x38
 8004384:	68fb      	ldr	r3, [r7, #12]
 8004386:	681b      	ldr	r3, [r3, #0]
 8004388:	330c      	adds	r3, #12
 800438a:	7812      	ldrb	r2, [r2, #0]
 800438c:	701a      	strb	r2, [r3, #0]
 800438e:	68fb      	ldr	r3, [r7, #12]
 8004390:	6b9b      	ldr	r3, [r3, #56]	@ 0x38
 8004392:	1c5a      	adds	r2, r3, #1
 8004394:	68fb      	ldr	r3, [r7, #12]
 8004396:	639a      	str	r2, [r3, #56]	@ 0x38
 8004398:	68fb      	ldr	r3, [r7, #12]
 800439a:	8fdb      	ldrh	r3, [r3, #62]	@ 0x3e
 800439c:	b29b      	uxth	r3, r3
 800439e:	3b01      	subs	r3, #1
 80043a0:	b29a      	uxth	r2, r3
 80043a2:	68fb      	ldr	r3, [r7, #12]
 80043a4:	87da      	strh	r2, [r3, #62]	@ 0x3e
 80043a6:	e044      	b.n	8004432 <HAL_SPI_Transmit+0x274>
 80043a8:	68fb      	ldr	r3, [r7, #12]
 80043aa:	681b      	ldr	r3, [r3, #0]
 80043ac:	689b      	ldr	r3, [r3, #8]
 80043ae:	f003 0302 	and.w	r3, r3, #2
 80043b2:	2b02      	cmp	r3, #2
 80043b4:	d12b      	bne.n	800440e <HAL_SPI_Transmit+0x250>
 80043b6:	68fb      	ldr	r3, [r7, #12]
 80043b8:	8fdb      	ldrh	r3, [r3, #62]	@ 0x3e
 80043ba:	b29b      	uxth	r3, r3
 80043bc:	2b01      	cmp	r3, #1
 80043be:	d912      	bls.n	80043e6 <HAL_SPI_Transmit+0x228>
 80043c0:	68fb      	ldr	r3, [r7, #12]
 80043c2:	6b9b      	ldr	r3, [r3, #56]	@ 0x38
 80043c4:	881a      	ldrh	r2, [r3, #0]
 80043c6:	68fb      	ldr	r3, [r7, #12]
 80043c8:	681b      	ldr	r3, [r3, #0]
 80043ca:	60da      	str	r2, [r3, #12]
 80043cc:	68fb      	ldr	r3, [r7, #12]
 80043ce:	6b9b      	ldr	r3, [r3, #56]	@ 0x38
 80043d0:	1c9a      	adds	r2, r3, #2
 80043d2:	68fb      	ldr	r3, [r7, #12]
 80043d4:	639a      	str	r2, [r3, #56]	@ 0x38
 80043d6:	68fb      	ldr	r3, [r7, #12]
 80043d8:	8fdb      	ldrh	r3, [r3, #62]	@ 0x3e
 80043da:	b29b      	uxth	r3, r3
 80043dc:	3b02      	subs	r3, #2
 80043de:	b29a      	uxth	r2, r3
 80043e0:	68fb      	ldr	r3, [r7, #12]
 80043e2:	87da      	strh	r2, [r3, #62]	@ 0x3e
 80043e4:	e025      	b.n	8004432 <HAL_SPI_Transmit+0x274>
 80043e6:	68fb      	ldr	r3, [r7, #12]
 80043e8:	6b9a      	ldr	r2, [r3, #56]	@ 0x38
 80043ea:	68fb      	ldr	r3, [r7, #12]
 80043ec:	681b      	ldr	r3, [r3, #0]
 80043ee:	330c      	adds	r3, #12
 80043f0:	7812      	ldrb	r2, [r2, #0]
 80043f2:	701a      	strb	r2, [r3, #0]
 80043f4:	68fb      	ldr	r3, [r7, #12]
 80043f6:	6b9b      	ldr	r3, [r3, #56]	@ 0x38
 80043f8:	1c5a      	adds	r2, r3, #1
 80043fa:	68fb      	ldr	r3, [r7, #12]
 80043fc:	639a      	str	r2, [r3, #56]	@ 0x38
 80043fe:	68fb      	ldr	r3, [r7, #12]
 8004400:	8fdb      	ldrh	r3, [r3, #62]	@ 0x3e
 8004402:	b29b      	uxth	r3, r3
 8004404:	3b01      	subs	r3, #1
 8004406:	b29a      	uxth	r2, r3
 8004408:	68fb      	ldr	r3, [r7, #12]
 800440a:	87da      	strh	r2, [r3, #62]	@ 0x3e
 800440c:	e011      	b.n	8004432 <HAL_SPI_Transmit+0x274>
 800440e:	f7fe f997 	bl	8002740 <HAL_GetTick>
 8004412:	4602      	mov	r2, r0
 8004414:	69bb      	ldr	r3, [r7, #24]
 8004416:	1ad3      	subs	r3, r2, r3
 8004418:	683a      	ldr	r2, [r7, #0]
 800441a:	429a      	cmp	r2, r3
 800441c:	d803      	bhi.n	8004426 <HAL_SPI_Transmit+0x268>
 800441e:	683b      	ldr	r3, [r7, #0]
 8004420:	f1b3 3fff 	cmp.w	r3, #4294967295
 8004424:	d102      	bne.n	800442c <HAL_SPI_Transmit+0x26e>
 8004426:	683b      	ldr	r3, [r7, #0]
 8004428:	2b00      	cmp	r3, #0
 800442a:	d102      	bne.n	8004432 <HAL_SPI_Transmit+0x274>
 800442c:	2303      	movs	r3, #3
 800442e:	77fb      	strb	r3, [r7, #31]
 8004430:	e026      	b.n	8004480 <HAL_SPI_Transmit+0x2c2>
 8004432:	68fb      	ldr	r3, [r7, #12]
 8004434:	8fdb      	ldrh	r3, [r3, #62]	@ 0x3e
 8004436:	b29b      	uxth	r3, r3
 8004438:	2b00      	cmp	r3, #0
 800443a:	d1b5      	bne.n	80043a8 <HAL_SPI_Transmit+0x1ea>
 800443c:	69ba      	ldr	r2, [r7, #24]
 800443e:	6839      	ldr	r1, [r7, #0]
 8004440:	68f8      	ldr	r0, [r7, #12]
 8004442:	f000 f949 	bl	80046d8 <SPI_EndRxTxTransaction>
 8004446:	4603      	mov	r3, r0
 8004448:	2b00      	cmp	r3, #0
 800444a:	d002      	beq.n	8004452 <HAL_SPI_Transmit+0x294>
 800444c:	68fb      	ldr	r3, [r7, #12]
 800444e:	2220      	movs	r2, #32
 8004450:	661a      	str	r2, [r3, #96]	@ 0x60
 8004452:	68fb      	ldr	r3, [r7, #12]
 8004454:	689b      	ldr	r3, [r3, #8]
 8004456:	2b00      	cmp	r3, #0
 8004458:	d10a      	bne.n	8004470 <HAL_SPI_Transmit+0x2b2>
 800445a:	2300      	movs	r3, #0
 800445c:	613b      	str	r3, [r7, #16]
 800445e:	68fb      	ldr	r3, [r7, #12]
 8004460:	681b      	ldr	r3, [r3, #0]
 8004462:	68db      	ldr	r3, [r3, #12]
 8004464:	613b      	str	r3, [r7, #16]
 8004466:	68fb      	ldr	r3, [r7, #12]
 8004468:	681b      	ldr	r3, [r3, #0]
 800446a:	689b      	ldr	r3, [r3, #8]
 800446c:	613b      	str	r3, [r7, #16]
 800446e:	693b      	ldr	r3, [r7, #16]
 8004470:	68fb      	ldr	r3, [r7, #12]
 8004472:	6e1b      	ldr	r3, [r3, #96]	@ 0x60
 8004474:	2b00      	cmp	r3, #0
 8004476:	d002      	beq.n	800447e <HAL_SPI_Transmit+0x2c0>
 8004478:	2301      	movs	r3, #1
 800447a:	77fb      	strb	r3, [r7, #31]
 800447c:	e000      	b.n	8004480 <HAL_SPI_Transmit+0x2c2>
 800447e:	bf00      	nop
 8004480:	68fb      	ldr	r3, [r7, #12]
 8004482:	2201      	movs	r2, #1
 8004484:	f883 205d 	strb.w	r2, [r3, #93]	@ 0x5d
 8004488:	68fb      	ldr	r3, [r7, #12]
 800448a:	2200      	movs	r2, #0
 800448c:	f883 205c 	strb.w	r2, [r3, #92]	@ 0x5c
 8004490:	7ffb      	ldrb	r3, [r7, #31]
 8004492:	4618      	mov	r0, r3
 8004494:	3720      	adds	r7, #32
 8004496:	46bd      	mov	sp, r7
 8004498:	bd80      	pop	{r7, pc}
	...

0800449c <SPI_WaitFlagStateUntilTimeout>:
 800449c:	b580      	push	{r7, lr}
 800449e:	b088      	sub	sp, #32
 80044a0:	af00      	add	r7, sp, #0
 80044a2:	60f8      	str	r0, [r7, #12]
 80044a4:	60b9      	str	r1, [r7, #8]
 80044a6:	603b      	str	r3, [r7, #0]
 80044a8:	4613      	mov	r3, r2
 80044aa:	71fb      	strb	r3, [r7, #7]
 80044ac:	f7fe f948 	bl	8002740 <HAL_GetTick>
 80044b0:	4602      	mov	r2, r0
 80044b2:	6abb      	ldr	r3, [r7, #40]	@ 0x28
 80044b4:	1a9b      	subs	r3, r3, r2
 80044b6:	683a      	ldr	r2, [r7, #0]
 80044b8:	4413      	add	r3, r2
 80044ba:	61fb      	str	r3, [r7, #28]
 80044bc:	f7fe f940 	bl	8002740 <HAL_GetTick>
 80044c0:	61b8      	str	r0, [r7, #24]
 80044c2:	4b39      	ldr	r3, [pc, #228]	@ (80045a8 <SPI_WaitFlagStateUntilTimeout+0x10c>)
 80044c4:	681b      	ldr	r3, [r3, #0]
 80044c6:	015b      	lsls	r3, r3, #5
 80044c8:	0d1b      	lsrs	r3, r3, #20
 80044ca:	69fa      	ldr	r2, [r7, #28]
 80044cc:	fb02 f303 	mul.w	r3, r2, r3
 80044d0:	617b      	str	r3, [r7, #20]
 80044d2:	e054      	b.n	800457e <SPI_WaitFlagStateUntilTimeout+0xe2>
 80044d4:	683b      	ldr	r3, [r7, #0]
 80044d6:	f1b3 3fff 	cmp.w	r3, #4294967295
 80044da:	d050      	beq.n	800457e <SPI_WaitFlagStateUntilTimeout+0xe2>
 80044dc:	f7fe f930 	bl	8002740 <HAL_GetTick>
 80044e0:	4602      	mov	r2, r0
 80044e2:	69bb      	ldr	r3, [r7, #24]
 80044e4:	1ad3      	subs	r3, r2, r3
 80044e6:	69fa      	ldr	r2, [r7, #28]
 80044e8:	429a      	cmp	r2, r3
 80044ea:	d902      	bls.n	80044f2 <SPI_WaitFlagStateUntilTimeout+0x56>
 80044ec:	69fb      	ldr	r3, [r7, #28]
 80044ee:	2b00      	cmp	r3, #0
 80044f0:	d13d      	bne.n	800456e <SPI_WaitFlagStateUntilTimeout+0xd2>
 80044f2:	68fb      	ldr	r3, [r7, #12]
 80044f4:	681b      	ldr	r3, [r3, #0]
 80044f6:	685a      	ldr	r2, [r3, #4]
 80044f8:	68fb      	ldr	r3, [r7, #12]
 80044fa:	681b      	ldr	r3, [r3, #0]
 80044fc:	f022 02e0 	bic.w	r2, r2, #224	@ 0xe0
 8004500:	605a      	str	r2, [r3, #4]
 8004502:	68fb      	ldr	r3, [r7, #12]
 8004504:	685b      	ldr	r3, [r3, #4]
 8004506:	f5b3 7f82 	cmp.w	r3, #260	@ 0x104
 800450a:	d111      	bne.n	8004530 <SPI_WaitFlagStateUntilTimeout+0x94>
 800450c:	68fb      	ldr	r3, [r7, #12]
 800450e:	689b      	ldr	r3, [r3, #8]
 8004510:	f5b3 4f00 	cmp.w	r3, #32768	@ 0x8000
 8004514:	d004      	beq.n	8004520 <SPI_WaitFlagStateUntilTimeout+0x84>
 8004516:	68fb      	ldr	r3, [r7, #12]
 8004518:	689b      	ldr	r3, [r3, #8]
 800451a:	f5b3 6f80 	cmp.w	r3, #1024	@ 0x400
 800451e:	d107      	bne.n	8004530 <SPI_WaitFlagStateUntilTimeout+0x94>
 8004520:	68fb      	ldr	r3, [r7, #12]
 8004522:	681b      	ldr	r3, [r3, #0]
 8004524:	681a      	ldr	r2, [r3, #0]
 8004526:	68fb      	ldr	r3, [r7, #12]
 8004528:	681b      	ldr	r3, [r3, #0]
 800452a:	f022 0240 	bic.w	r2, r2, #64	@ 0x40
 800452e:	601a      	str	r2, [r3, #0]
 8004530:	68fb      	ldr	r3, [r7, #12]
 8004532:	6a9b      	ldr	r3, [r3, #40]	@ 0x28
 8004534:	f5b3 5f00 	cmp.w	r3, #8192	@ 0x2000
 8004538:	d10f      	bne.n	800455a <SPI_WaitFlagStateUntilTimeout+0xbe>
 800453a:	68fb      	ldr	r3, [r7, #12]
 800453c:	681b      	ldr	r3, [r3, #0]
 800453e:	681a      	ldr	r2, [r3, #0]
 8004540:	68fb      	ldr	r3, [r7, #12]
 8004542:	681b      	ldr	r3, [r3, #0]
 8004544:	f422 5200 	bic.w	r2, r2, #8192	@ 0x2000
 8004548:	601a      	str	r2, [r3, #0]
 800454a:	68fb      	ldr	r3, [r7, #12]
 800454c:	681b      	ldr	r3, [r3, #0]
 800454e:	681a      	ldr	r2, [r3, #0]
 8004550:	68fb      	ldr	r3, [r7, #12]
 8004552:	681b      	ldr	r3, [r3, #0]
 8004554:	f442 5200 	orr.w	r2, r2, #8192	@ 0x2000
 8004558:	601a      	str	r2, [r3, #0]
 800455a:	68fb      	ldr	r3, [r7, #12]
 800455c:	2201      	movs	r2, #1
 800455e:	f883 205d 	strb.w	r2, [r3, #93]	@ 0x5d
 8004562:	68fb      	ldr	r3, [r7, #12]
 8004564:	2200      	movs	r2, #0
 8004566:	f883 205c 	strb.w	r2, [r3, #92]	@ 0x5c
 800456a:	2303      	movs	r3, #3
 800456c:	e017      	b.n	800459e <SPI_WaitFlagStateUntilTimeout+0x102>
 800456e:	697b      	ldr	r3, [r7, #20]
 8004570:	2b00      	cmp	r3, #0
 8004572:	d101      	bne.n	8004578 <SPI_WaitFlagStateUntilTimeout+0xdc>
 8004574:	2300      	movs	r3, #0
 8004576:	61fb      	str	r3, [r7, #28]
 8004578:	697b      	ldr	r3, [r7, #20]
 800457a:	3b01      	subs	r3, #1
 800457c:	617b      	str	r3, [r7, #20]
 800457e:	68fb      	ldr	r3, [r7, #12]
 8004580:	681b      	ldr	r3, [r3, #0]
 8004582:	689a      	ldr	r2, [r3, #8]
 8004584:	68bb      	ldr	r3, [r7, #8]
 8004586:	4013      	ands	r3, r2
 8004588:	68ba      	ldr	r2, [r7, #8]
 800458a:	429a      	cmp	r2, r3
 800458c:	bf0c      	ite	eq
 800458e:	2301      	moveq	r3, #1
 8004590:	2300      	movne	r3, #0
 8004592:	b2db      	uxtb	r3, r3
 8004594:	461a      	mov	r2, r3
 8004596:	79fb      	ldrb	r3, [r7, #7]
 8004598:	429a      	cmp	r2, r3
 800459a:	d19b      	bne.n	80044d4 <SPI_WaitFlagStateUntilTimeout+0x38>
 800459c:	2300      	movs	r3, #0
 800459e:	4618      	mov	r0, r3
 80045a0:	3720      	adds	r7, #32
 80045a2:	46bd      	mov	sp, r7
 80045a4:	bd80      	pop	{r7, pc}
 80045a6:	bf00      	nop
 80045a8:	20000014 	.word	0x20000014

080045ac <SPI_WaitFifoStateUntilTimeout>:
 80045ac:	b580      	push	{r7, lr}
 80045ae:	b08a      	sub	sp, #40	@ 0x28
 80045b0:	af00      	add	r7, sp, #0
 80045b2:	60f8      	str	r0, [r7, #12]
 80045b4:	60b9      	str	r1, [r7, #8]
 80045b6:	607a      	str	r2, [r7, #4]
 80045b8:	603b      	str	r3, [r7, #0]
 80045ba:	2300      	movs	r3, #0
 80045bc:	75fb      	strb	r3, [r7, #23]
 80045be:	f7fe f8bf 	bl	8002740 <HAL_GetTick>
 80045c2:	4602      	mov	r2, r0
 80045c4:	6b3b      	ldr	r3, [r7, #48]	@ 0x30
 80045c6:	1a9b      	subs	r3, r3, r2
 80045c8:	683a      	ldr	r2, [r7, #0]
 80045ca:	4413      	add	r3, r2
 80045cc:	627b      	str	r3, [r7, #36]	@ 0x24
 80045ce:	f7fe f8b7 	bl	8002740 <HAL_GetTick>
 80045d2:	6238      	str	r0, [r7, #32]
 80045d4:	68fb      	ldr	r3, [r7, #12]
 80045d6:	681b      	ldr	r3, [r3, #0]
 80045d8:	330c      	adds	r3, #12
 80045da:	61fb      	str	r3, [r7, #28]
 80045dc:	4b3d      	ldr	r3, [pc, #244]	@ (80046d4 <SPI_WaitFifoStateUntilTimeout+0x128>)
 80045de:	681a      	ldr	r2, [r3, #0]
 80045e0:	4613      	mov	r3, r2
 80045e2:	009b      	lsls	r3, r3, #2
 80045e4:	4413      	add	r3, r2
 80045e6:	00da      	lsls	r2, r3, #3
 80045e8:	1ad3      	subs	r3, r2, r3
 80045ea:	0d1b      	lsrs	r3, r3, #20
 80045ec:	6a7a      	ldr	r2, [r7, #36]	@ 0x24
 80045ee:	fb02 f303 	mul.w	r3, r2, r3
 80045f2:	61bb      	str	r3, [r7, #24]
 80045f4:	e060      	b.n	80046b8 <SPI_WaitFifoStateUntilTimeout+0x10c>
 80045f6:	68bb      	ldr	r3, [r7, #8]
 80045f8:	f5b3 6fc0 	cmp.w	r3, #1536	@ 0x600
 80045fc:	d107      	bne.n	800460e <SPI_WaitFifoStateUntilTimeout+0x62>
 80045fe:	687b      	ldr	r3, [r7, #4]
 8004600:	2b00      	cmp	r3, #0
 8004602:	d104      	bne.n	800460e <SPI_WaitFifoStateUntilTimeout+0x62>
 8004604:	69fb      	ldr	r3, [r7, #28]
 8004606:	781b      	ldrb	r3, [r3, #0]
 8004608:	b2db      	uxtb	r3, r3
 800460a:	75fb      	strb	r3, [r7, #23]
 800460c:	7dfb      	ldrb	r3, [r7, #23]
 800460e:	683b      	ldr	r3, [r7, #0]
 8004610:	f1b3 3fff 	cmp.w	r3, #4294967295
 8004614:	d050      	beq.n	80046b8 <SPI_WaitFifoStateUntilTimeout+0x10c>
 8004616:	f7fe f893 	bl	8002740 <HAL_GetTick>
 800461a:	4602      	mov	r2, r0
 800461c:	6a3b      	ldr	r3, [r7, #32]
 800461e:	1ad3      	subs	r3, r2, r3
 8004620:	6a7a      	ldr	r2, [r7, #36]	@ 0x24
 8004622:	429a      	cmp	r2, r3
 8004624:	d902      	bls.n	800462c <SPI_WaitFifoStateUntilTimeout+0x80>
 8004626:	6a7b      	ldr	r3, [r7, #36]	@ 0x24
 8004628:	2b00      	cmp	r3, #0
 800462a:	d13d      	bne.n	80046a8 <SPI_WaitFifoStateUntilTimeout+0xfc>
 800462c:	68fb      	ldr	r3, [r7, #12]
 800462e:	681b      	ldr	r3, [r3, #0]
 8004630:	685a      	ldr	r2, [r3, #4]
 8004632:	68fb      	ldr	r3, [r7, #12]
 8004634:	681b      	ldr	r3, [r3, #0]
 8004636:	f022 02e0 	bic.w	r2, r2, #224	@ 0xe0
 800463a:	605a      	str	r2, [r3, #4]
 800463c:	68fb      	ldr	r3, [r7, #12]
 800463e:	685b      	ldr	r3, [r3, #4]
 8004640:	f5b3 7f82 	cmp.w	r3, #260	@ 0x104
 8004644:	d111      	bne.n	800466a <SPI_WaitFifoStateUntilTimeout+0xbe>
 8004646:	68fb      	ldr	r3, [r7, #12]
 8004648:	689b      	ldr	r3, [r3, #8]
 800464a:	f5b3 4f00 	cmp.w	r3, #32768	@ 0x8000
 800464e:	d004      	beq.n	800465a <SPI_WaitFifoStateUntilTimeout+0xae>
 8004650:	68fb      	ldr	r3, [r7, #12]
 8004652:	689b      	ldr	r3, [r3, #8]
 8004654:	f5b3 6f80 	cmp.w	r3, #1024	@ 0x400
 8004658:	d107      	bne.n	800466a <SPI_WaitFifoStateUntilTimeout+0xbe>
 800465a:	68fb      	ldr	r3, [r7, #12]
 800465c:	681b      	ldr	r3, [r3, #0]
 800465e:	681a      	ldr	r2, [r3, #0]
 8004660:	68fb      	ldr	r3, [r7, #12]
 8004662:	681b      	ldr	r3, [r3, #0]
 8004664:	f022 0240 	bic.w	r2, r2, #64	@ 0x40
 8004668:	601a      	str	r2, [r3, #0]
 800466a:	68fb      	ldr	r3, [r7, #12]
 800466c:	6a9b      	ldr	r3, [r3, #40]	@ 0x28
 800466e:	f5b3 5f00 	cmp.w	r3, #8192	@ 0x2000
 8004672:	d10f      	bne.n	8004694 <SPI_WaitFifoStateUntilTimeout+0xe8>
 8004674:	68fb      	ldr	r3, [r7, #12]
 8004676:	681b      	ldr	r3, [r3, #0]
 8004678:	681a      	ldr	r2, [r3, #0]
 800467a:	68fb      	ldr	r3, [r7, #12]
 800467c:	681b      	ldr	r3, [r3, #0]
 800467e:	f422 5200 	bic.w	r2, r2, #8192	@ 0x2000
 8004682:	601a      	str	r2, [r3, #0]
 8004684:	68fb      	ldr	r3, [r7, #12]
 8004686:	681b      	ldr	r3, [r3, #0]
 8004688:	681a      	ldr	r2, [r3, #0]
 800468a:	68fb      	ldr	r3, [r7, #12]
 800468c:	681b      	ldr	r3, [r3, #0]
 800468e:	f442 5200 	orr.w	r2, r2, #8192	@ 0x2000
 8004692:	601a      	str	r2, [r3, #0]
 8004694:	68fb      	ldr	r3, [r7, #12]
 8004696:	2201      	movs	r2, #1
 8004698:	f883 205d 	strb.w	r2, [r3, #93]	@ 0x5d
 800469c:	68fb      	ldr	r3, [r7, #12]
 800469e:	2200      	movs	r2, #0
 80046a0:	f883 205c 	strb.w	r2, [r3, #92]	@ 0x5c
 80046a4:	2303      	movs	r3, #3
 80046a6:	e010      	b.n	80046ca <SPI_WaitFifoStateUntilTimeout+0x11e>
 80046a8:	69bb      	ldr	r3, [r7, #24]
 80046aa:	2b00      	cmp	r3, #0
 80046ac:	d101      	bne.n	80046b2 <SPI_WaitFifoStateUntilTimeout+0x106>
 80046ae:	2300      	movs	r3, #0
 80046b0:	627b      	str	r3, [r7, #36]	@ 0x24
 80046b2:	69bb      	ldr	r3, [r7, #24]
 80046b4:	3b01      	subs	r3, #1
 80046b6:	61bb      	str	r3, [r7, #24]
 80046b8:	68fb      	ldr	r3, [r7, #12]
 80046ba:	681b      	ldr	r3, [r3, #0]
 80046bc:	689a      	ldr	r2, [r3, #8]
 80046be:	68bb      	ldr	r3, [r7, #8]
 80046c0:	4013      	ands	r3, r2
 80046c2:	687a      	ldr	r2, [r7, #4]
 80046c4:	429a      	cmp	r2, r3
 80046c6:	d196      	bne.n	80045f6 <SPI_WaitFifoStateUntilTimeout+0x4a>
 80046c8:	2300      	movs	r3, #0
 80046ca:	4618      	mov	r0, r3
 80046cc:	3728      	adds	r7, #40	@ 0x28
 80046ce:	46bd      	mov	sp, r7
 80046d0:	bd80      	pop	{r7, pc}
 80046d2:	bf00      	nop
 80046d4:	20000014 	.word	0x20000014

080046d8 <SPI_EndRxTxTransaction>:
 80046d8:	b580      	push	{r7, lr}
 80046da:	b088      	sub	sp, #32
 80046dc:	af02      	add	r7, sp, #8
 80046de:	60f8      	str	r0, [r7, #12]
 80046e0:	60b9      	str	r1, [r7, #8]
 80046e2:	607a      	str	r2, [r7, #4]
 80046e4:	687b      	ldr	r3, [r7, #4]
 80046e6:	9300      	str	r3, [sp, #0]
 80046e8:	68bb      	ldr	r3, [r7, #8]
 80046ea:	2200      	movs	r2, #0
 80046ec:	f44f 51c0 	mov.w	r1, #6144	@ 0x1800
 80046f0:	68f8      	ldr	r0, [r7, #12]
 80046f2:	f7ff ff5b 	bl	80045ac <SPI_WaitFifoStateUntilTimeout>
 80046f6:	4603      	mov	r3, r0
 80046f8:	2b00      	cmp	r3, #0
 80046fa:	d007      	beq.n	800470c <SPI_EndRxTxTransaction+0x34>
 80046fc:	68fb      	ldr	r3, [r7, #12]
 80046fe:	6e1b      	ldr	r3, [r3, #96]	@ 0x60
 8004700:	f043 0220 	orr.w	r2, r3, #32
 8004704:	68fb      	ldr	r3, [r7, #12]
 8004706:	661a      	str	r2, [r3, #96]	@ 0x60
 8004708:	2303      	movs	r3, #3
 800470a:	e046      	b.n	800479a <SPI_EndRxTxTransaction+0xc2>
 800470c:	4b25      	ldr	r3, [pc, #148]	@ (80047a4 <SPI_EndRxTxTransaction+0xcc>)
 800470e:	681b      	ldr	r3, [r3, #0]
 8004710:	4a25      	ldr	r2, [pc, #148]	@ (80047a8 <SPI_EndRxTxTransaction+0xd0>)
 8004712:	fba2 2303 	umull	r2, r3, r2, r3
 8004716:	0d5b      	lsrs	r3, r3, #21
 8004718:	f44f 727a 	mov.w	r2, #1000	@ 0x3e8
 800471c:	fb02 f303 	mul.w	r3, r2, r3
 8004720:	617b      	str	r3, [r7, #20]
 8004722:	68fb      	ldr	r3, [r7, #12]
 8004724:	685b      	ldr	r3, [r3, #4]
 8004726:	f5b3 7f82 	cmp.w	r3, #260	@ 0x104
 800472a:	d112      	bne.n	8004752 <SPI_EndRxTxTransaction+0x7a>
 800472c:	687b      	ldr	r3, [r7, #4]
 800472e:	9300      	str	r3, [sp, #0]
 8004730:	68bb      	ldr	r3, [r7, #8]
 8004732:	2200      	movs	r2, #0
 8004734:	2180      	movs	r1, #128	@ 0x80
 8004736:	68f8      	ldr	r0, [r7, #12]
 8004738:	f7ff feb0 	bl	800449c <SPI_WaitFlagStateUntilTimeout>
 800473c:	4603      	mov	r3, r0
 800473e:	2b00      	cmp	r3, #0
 8004740:	d016      	beq.n	8004770 <SPI_EndRxTxTransaction+0x98>
 8004742:	68fb      	ldr	r3, [r7, #12]
 8004744:	6e1b      	ldr	r3, [r3, #96]	@ 0x60
 8004746:	f043 0220 	orr.w	r2, r3, #32
 800474a:	68fb      	ldr	r3, [r7, #12]
 800474c:	661a      	str	r2, [r3, #96]	@ 0x60
 800474e:	2303      	movs	r3, #3
 8004750:	e023      	b.n	800479a <SPI_EndRxTxTransaction+0xc2>
 8004752:	697b      	ldr	r3, [r7, #20]
 8004754:	2b00      	cmp	r3, #0
 8004756:	d00a      	beq.n	800476e <SPI_EndRxTxTransaction+0x96>
 8004758:	697b      	ldr	r3, [r7, #20]
 800475a:	3b01      	subs	r3, #1
 800475c:	617b      	str	r3, [r7, #20]
 800475e:	68fb      	ldr	r3, [r7, #12]
 8004760:	681b      	ldr	r3, [r3, #0]
 8004762:	689b      	ldr	r3, [r3, #8]
 8004764:	f003 0380 	and.w	r3, r3, #128	@ 0x80
 8004768:	2b80      	cmp	r3, #128	@ 0x80
 800476a:	d0f2      	beq.n	8004752 <SPI_EndRxTxTransaction+0x7a>
 800476c:	e000      	b.n	8004770 <SPI_EndRxTxTransaction+0x98>
 800476e:	bf00      	nop
 8004770:	687b      	ldr	r3, [r7, #4]
 8004772:	9300      	str	r3, [sp, #0]
 8004774:	68bb      	ldr	r3, [r7, #8]
 8004776:	2200      	movs	r2, #0
 8004778:	f44f 61c0 	mov.w	r1, #1536	@ 0x600
 800477c:	68f8      	ldr	r0, [r7, #12]
 800477e:	f7ff ff15 	bl	80045ac <SPI_WaitFifoStateUntilTimeout>
 8004782:	4603      	mov	r3, r0
 8004784:	2b00      	cmp	r3, #0
 8004786:	d007      	beq.n	8004798 <SPI_EndRxTxTransaction+0xc0>
 8004788:	68fb      	ldr	r3, [r7, #12]
 800478a:	6e1b      	ldr	r3, [r3, #96]	@ 0x60
 800478c:	f043 0220 	orr.w	r2, r3, #32
 8004790:	68fb      	ldr	r3, [r7, #12]
 8004792:	661a      	str	r2, [r3, #96]	@ 0x60
 8004794:	2303      	movs	r3, #3
 8004796:	e000      	b.n	800479a <SPI_EndRxTxTransaction+0xc2>
 8004798:	2300      	movs	r3, #0
 800479a:	4618      	mov	r0, r3
 800479c:	3718      	adds	r7, #24
 800479e:	46bd      	mov	sp, r7
 80047a0:	bd80      	pop	{r7, pc}
 80047a2:	bf00      	nop
 80047a4:	20000014 	.word	0x20000014
 80047a8:	165e9f81 	.word	0x165e9f81

080047ac <HAL_TIM_Base_Init>:
 80047ac:	b580      	push	{r7, lr}
 80047ae:	b082      	sub	sp, #8
 80047b0:	af00      	add	r7, sp, #0
 80047b2:	6078      	str	r0, [r7, #4]
 80047b4:	687b      	ldr	r3, [r7, #4]
 80047b6:	2b00      	cmp	r3, #0
 80047b8:	d101      	bne.n	80047be <HAL_TIM_Base_Init+0x12>
 80047ba:	2301      	movs	r3, #1
 80047bc:	e049      	b.n	8004852 <HAL_TIM_Base_Init+0xa6>
 80047be:	687b      	ldr	r3, [r7, #4]
 80047c0:	f893 303d 	ldrb.w	r3, [r3, #61]	@ 0x3d
 80047c4:	b2db      	uxtb	r3, r3
 80047c6:	2b00      	cmp	r3, #0
 80047c8:	d106      	bne.n	80047d8 <HAL_TIM_Base_Init+0x2c>
 80047ca:	687b      	ldr	r3, [r7, #4]
 80047cc:	2200      	movs	r2, #0
 80047ce:	f883 203c 	strb.w	r2, [r3, #60]	@ 0x3c
 80047d2:	6878      	ldr	r0, [r7, #4]
 80047d4:	f7fd fe3a 	bl	800244c <HAL_TIM_Base_MspInit>
 80047d8:	687b      	ldr	r3, [r7, #4]
 80047da:	2202      	movs	r2, #2
 80047dc:	f883 203d 	strb.w	r2, [r3, #61]	@ 0x3d
 80047e0:	687b      	ldr	r3, [r7, #4]
 80047e2:	681a      	ldr	r2, [r3, #0]
 80047e4:	687b      	ldr	r3, [r7, #4]
 80047e6:	3304      	adds	r3, #4
 80047e8:	4619      	mov	r1, r3
 80047ea:	4610      	mov	r0, r2
 80047ec:	f000 fd5e 	bl	80052ac <TIM_Base_SetConfig>
 80047f0:	687b      	ldr	r3, [r7, #4]
 80047f2:	2201      	movs	r2, #1
 80047f4:	f883 2048 	strb.w	r2, [r3, #72]	@ 0x48
 80047f8:	687b      	ldr	r3, [r7, #4]
 80047fa:	2201      	movs	r2, #1
 80047fc:	f883 203e 	strb.w	r2, [r3, #62]	@ 0x3e
 8004800:	687b      	ldr	r3, [r7, #4]
 8004802:	2201      	movs	r2, #1
 8004804:	f883 203f 	strb.w	r2, [r3, #63]	@ 0x3f
 8004808:	687b      	ldr	r3, [r7, #4]
 800480a:	2201      	movs	r2, #1
 800480c:	f883 2040 	strb.w	r2, [r3, #64]	@ 0x40
 8004810:	687b      	ldr	r3, [r7, #4]
 8004812:	2201      	movs	r2, #1
 8004814:	f883 2041 	strb.w	r2, [r3, #65]	@ 0x41
 8004818:	687b      	ldr	r3, [r7, #4]
 800481a:	2201      	movs	r2, #1
 800481c:	f883 2042 	strb.w	r2, [r3, #66]	@ 0x42
 8004820:	687b      	ldr	r3, [r7, #4]
 8004822:	2201      	movs	r2, #1
 8004824:	f883 2043 	strb.w	r2, [r3, #67]	@ 0x43
 8004828:	687b      	ldr	r3, [r7, #4]
 800482a:	2201      	movs	r2, #1
 800482c:	f883 2044 	strb.w	r2, [r3, #68]	@ 0x44
 8004830:	687b      	ldr	r3, [r7, #4]
 8004832:	2201      	movs	r2, #1
 8004834:	f883 2045 	strb.w	r2, [r3, #69]	@ 0x45
 8004838:	687b      	ldr	r3, [r7, #4]
 800483a:	2201      	movs	r2, #1
 800483c:	f883 2046 	strb.w	r2, [r3, #70]	@ 0x46
 8004840:	687b      	ldr	r3, [r7, #4]
 8004842:	2201      	movs	r2, #1
 8004844:	f883 2047 	strb.w	r2, [r3, #71]	@ 0x47
 8004848:	687b      	ldr	r3, [r7, #4]
 800484a:	2201      	movs	r2, #1
 800484c:	f883 203d 	strb.w	r2, [r3, #61]	@ 0x3d
 8004850:	2300      	movs	r3, #0
 8004852:	4618      	mov	r0, r3
 8004854:	3708      	adds	r7, #8
 8004856:	46bd      	mov	sp, r7
 8004858:	bd80      	pop	{r7, pc}
	...

0800485c <HAL_TIM_Base_Start_IT>:
 800485c:	b480      	push	{r7}
 800485e:	b085      	sub	sp, #20
 8004860:	af00      	add	r7, sp, #0
 8004862:	6078      	str	r0, [r7, #4]
 8004864:	687b      	ldr	r3, [r7, #4]
 8004866:	f893 303d 	ldrb.w	r3, [r3, #61]	@ 0x3d
 800486a:	b2db      	uxtb	r3, r3
 800486c:	2b01      	cmp	r3, #1
 800486e:	d001      	beq.n	8004874 <HAL_TIM_Base_Start_IT+0x18>
 8004870:	2301      	movs	r3, #1
 8004872:	e054      	b.n	800491e <HAL_TIM_Base_Start_IT+0xc2>
 8004874:	687b      	ldr	r3, [r7, #4]
 8004876:	2202      	movs	r2, #2
 8004878:	f883 203d 	strb.w	r2, [r3, #61]	@ 0x3d
 800487c:	687b      	ldr	r3, [r7, #4]
 800487e:	681b      	ldr	r3, [r3, #0]
 8004880:	68da      	ldr	r2, [r3, #12]
 8004882:	687b      	ldr	r3, [r7, #4]
 8004884:	681b      	ldr	r3, [r3, #0]
 8004886:	f042 0201 	orr.w	r2, r2, #1
 800488a:	60da      	str	r2, [r3, #12]
 800488c:	687b      	ldr	r3, [r7, #4]
 800488e:	681b      	ldr	r3, [r3, #0]
 8004890:	4a26      	ldr	r2, [pc, #152]	@ (800492c <HAL_TIM_Base_Start_IT+0xd0>)
 8004892:	4293      	cmp	r3, r2
 8004894:	d022      	beq.n	80048dc <HAL_TIM_Base_Start_IT+0x80>
 8004896:	687b      	ldr	r3, [r7, #4]
 8004898:	681b      	ldr	r3, [r3, #0]
 800489a:	f1b3 4f80 	cmp.w	r3, #1073741824	@ 0x40000000
 800489e:	d01d      	beq.n	80048dc <HAL_TIM_Base_Start_IT+0x80>
 80048a0:	687b      	ldr	r3, [r7, #4]
 80048a2:	681b      	ldr	r3, [r3, #0]
 80048a4:	4a22      	ldr	r2, [pc, #136]	@ (8004930 <HAL_TIM_Base_Start_IT+0xd4>)
 80048a6:	4293      	cmp	r3, r2
 80048a8:	d018      	beq.n	80048dc <HAL_TIM_Base_Start_IT+0x80>
 80048aa:	687b      	ldr	r3, [r7, #4]
 80048ac:	681b      	ldr	r3, [r3, #0]
 80048ae:	4a21      	ldr	r2, [pc, #132]	@ (8004934 <HAL_TIM_Base_Start_IT+0xd8>)
 80048b0:	4293      	cmp	r3, r2
 80048b2:	d013      	beq.n	80048dc <HAL_TIM_Base_Start_IT+0x80>
 80048b4:	687b      	ldr	r3, [r7, #4]
 80048b6:	681b      	ldr	r3, [r3, #0]
 80048b8:	4a1f      	ldr	r2, [pc, #124]	@ (8004938 <HAL_TIM_Base_Start_IT+0xdc>)
 80048ba:	4293      	cmp	r3, r2
 80048bc:	d00e      	beq.n	80048dc <HAL_TIM_Base_Start_IT+0x80>
 80048be:	687b      	ldr	r3, [r7, #4]
 80048c0:	681b      	ldr	r3, [r3, #0]
 80048c2:	4a1e      	ldr	r2, [pc, #120]	@ (800493c <HAL_TIM_Base_Start_IT+0xe0>)
 80048c4:	4293      	cmp	r3, r2
 80048c6:	d009      	beq.n	80048dc <HAL_TIM_Base_Start_IT+0x80>
 80048c8:	687b      	ldr	r3, [r7, #4]
 80048ca:	681b      	ldr	r3, [r3, #0]
 80048cc:	4a1c      	ldr	r2, [pc, #112]	@ (8004940 <HAL_TIM_Base_Start_IT+0xe4>)
 80048ce:	4293      	cmp	r3, r2
 80048d0:	d004      	beq.n	80048dc <HAL_TIM_Base_Start_IT+0x80>
 80048d2:	687b      	ldr	r3, [r7, #4]
 80048d4:	681b      	ldr	r3, [r3, #0]
 80048d6:	4a1b      	ldr	r2, [pc, #108]	@ (8004944 <HAL_TIM_Base_Start_IT+0xe8>)
 80048d8:	4293      	cmp	r3, r2
 80048da:	d115      	bne.n	8004908 <HAL_TIM_Base_Start_IT+0xac>
 80048dc:	687b      	ldr	r3, [r7, #4]
 80048de:	681b      	ldr	r3, [r3, #0]
 80048e0:	689a      	ldr	r2, [r3, #8]
 80048e2:	4b19      	ldr	r3, [pc, #100]	@ (8004948 <HAL_TIM_Base_Start_IT+0xec>)
 80048e4:	4013      	ands	r3, r2
 80048e6:	60fb      	str	r3, [r7, #12]
 80048e8:	68fb      	ldr	r3, [r7, #12]
 80048ea:	2b06      	cmp	r3, #6
 80048ec:	d015      	beq.n	800491a <HAL_TIM_Base_Start_IT+0xbe>
 80048ee:	68fb      	ldr	r3, [r7, #12]
 80048f0:	f5b3 3f80 	cmp.w	r3, #65536	@ 0x10000
 80048f4:	d011      	beq.n	800491a <HAL_TIM_Base_Start_IT+0xbe>
 80048f6:	687b      	ldr	r3, [r7, #4]
 80048f8:	681b      	ldr	r3, [r3, #0]
 80048fa:	681a      	ldr	r2, [r3, #0]
 80048fc:	687b      	ldr	r3, [r7, #4]
 80048fe:	681b      	ldr	r3, [r3, #0]
 8004900:	f042 0201 	orr.w	r2, r2, #1
 8004904:	601a      	str	r2, [r3, #0]
 8004906:	e008      	b.n	800491a <HAL_TIM_Base_Start_IT+0xbe>
 8004908:	687b      	ldr	r3, [r7, #4]
 800490a:	681b      	ldr	r3, [r3, #0]
 800490c:	681a      	ldr	r2, [r3, #0]
 800490e:	687b      	ldr	r3, [r7, #4]
 8004910:	681b      	ldr	r3, [r3, #0]
 8004912:	f042 0201 	orr.w	r2, r2, #1
 8004916:	601a      	str	r2, [r3, #0]
 8004918:	e000      	b.n	800491c <HAL_TIM_Base_Start_IT+0xc0>
 800491a:	bf00      	nop
 800491c:	2300      	movs	r3, #0
 800491e:	4618      	mov	r0, r3
 8004920:	3714      	adds	r7, #20
 8004922:	46bd      	mov	sp, r7
 8004924:	f85d 7b04 	ldr.w	r7, [sp], #4
 8004928:	4770      	bx	lr
 800492a:	bf00      	nop
 800492c:	40010000 	.word	0x40010000
 8004930:	40000400 	.word	0x40000400
 8004934:	40000800 	.word	0x40000800
 8004938:	40000c00 	.word	0x40000c00
 800493c:	40010400 	.word	0x40010400
 8004940:	40014000 	.word	0x40014000
 8004944:	40001800 	.word	0x40001800
 8004948:	00010007 	.word	0x00010007

0800494c <HAL_TIM_Base_Stop_IT>:
 800494c:	b480      	push	{r7}
 800494e:	b083      	sub	sp, #12
 8004950:	af00      	add	r7, sp, #0
 8004952:	6078      	str	r0, [r7, #4]
 8004954:	687b      	ldr	r3, [r7, #4]
 8004956:	681b      	ldr	r3, [r3, #0]
 8004958:	68da      	ldr	r2, [r3, #12]
 800495a:	687b      	ldr	r3, [r7, #4]
 800495c:	681b      	ldr	r3, [r3, #0]
 800495e:	f022 0201 	bic.w	r2, r2, #1
 8004962:	60da      	str	r2, [r3, #12]
 8004964:	687b      	ldr	r3, [r7, #4]
 8004966:	681b      	ldr	r3, [r3, #0]
 8004968:	6a1a      	ldr	r2, [r3, #32]
 800496a:	f241 1311 	movw	r3, #4369	@ 0x1111
 800496e:	4013      	ands	r3, r2
 8004970:	2b00      	cmp	r3, #0
 8004972:	d10f      	bne.n	8004994 <HAL_TIM_Base_Stop_IT+0x48>
 8004974:	687b      	ldr	r3, [r7, #4]
 8004976:	681b      	ldr	r3, [r3, #0]
 8004978:	6a1a      	ldr	r2, [r3, #32]
 800497a:	f240 4344 	movw	r3, #1092	@ 0x444
 800497e:	4013      	ands	r3, r2
 8004980:	2b00      	cmp	r3, #0
 8004982:	d107      	bne.n	8004994 <HAL_TIM_Base_Stop_IT+0x48>
 8004984:	687b      	ldr	r3, [r7, #4]
 8004986:	681b      	ldr	r3, [r3, #0]
 8004988:	681a      	ldr	r2, [r3, #0]
 800498a:	687b      	ldr	r3, [r7, #4]
 800498c:	681b      	ldr	r3, [r3, #0]
 800498e:	f022 0201 	bic.w	r2, r2, #1
 8004992:	601a      	str	r2, [r3, #0]
 8004994:	687b      	ldr	r3, [r7, #4]
 8004996:	2201      	movs	r2, #1
 8004998:	f883 203d 	strb.w	r2, [r3, #61]	@ 0x3d
 800499c:	2300      	movs	r3, #0
 800499e:	4618      	mov	r0, r3
 80049a0:	370c      	adds	r7, #12
 80049a2:	46bd      	mov	sp, r7
 80049a4:	f85d 7b04 	ldr.w	r7, [sp], #4
 80049a8:	4770      	bx	lr

080049aa <HAL_TIM_PWM_Init>:
 80049aa:	b580      	push	{r7, lr}
 80049ac:	b082      	sub	sp, #8
 80049ae:	af00      	add	r7, sp, #0
 80049b0:	6078      	str	r0, [r7, #4]
 80049b2:	687b      	ldr	r3, [r7, #4]
 80049b4:	2b00      	cmp	r3, #0
 80049b6:	d101      	bne.n	80049bc <HAL_TIM_PWM_Init+0x12>
 80049b8:	2301      	movs	r3, #1
 80049ba:	e049      	b.n	8004a50 <HAL_TIM_PWM_Init+0xa6>
 80049bc:	687b      	ldr	r3, [r7, #4]
 80049be:	f893 303d 	ldrb.w	r3, [r3, #61]	@ 0x3d
 80049c2:	b2db      	uxtb	r3, r3
 80049c4:	2b00      	cmp	r3, #0
 80049c6:	d106      	bne.n	80049d6 <HAL_TIM_PWM_Init+0x2c>
 80049c8:	687b      	ldr	r3, [r7, #4]
 80049ca:	2200      	movs	r2, #0
 80049cc:	f883 203c 	strb.w	r2, [r3, #60]	@ 0x3c
 80049d0:	6878      	ldr	r0, [r7, #4]
 80049d2:	f000 f841 	bl	8004a58 <HAL_TIM_PWM_MspInit>
 80049d6:	687b      	ldr	r3, [r7, #4]
 80049d8:	2202      	movs	r2, #2
 80049da:	f883 203d 	strb.w	r2, [r3, #61]	@ 0x3d
 80049de:	687b      	ldr	r3, [r7, #4]
 80049e0:	681a      	ldr	r2, [r3, #0]
 80049e2:	687b      	ldr	r3, [r7, #4]
 80049e4:	3304      	adds	r3, #4
 80049e6:	4619      	mov	r1, r3
 80049e8:	4610      	mov	r0, r2
 80049ea:	f000 fc5f 	bl	80052ac <TIM_Base_SetConfig>
 80049ee:	687b      	ldr	r3, [r7, #4]
 80049f0:	2201      	movs	r2, #1
 80049f2:	f883 2048 	strb.w	r2, [r3, #72]	@ 0x48
 80049f6:	687b      	ldr	r3, [r7, #4]
 80049f8:	2201      	movs	r2, #1
 80049fa:	f883 203e 	strb.w	r2, [r3, #62]	@ 0x3e
 80049fe:	687b      	ldr	r3, [r7, #4]
 8004a00:	2201      	movs	r2, #1
 8004a02:	f883 203f 	strb.w	r2, [r3, #63]	@ 0x3f
 8004a06:	687b      	ldr	r3, [r7, #4]
 8004a08:	2201      	movs	r2, #1
 8004a0a:	f883 2040 	strb.w	r2, [r3, #64]	@ 0x40
 8004a0e:	687b      	ldr	r3, [r7, #4]
 8004a10:	2201      	movs	r2, #1
 8004a12:	f883 2041 	strb.w	r2, [r3, #65]	@ 0x41
 8004a16:	687b      	ldr	r3, [r7, #4]
 8004a18:	2201      	movs	r2, #1
 8004a1a:	f883 2042 	strb.w	r2, [r3, #66]	@ 0x42
 8004a1e:	687b      	ldr	r3, [r7, #4]
 8004a20:	2201      	movs	r2, #1
 8004a22:	f883 2043 	strb.w	r2, [r3, #67]	@ 0x43
 8004a26:	687b      	ldr	r3, [r7, #4]
 8004a28:	2201      	movs	r2, #1
 8004a2a:	f883 2044 	strb.w	r2, [r3, #68]	@ 0x44
 8004a2e:	687b      	ldr	r3, [r7, #4]
 8004a30:	2201      	movs	r2, #1
 8004a32:	f883 2045 	strb.w	r2, [r3, #69]	@ 0x45
 8004a36:	687b      	ldr	r3, [r7, #4]
 8004a38:	2201      	movs	r2, #1
 8004a3a:	f883 2046 	strb.w	r2, [r3, #70]	@ 0x46
 8004a3e:	687b      	ldr	r3, [r7, #4]
 8004a40:	2201      	movs	r2, #1
 8004a42:	f883 2047 	strb.w	r2, [r3, #71]	@ 0x47
 8004a46:	687b      	ldr	r3, [r7, #4]
 8004a48:	2201      	movs	r2, #1
 8004a4a:	f883 203d 	strb.w	r2, [r3, #61]	@ 0x3d
 8004a4e:	2300      	movs	r3, #0
 8004a50:	4618      	mov	r0, r3
 8004a52:	3708      	adds	r7, #8
 8004a54:	46bd      	mov	sp, r7
 8004a56:	bd80      	pop	{r7, pc}

08004a58 <HAL_TIM_PWM_MspInit>:
 8004a58:	b480      	push	{r7}
 8004a5a:	b083      	sub	sp, #12
 8004a5c:	af00      	add	r7, sp, #0
 8004a5e:	6078      	str	r0, [r7, #4]
 8004a60:	bf00      	nop
 8004a62:	370c      	adds	r7, #12
 8004a64:	46bd      	mov	sp, r7
 8004a66:	f85d 7b04 	ldr.w	r7, [sp], #4
 8004a6a:	4770      	bx	lr

08004a6c <HAL_TIM_PWM_Start>:
 8004a6c:	b580      	push	{r7, lr}
 8004a6e:	b084      	sub	sp, #16
 8004a70:	af00      	add	r7, sp, #0
 8004a72:	6078      	str	r0, [r7, #4]
 8004a74:	6039      	str	r1, [r7, #0]
 8004a76:	683b      	ldr	r3, [r7, #0]
 8004a78:	2b00      	cmp	r3, #0
 8004a7a:	d109      	bne.n	8004a90 <HAL_TIM_PWM_Start+0x24>
 8004a7c:	687b      	ldr	r3, [r7, #4]
 8004a7e:	f893 303e 	ldrb.w	r3, [r3, #62]	@ 0x3e
 8004a82:	b2db      	uxtb	r3, r3
 8004a84:	2b01      	cmp	r3, #1
 8004a86:	bf14      	ite	ne
 8004a88:	2301      	movne	r3, #1
 8004a8a:	2300      	moveq	r3, #0
 8004a8c:	b2db      	uxtb	r3, r3
 8004a8e:	e03c      	b.n	8004b0a <HAL_TIM_PWM_Start+0x9e>
 8004a90:	683b      	ldr	r3, [r7, #0]
 8004a92:	2b04      	cmp	r3, #4
 8004a94:	d109      	bne.n	8004aaa <HAL_TIM_PWM_Start+0x3e>
 8004a96:	687b      	ldr	r3, [r7, #4]
 8004a98:	f893 303f 	ldrb.w	r3, [r3, #63]	@ 0x3f
 8004a9c:	b2db      	uxtb	r3, r3
 8004a9e:	2b01      	cmp	r3, #1
 8004aa0:	bf14      	ite	ne
 8004aa2:	2301      	movne	r3, #1
 8004aa4:	2300      	moveq	r3, #0
 8004aa6:	b2db      	uxtb	r3, r3
 8004aa8:	e02f      	b.n	8004b0a <HAL_TIM_PWM_Start+0x9e>
 8004aaa:	683b      	ldr	r3, [r7, #0]
 8004aac:	2b08      	cmp	r3, #8
 8004aae:	d109      	bne.n	8004ac4 <HAL_TIM_PWM_Start+0x58>
 8004ab0:	687b      	ldr	r3, [r7, #4]
 8004ab2:	f893 3040 	ldrb.w	r3, [r3, #64]	@ 0x40
 8004ab6:	b2db      	uxtb	r3, r3
 8004ab8:	2b01      	cmp	r3, #1
 8004aba:	bf14      	ite	ne
 8004abc:	2301      	movne	r3, #1
 8004abe:	2300      	moveq	r3, #0
 8004ac0:	b2db      	uxtb	r3, r3
 8004ac2:	e022      	b.n	8004b0a <HAL_TIM_PWM_Start+0x9e>
 8004ac4:	683b      	ldr	r3, [r7, #0]
 8004ac6:	2b0c      	cmp	r3, #12
 8004ac8:	d109      	bne.n	8004ade <HAL_TIM_PWM_Start+0x72>
 8004aca:	687b      	ldr	r3, [r7, #4]
 8004acc:	f893 3041 	ldrb.w	r3, [r3, #65]	@ 0x41
 8004ad0:	b2db      	uxtb	r3, r3
 8004ad2:	2b01      	cmp	r3, #1
 8004ad4:	bf14      	ite	ne
 8004ad6:	2301      	movne	r3, #1
 8004ad8:	2300      	moveq	r3, #0
 8004ada:	b2db      	uxtb	r3, r3
 8004adc:	e015      	b.n	8004b0a <HAL_TIM_PWM_Start+0x9e>
 8004ade:	683b      	ldr	r3, [r7, #0]
 8004ae0:	2b10      	cmp	r3, #16
 8004ae2:	d109      	bne.n	8004af8 <HAL_TIM_PWM_Start+0x8c>
 8004ae4:	687b      	ldr	r3, [r7, #4]
 8004ae6:	f893 3042 	ldrb.w	r3, [r3, #66]	@ 0x42
 8004aea:	b2db      	uxtb	r3, r3
 8004aec:	2b01      	cmp	r3, #1
 8004aee:	bf14      	ite	ne
 8004af0:	2301      	movne	r3, #1
 8004af2:	2300      	moveq	r3, #0
 8004af4:	b2db      	uxtb	r3, r3
 8004af6:	e008      	b.n	8004b0a <HAL_TIM_PWM_Start+0x9e>
 8004af8:	687b      	ldr	r3, [r7, #4]
 8004afa:	f893 3043 	ldrb.w	r3, [r3, #67]	@ 0x43
 8004afe:	b2db      	uxtb	r3, r3
 8004b00:	2b01      	cmp	r3, #1
 8004b02:	bf14      	ite	ne
 8004b04:	2301      	movne	r3, #1
 8004b06:	2300      	moveq	r3, #0
 8004b08:	b2db      	uxtb	r3, r3
 8004b0a:	2b00      	cmp	r3, #0
 8004b0c:	d001      	beq.n	8004b12 <HAL_TIM_PWM_Start+0xa6>
 8004b0e:	2301      	movs	r3, #1
 8004b10:	e092      	b.n	8004c38 <HAL_TIM_PWM_Start+0x1cc>
 8004b12:	683b      	ldr	r3, [r7, #0]
 8004b14:	2b00      	cmp	r3, #0
 8004b16:	d104      	bne.n	8004b22 <HAL_TIM_PWM_Start+0xb6>
 8004b18:	687b      	ldr	r3, [r7, #4]
 8004b1a:	2202      	movs	r2, #2
 8004b1c:	f883 203e 	strb.w	r2, [r3, #62]	@ 0x3e
 8004b20:	e023      	b.n	8004b6a <HAL_TIM_PWM_Start+0xfe>
 8004b22:	683b      	ldr	r3, [r7, #0]
 8004b24:	2b04      	cmp	r3, #4
 8004b26:	d104      	bne.n	8004b32 <HAL_TIM_PWM_Start+0xc6>
 8004b28:	687b      	ldr	r3, [r7, #4]
 8004b2a:	2202      	movs	r2, #2
 8004b2c:	f883 203f 	strb.w	r2, [r3, #63]	@ 0x3f
 8004b30:	e01b      	b.n	8004b6a <HAL_TIM_PWM_Start+0xfe>
 8004b32:	683b      	ldr	r3, [r7, #0]
 8004b34:	2b08      	cmp	r3, #8
 8004b36:	d104      	bne.n	8004b42 <HAL_TIM_PWM_Start+0xd6>
 8004b38:	687b      	ldr	r3, [r7, #4]
 8004b3a:	2202      	movs	r2, #2
 8004b3c:	f883 2040 	strb.w	r2, [r3, #64]	@ 0x40
 8004b40:	e013      	b.n	8004b6a <HAL_TIM_PWM_Start+0xfe>
 8004b42:	683b      	ldr	r3, [r7, #0]
 8004b44:	2b0c      	cmp	r3, #12
 8004b46:	d104      	bne.n	8004b52 <HAL_TIM_PWM_Start+0xe6>
 8004b48:	687b      	ldr	r3, [r7, #4]
 8004b4a:	2202      	movs	r2, #2
 8004b4c:	f883 2041 	strb.w	r2, [r3, #65]	@ 0x41
 8004b50:	e00b      	b.n	8004b6a <HAL_TIM_PWM_Start+0xfe>
 8004b52:	683b      	ldr	r3, [r7, #0]
 8004b54:	2b10      	cmp	r3, #16
 8004b56:	d104      	bne.n	8004b62 <HAL_TIM_PWM_Start+0xf6>
 8004b58:	687b      	ldr	r3, [r7, #4]
 8004b5a:	2202      	movs	r2, #2
 8004b5c:	f883 2042 	strb.w	r2, [r3, #66]	@ 0x42
 8004b60:	e003      	b.n	8004b6a <HAL_TIM_PWM_Start+0xfe>
 8004b62:	687b      	ldr	r3, [r7, #4]
 8004b64:	2202      	movs	r2, #2
 8004b66:	f883 2043 	strb.w	r2, [r3, #67]	@ 0x43
 8004b6a:	687b      	ldr	r3, [r7, #4]
 8004b6c:	681b      	ldr	r3, [r3, #0]
 8004b6e:	2201      	movs	r2, #1
 8004b70:	6839      	ldr	r1, [r7, #0]
 8004b72:	4618      	mov	r0, r3
 8004b74:	f000 ff32 	bl	80059dc <TIM_CCxChannelCmd>
 8004b78:	687b      	ldr	r3, [r7, #4]
 8004b7a:	681b      	ldr	r3, [r3, #0]
 8004b7c:	4a30      	ldr	r2, [pc, #192]	@ (8004c40 <HAL_TIM_PWM_Start+0x1d4>)
 8004b7e:	4293      	cmp	r3, r2
 8004b80:	d004      	beq.n	8004b8c <HAL_TIM_PWM_Start+0x120>
 8004b82:	687b      	ldr	r3, [r7, #4]
 8004b84:	681b      	ldr	r3, [r3, #0]
 8004b86:	4a2f      	ldr	r2, [pc, #188]	@ (8004c44 <HAL_TIM_PWM_Start+0x1d8>)
 8004b88:	4293      	cmp	r3, r2
 8004b8a:	d101      	bne.n	8004b90 <HAL_TIM_PWM_Start+0x124>
 8004b8c:	2301      	movs	r3, #1
 8004b8e:	e000      	b.n	8004b92 <HAL_TIM_PWM_Start+0x126>
 8004b90:	2300      	movs	r3, #0
 8004b92:	2b00      	cmp	r3, #0
 8004b94:	d007      	beq.n	8004ba6 <HAL_TIM_PWM_Start+0x13a>
 8004b96:	687b      	ldr	r3, [r7, #4]
 8004b98:	681b      	ldr	r3, [r3, #0]
 8004b9a:	6c5a      	ldr	r2, [r3, #68]	@ 0x44
 8004b9c:	687b      	ldr	r3, [r7, #4]
 8004b9e:	681b      	ldr	r3, [r3, #0]
 8004ba0:	f442 4200 	orr.w	r2, r2, #32768	@ 0x8000
 8004ba4:	645a      	str	r2, [r3, #68]	@ 0x44
 8004ba6:	687b      	ldr	r3, [r7, #4]
 8004ba8:	681b      	ldr	r3, [r3, #0]
 8004baa:	4a25      	ldr	r2, [pc, #148]	@ (8004c40 <HAL_TIM_PWM_Start+0x1d4>)
 8004bac:	4293      	cmp	r3, r2
 8004bae:	d022      	beq.n	8004bf6 <HAL_TIM_PWM_Start+0x18a>
 8004bb0:	687b      	ldr	r3, [r7, #4]
 8004bb2:	681b      	ldr	r3, [r3, #0]
 8004bb4:	f1b3 4f80 	cmp.w	r3, #1073741824	@ 0x40000000
 8004bb8:	d01d      	beq.n	8004bf6 <HAL_TIM_PWM_Start+0x18a>
 8004bba:	687b      	ldr	r3, [r7, #4]
 8004bbc:	681b      	ldr	r3, [r3, #0]
 8004bbe:	4a22      	ldr	r2, [pc, #136]	@ (8004c48 <HAL_TIM_PWM_Start+0x1dc>)
 8004bc0:	4293      	cmp	r3, r2
 8004bc2:	d018      	beq.n	8004bf6 <HAL_TIM_PWM_Start+0x18a>
 8004bc4:	687b      	ldr	r3, [r7, #4]
 8004bc6:	681b      	ldr	r3, [r3, #0]
 8004bc8:	4a20      	ldr	r2, [pc, #128]	@ (8004c4c <HAL_TIM_PWM_Start+0x1e0>)
 8004bca:	4293      	cmp	r3, r2
 8004bcc:	d013      	beq.n	8004bf6 <HAL_TIM_PWM_Start+0x18a>
 8004bce:	687b      	ldr	r3, [r7, #4]
 8004bd0:	681b      	ldr	r3, [r3, #0]
 8004bd2:	4a1f      	ldr	r2, [pc, #124]	@ (8004c50 <HAL_TIM_PWM_Start+0x1e4>)
 8004bd4:	4293      	cmp	r3, r2
 8004bd6:	d00e      	beq.n	8004bf6 <HAL_TIM_PWM_Start+0x18a>
 8004bd8:	687b      	ldr	r3, [r7, #4]
 8004bda:	681b      	ldr	r3, [r3, #0]
 8004bdc:	4a19      	ldr	r2, [pc, #100]	@ (8004c44 <HAL_TIM_PWM_Start+0x1d8>)
 8004bde:	4293      	cmp	r3, r2
 8004be0:	d009      	beq.n	8004bf6 <HAL_TIM_PWM_Start+0x18a>
 8004be2:	687b      	ldr	r3, [r7, #4]
 8004be4:	681b      	ldr	r3, [r3, #0]
 8004be6:	4a1b      	ldr	r2, [pc, #108]	@ (8004c54 <HAL_TIM_PWM_Start+0x1e8>)
 8004be8:	4293      	cmp	r3, r2
 8004bea:	d004      	beq.n	8004bf6 <HAL_TIM_PWM_Start+0x18a>
 8004bec:	687b      	ldr	r3, [r7, #4]
 8004bee:	681b      	ldr	r3, [r3, #0]
 8004bf0:	4a19      	ldr	r2, [pc, #100]	@ (8004c58 <HAL_TIM_PWM_Start+0x1ec>)
 8004bf2:	4293      	cmp	r3, r2
 8004bf4:	d115      	bne.n	8004c22 <HAL_TIM_PWM_Start+0x1b6>
 8004bf6:	687b      	ldr	r3, [r7, #4]
 8004bf8:	681b      	ldr	r3, [r3, #0]
 8004bfa:	689a      	ldr	r2, [r3, #8]
 8004bfc:	4b17      	ldr	r3, [pc, #92]	@ (8004c5c <HAL_TIM_PWM_Start+0x1f0>)
 8004bfe:	4013      	ands	r3, r2
 8004c00:	60fb      	str	r3, [r7, #12]
 8004c02:	68fb      	ldr	r3, [r7, #12]
 8004c04:	2b06      	cmp	r3, #6
 8004c06:	d015      	beq.n	8004c34 <HAL_TIM_PWM_Start+0x1c8>
 8004c08:	68fb      	ldr	r3, [r7, #12]
 8004c0a:	f5b3 3f80 	cmp.w	r3, #65536	@ 0x10000
 8004c0e:	d011      	beq.n	8004c34 <HAL_TIM_PWM_Start+0x1c8>
 8004c10:	687b      	ldr	r3, [r7, #4]
 8004c12:	681b      	ldr	r3, [r3, #0]
 8004c14:	681a      	ldr	r2, [r3, #0]
 8004c16:	687b      	ldr	r3, [r7, #4]
 8004c18:	681b      	ldr	r3, [r3, #0]
 8004c1a:	f042 0201 	orr.w	r2, r2, #1
 8004c1e:	601a      	str	r2, [r3, #0]
 8004c20:	e008      	b.n	8004c34 <HAL_TIM_PWM_Start+0x1c8>
 8004c22:	687b      	ldr	r3, [r7, #4]
 8004c24:	681b      	ldr	r3, [r3, #0]
 8004c26:	681a      	ldr	r2, [r3, #0]
 8004c28:	687b      	ldr	r3, [r7, #4]
 8004c2a:	681b      	ldr	r3, [r3, #0]
 8004c2c:	f042 0201 	orr.w	r2, r2, #1
 8004c30:	601a      	str	r2, [r3, #0]
 8004c32:	e000      	b.n	8004c36 <HAL_TIM_PWM_Start+0x1ca>
 8004c34:	bf00      	nop
 8004c36:	2300      	movs	r3, #0
 8004c38:	4618      	mov	r0, r3
 8004c3a:	3710      	adds	r7, #16
 8004c3c:	46bd      	mov	sp, r7
 8004c3e:	bd80      	pop	{r7, pc}
 8004c40:	40010000 	.word	0x40010000
 8004c44:	40010400 	.word	0x40010400
 8004c48:	40000400 	.word	0x40000400
 8004c4c:	40000800 	.word	0x40000800
 8004c50:	40000c00 	.word	0x40000c00
 8004c54:	40014000 	.word	0x40014000
 8004c58:	40001800 	.word	0x40001800
 8004c5c:	00010007 	.word	0x00010007

08004c60 <HAL_TIM_IRQHandler>:
 8004c60:	b580      	push	{r7, lr}
 8004c62:	b082      	sub	sp, #8
 8004c64:	af00      	add	r7, sp, #0
 8004c66:	6078      	str	r0, [r7, #4]
 8004c68:	687b      	ldr	r3, [r7, #4]
 8004c6a:	681b      	ldr	r3, [r3, #0]
 8004c6c:	691b      	ldr	r3, [r3, #16]
 8004c6e:	f003 0302 	and.w	r3, r3, #2
 8004c72:	2b02      	cmp	r3, #2
 8004c74:	d122      	bne.n	8004cbc <HAL_TIM_IRQHandler+0x5c>
 8004c76:	687b      	ldr	r3, [r7, #4]
 8004c78:	681b      	ldr	r3, [r3, #0]
 8004c7a:	68db      	ldr	r3, [r3, #12]
 8004c7c:	f003 0302 	and.w	r3, r3, #2
 8004c80:	2b02      	cmp	r3, #2
 8004c82:	d11b      	bne.n	8004cbc <HAL_TIM_IRQHandler+0x5c>
 8004c84:	687b      	ldr	r3, [r7, #4]
 8004c86:	681b      	ldr	r3, [r3, #0]
 8004c88:	f06f 0202 	mvn.w	r2, #2
 8004c8c:	611a      	str	r2, [r3, #16]
 8004c8e:	687b      	ldr	r3, [r7, #4]
 8004c90:	2201      	movs	r2, #1
 8004c92:	771a      	strb	r2, [r3, #28]
 8004c94:	687b      	ldr	r3, [r7, #4]
 8004c96:	681b      	ldr	r3, [r3, #0]
 8004c98:	699b      	ldr	r3, [r3, #24]
 8004c9a:	f003 0303 	and.w	r3, r3, #3
 8004c9e:	2b00      	cmp	r3, #0
 8004ca0:	d003      	beq.n	8004caa <HAL_TIM_IRQHandler+0x4a>
 8004ca2:	6878      	ldr	r0, [r7, #4]
 8004ca4:	f000 fae4 	bl	8005270 <HAL_TIM_IC_CaptureCallback>
 8004ca8:	e005      	b.n	8004cb6 <HAL_TIM_IRQHandler+0x56>
 8004caa:	6878      	ldr	r0, [r7, #4]
 8004cac:	f000 fad6 	bl	800525c <HAL_TIM_OC_DelayElapsedCallback>
 8004cb0:	6878      	ldr	r0, [r7, #4]
 8004cb2:	f000 fae7 	bl	8005284 <HAL_TIM_PWM_PulseFinishedCallback>
 8004cb6:	687b      	ldr	r3, [r7, #4]
 8004cb8:	2200      	movs	r2, #0
 8004cba:	771a      	strb	r2, [r3, #28]
 8004cbc:	687b      	ldr	r3, [r7, #4]
 8004cbe:	681b      	ldr	r3, [r3, #0]
 8004cc0:	691b      	ldr	r3, [r3, #16]
 8004cc2:	f003 0304 	and.w	r3, r3, #4
 8004cc6:	2b04      	cmp	r3, #4
 8004cc8:	d122      	bne.n	8004d10 <HAL_TIM_IRQHandler+0xb0>
 8004cca:	687b      	ldr	r3, [r7, #4]
 8004ccc:	681b      	ldr	r3, [r3, #0]
 8004cce:	68db      	ldr	r3, [r3, #12]
 8004cd0:	f003 0304 	and.w	r3, r3, #4
 8004cd4:	2b04      	cmp	r3, #4
 8004cd6:	d11b      	bne.n	8004d10 <HAL_TIM_IRQHandler+0xb0>
 8004cd8:	687b      	ldr	r3, [r7, #4]
 8004cda:	681b      	ldr	r3, [r3, #0]
 8004cdc:	f06f 0204 	mvn.w	r2, #4
 8004ce0:	611a      	str	r2, [r3, #16]
 8004ce2:	687b      	ldr	r3, [r7, #4]
 8004ce4:	2202      	movs	r2, #2
 8004ce6:	771a      	strb	r2, [r3, #28]
 8004ce8:	687b      	ldr	r3, [r7, #4]
 8004cea:	681b      	ldr	r3, [r3, #0]
 8004cec:	699b      	ldr	r3, [r3, #24]
 8004cee:	f403 7340 	and.w	r3, r3, #768	@ 0x300
 8004cf2:	2b00      	cmp	r3, #0
 8004cf4:	d003      	beq.n	8004cfe <HAL_TIM_IRQHandler+0x9e>
 8004cf6:	6878      	ldr	r0, [r7, #4]
 8004cf8:	f000 faba 	bl	8005270 <HAL_TIM_IC_CaptureCallback>
 8004cfc:	e005      	b.n	8004d0a <HAL_TIM_IRQHandler+0xaa>
 8004cfe:	6878      	ldr	r0, [r7, #4]
 8004d00:	f000 faac 	bl	800525c <HAL_TIM_OC_DelayElapsedCallback>
 8004d04:	6878      	ldr	r0, [r7, #4]
 8004d06:	f000 fabd 	bl	8005284 <HAL_TIM_PWM_PulseFinishedCallback>
 8004d0a:	687b      	ldr	r3, [r7, #4]
 8004d0c:	2200      	movs	r2, #0
 8004d0e:	771a      	strb	r2, [r3, #28]
 8004d10:	687b      	ldr	r3, [r7, #4]
 8004d12:	681b      	ldr	r3, [r3, #0]
 8004d14:	691b      	ldr	r3, [r3, #16]
 8004d16:	f003 0308 	and.w	r3, r3, #8
 8004d1a:	2b08      	cmp	r3, #8
 8004d1c:	d122      	bne.n	8004d64 <HAL_TIM_IRQHandler+0x104>
 8004d1e:	687b      	ldr	r3, [r7, #4]
 8004d20:	681b      	ldr	r3, [r3, #0]
 8004d22:	68db      	ldr	r3, [r3, #12]
 8004d24:	f003 0308 	and.w	r3, r3, #8
 8004d28:	2b08      	cmp	r3, #8
 8004d2a:	d11b      	bne.n	8004d64 <HAL_TIM_IRQHandler+0x104>
 8004d2c:	687b      	ldr	r3, [r7, #4]
 8004d2e:	681b      	ldr	r3, [r3, #0]
 8004d30:	f06f 0208 	mvn.w	r2, #8
 8004d34:	611a      	str	r2, [r3, #16]
 8004d36:	687b      	ldr	r3, [r7, #4]
 8004d38:	2204      	movs	r2, #4
 8004d3a:	771a      	strb	r2, [r3, #28]
 8004d3c:	687b      	ldr	r3, [r7, #4]
 8004d3e:	681b      	ldr	r3, [r3, #0]
 8004d40:	69db      	ldr	r3, [r3, #28]
 8004d42:	f003 0303 	and.w	r3, r3, #3
 8004d46:	2b00      	cmp	r3, #0
 8004d48:	d003      	beq.n	8004d52 <HAL_TIM_IRQHandler+0xf2>
 8004d4a:	6878      	ldr	r0, [r7, #4]
 8004d4c:	f000 fa90 	bl	8005270 <HAL_TIM_IC_CaptureCallback>
 8004d50:	e005      	b.n	8004d5e <HAL_TIM_IRQHandler+0xfe>
 8004d52:	6878      	ldr	r0, [r7, #4]
 8004d54:	f000 fa82 	bl	800525c <HAL_TIM_OC_DelayElapsedCallback>
 8004d58:	6878      	ldr	r0, [r7, #4]
 8004d5a:	f000 fa93 	bl	8005284 <HAL_TIM_PWM_PulseFinishedCallback>
 8004d5e:	687b      	ldr	r3, [r7, #4]
 8004d60:	2200      	movs	r2, #0
 8004d62:	771a      	strb	r2, [r3, #28]
 8004d64:	687b      	ldr	r3, [r7, #4]
 8004d66:	681b      	ldr	r3, [r3, #0]
 8004d68:	691b      	ldr	r3, [r3, #16]
 8004d6a:	f003 0310 	and.w	r3, r3, #16
 8004d6e:	2b10      	cmp	r3, #16
 8004d70:	d122      	bne.n	8004db8 <HAL_TIM_IRQHandler+0x158>
 8004d72:	687b      	ldr	r3, [r7, #4]
 8004d74:	681b      	ldr	r3, [r3, #0]
 8004d76:	68db      	ldr	r3, [r3, #12]
 8004d78:	f003 0310 	and.w	r3, r3, #16
 8004d7c:	2b10      	cmp	r3, #16
 8004d7e:	d11b      	bne.n	8004db8 <HAL_TIM_IRQHandler+0x158>
 8004d80:	687b      	ldr	r3, [r7, #4]
 8004d82:	681b      	ldr	r3, [r3, #0]
 8004d84:	f06f 0210 	mvn.w	r2, #16
 8004d88:	611a      	str	r2, [r3, #16]
 8004d8a:	687b      	ldr	r3, [r7, #4]
 8004d8c:	2208      	movs	r2, #8
 8004d8e:	771a      	strb	r2, [r3, #28]
 8004d90:	687b      	ldr	r3, [r7, #4]
 8004d92:	681b      	ldr	r3, [r3, #0]
 8004d94:	69db      	ldr	r3, [r3, #28]
 8004d96:	f403 7340 	and.w	r3, r3, #768	@ 0x300
 8004d9a:	2b00      	cmp	r3, #0
 8004d9c:	d003      	beq.n	8004da6 <HAL_TIM_IRQHandler+0x146>
 8004d9e:	6878      	ldr	r0, [r7, #4]
 8004da0:	f000 fa66 	bl	8005270 <HAL_TIM_IC_CaptureCallback>
 8004da4:	e005      	b.n	8004db2 <HAL_TIM_IRQHandler+0x152>
 8004da6:	6878      	ldr	r0, [r7, #4]
 8004da8:	f000 fa58 	bl	800525c <HAL_TIM_OC_DelayElapsedCallback>
 8004dac:	6878      	ldr	r0, [r7, #4]
 8004dae:	f000 fa69 	bl	8005284 <HAL_TIM_PWM_PulseFinishedCallback>
 8004db2:	687b      	ldr	r3, [r7, #4]
 8004db4:	2200      	movs	r2, #0
 8004db6:	771a      	strb	r2, [r3, #28]
 8004db8:	687b      	ldr	r3, [r7, #4]
 8004dba:	681b      	ldr	r3, [r3, #0]
 8004dbc:	691b      	ldr	r3, [r3, #16]
 8004dbe:	f003 0301 	and.w	r3, r3, #1
 8004dc2:	2b01      	cmp	r3, #1
 8004dc4:	d10e      	bne.n	8004de4 <HAL_TIM_IRQHandler+0x184>
 8004dc6:	687b      	ldr	r3, [r7, #4]
 8004dc8:	681b      	ldr	r3, [r3, #0]
 8004dca:	68db      	ldr	r3, [r3, #12]
 8004dcc:	f003 0301 	and.w	r3, r3, #1
 8004dd0:	2b01      	cmp	r3, #1
 8004dd2:	d107      	bne.n	8004de4 <HAL_TIM_IRQHandler+0x184>
 8004dd4:	687b      	ldr	r3, [r7, #4]
 8004dd6:	681b      	ldr	r3, [r3, #0]
 8004dd8:	f06f 0201 	mvn.w	r2, #1
 8004ddc:	611a      	str	r2, [r3, #16]
 8004dde:	6878      	ldr	r0, [r7, #4]
 8004de0:	f7fd f8b0 	bl	8001f44 <HAL_TIM_PeriodElapsedCallback>
 8004de4:	687b      	ldr	r3, [r7, #4]
 8004de6:	681b      	ldr	r3, [r3, #0]
 8004de8:	691b      	ldr	r3, [r3, #16]
 8004dea:	f003 0380 	and.w	r3, r3, #128	@ 0x80
 8004dee:	2b80      	cmp	r3, #128	@ 0x80
 8004df0:	d10e      	bne.n	8004e10 <HAL_TIM_IRQHandler+0x1b0>
 8004df2:	687b      	ldr	r3, [r7, #4]
 8004df4:	681b      	ldr	r3, [r3, #0]
 8004df6:	68db      	ldr	r3, [r3, #12]
 8004df8:	f003 0380 	and.w	r3, r3, #128	@ 0x80
 8004dfc:	2b80      	cmp	r3, #128	@ 0x80
 8004dfe:	d107      	bne.n	8004e10 <HAL_TIM_IRQHandler+0x1b0>
 8004e00:	687b      	ldr	r3, [r7, #4]
 8004e02:	681b      	ldr	r3, [r3, #0]
 8004e04:	f06f 0280 	mvn.w	r2, #128	@ 0x80
 8004e08:	611a      	str	r2, [r3, #16]
 8004e0a:	6878      	ldr	r0, [r7, #4]
 8004e0c:	f000 fea4 	bl	8005b58 <HAL_TIMEx_BreakCallback>
 8004e10:	687b      	ldr	r3, [r7, #4]
 8004e12:	681b      	ldr	r3, [r3, #0]
 8004e14:	691b      	ldr	r3, [r3, #16]
 8004e16:	f403 7380 	and.w	r3, r3, #256	@ 0x100
 8004e1a:	f5b3 7f80 	cmp.w	r3, #256	@ 0x100
 8004e1e:	d10e      	bne.n	8004e3e <HAL_TIM_IRQHandler+0x1de>
 8004e20:	687b      	ldr	r3, [r7, #4]
 8004e22:	681b      	ldr	r3, [r3, #0]
 8004e24:	68db      	ldr	r3, [r3, #12]
 8004e26:	f003 0380 	and.w	r3, r3, #128	@ 0x80
 8004e2a:	2b80      	cmp	r3, #128	@ 0x80
 8004e2c:	d107      	bne.n	8004e3e <HAL_TIM_IRQHandler+0x1de>
 8004e2e:	687b      	ldr	r3, [r7, #4]
 8004e30:	681b      	ldr	r3, [r3, #0]
 8004e32:	f46f 7280 	mvn.w	r2, #256	@ 0x100
 8004e36:	611a      	str	r2, [r3, #16]
 8004e38:	6878      	ldr	r0, [r7, #4]
 8004e3a:	f000 fe97 	bl	8005b6c <HAL_TIMEx_Break2Callback>
 8004e3e:	687b      	ldr	r3, [r7, #4]
 8004e40:	681b      	ldr	r3, [r3, #0]
 8004e42:	691b      	ldr	r3, [r3, #16]
 8004e44:	f003 0340 	and.w	r3, r3, #64	@ 0x40
 8004e48:	2b40      	cmp	r3, #64	@ 0x40
 8004e4a:	d10e      	bne.n	8004e6a <HAL_TIM_IRQHandler+0x20a>
 8004e4c:	687b      	ldr	r3, [r7, #4]
 8004e4e:	681b      	ldr	r3, [r3, #0]
 8004e50:	68db      	ldr	r3, [r3, #12]
 8004e52:	f003 0340 	and.w	r3, r3, #64	@ 0x40
 8004e56:	2b40      	cmp	r3, #64	@ 0x40
 8004e58:	d107      	bne.n	8004e6a <HAL_TIM_IRQHandler+0x20a>
 8004e5a:	687b      	ldr	r3, [r7, #4]
 8004e5c:	681b      	ldr	r3, [r3, #0]
 8004e5e:	f06f 0240 	mvn.w	r2, #64	@ 0x40
 8004e62:	611a      	str	r2, [r3, #16]
 8004e64:	6878      	ldr	r0, [r7, #4]
 8004e66:	f000 fa17 	bl	8005298 <HAL_TIM_TriggerCallback>
 8004e6a:	687b      	ldr	r3, [r7, #4]
 8004e6c:	681b      	ldr	r3, [r3, #0]
 8004e6e:	691b      	ldr	r3, [r3, #16]
 8004e70:	f003 0320 	and.w	r3, r3, #32
 8004e74:	2b20      	cmp	r3, #32
 8004e76:	d10e      	bne.n	8004e96 <HAL_TIM_IRQHandler+0x236>
 8004e78:	687b      	ldr	r3, [r7, #4]
 8004e7a:	681b      	ldr	r3, [r3, #0]
 8004e7c:	68db      	ldr	r3, [r3, #12]
 8004e7e:	f003 0320 	and.w	r3, r3, #32
 8004e82:	2b20      	cmp	r3, #32
 8004e84:	d107      	bne.n	8004e96 <HAL_TIM_IRQHandler+0x236>
 8004e86:	687b      	ldr	r3, [r7, #4]
 8004e88:	681b      	ldr	r3, [r3, #0]
 8004e8a:	f06f 0220 	mvn.w	r2, #32
 8004e8e:	611a      	str	r2, [r3, #16]
 8004e90:	6878      	ldr	r0, [r7, #4]
 8004e92:	f000 fe57 	bl	8005b44 <HAL_TIMEx_CommutCallback>
 8004e96:	bf00      	nop
 8004e98:	3708      	adds	r7, #8
 8004e9a:	46bd      	mov	sp, r7
 8004e9c:	bd80      	pop	{r7, pc}
	...

08004ea0 <HAL_TIM_PWM_ConfigChannel>:
 8004ea0:	b580      	push	{r7, lr}
 8004ea2:	b086      	sub	sp, #24
 8004ea4:	af00      	add	r7, sp, #0
 8004ea6:	60f8      	str	r0, [r7, #12]
 8004ea8:	60b9      	str	r1, [r7, #8]
 8004eaa:	607a      	str	r2, [r7, #4]
 8004eac:	2300      	movs	r3, #0
 8004eae:	75fb      	strb	r3, [r7, #23]
 8004eb0:	68fb      	ldr	r3, [r7, #12]
 8004eb2:	f893 303c 	ldrb.w	r3, [r3, #60]	@ 0x3c
 8004eb6:	2b01      	cmp	r3, #1
 8004eb8:	d101      	bne.n	8004ebe <HAL_TIM_PWM_ConfigChannel+0x1e>
 8004eba:	2302      	movs	r3, #2
 8004ebc:	e0ff      	b.n	80050be <HAL_TIM_PWM_ConfigChannel+0x21e>
 8004ebe:	68fb      	ldr	r3, [r7, #12]
 8004ec0:	2201      	movs	r2, #1
 8004ec2:	f883 203c 	strb.w	r2, [r3, #60]	@ 0x3c
 8004ec6:	687b      	ldr	r3, [r7, #4]
 8004ec8:	2b14      	cmp	r3, #20
 8004eca:	f200 80f0 	bhi.w	80050ae <HAL_TIM_PWM_ConfigChannel+0x20e>
 8004ece:	a201      	add	r2, pc, #4	@ (adr r2, 8004ed4 <HAL_TIM_PWM_ConfigChannel+0x34>)
 8004ed0:	f852 f023 	ldr.w	pc, [r2, r3, lsl #2]
 8004ed4:	08004f29 	.word	0x08004f29
 8004ed8:	080050af 	.word	0x080050af
 8004edc:	080050af 	.word	0x080050af
 8004ee0:	080050af 	.word	0x080050af
 8004ee4:	08004f69 	.word	0x08004f69
 8004ee8:	080050af 	.word	0x080050af
 8004eec:	080050af 	.word	0x080050af
 8004ef0:	080050af 	.word	0x080050af
 8004ef4:	08004fab 	.word	0x08004fab
 8004ef8:	080050af 	.word	0x080050af
 8004efc:	080050af 	.word	0x080050af
 8004f00:	080050af 	.word	0x080050af
 8004f04:	08004feb 	.word	0x08004feb
 8004f08:	080050af 	.word	0x080050af
 8004f0c:	080050af 	.word	0x080050af
 8004f10:	080050af 	.word	0x080050af
 8004f14:	0800502d 	.word	0x0800502d
 8004f18:	080050af 	.word	0x080050af
 8004f1c:	080050af 	.word	0x080050af
 8004f20:	080050af 	.word	0x080050af
 8004f24:	0800506d 	.word	0x0800506d
 8004f28:	68fb      	ldr	r3, [r7, #12]
 8004f2a:	681b      	ldr	r3, [r3, #0]
 8004f2c:	68b9      	ldr	r1, [r7, #8]
 8004f2e:	4618      	mov	r0, r3
 8004f30:	f000 fa5c 	bl	80053ec <TIM_OC1_SetConfig>
 8004f34:	68fb      	ldr	r3, [r7, #12]
 8004f36:	681b      	ldr	r3, [r3, #0]
 8004f38:	699a      	ldr	r2, [r3, #24]
 8004f3a:	68fb      	ldr	r3, [r7, #12]
 8004f3c:	681b      	ldr	r3, [r3, #0]
 8004f3e:	f042 0208 	orr.w	r2, r2, #8
 8004f42:	619a      	str	r2, [r3, #24]
 8004f44:	68fb      	ldr	r3, [r7, #12]
 8004f46:	681b      	ldr	r3, [r3, #0]
 8004f48:	699a      	ldr	r2, [r3, #24]
 8004f4a:	68fb      	ldr	r3, [r7, #12]
 8004f4c:	681b      	ldr	r3, [r3, #0]
 8004f4e:	f022 0204 	bic.w	r2, r2, #4
 8004f52:	619a      	str	r2, [r3, #24]
 8004f54:	68fb      	ldr	r3, [r7, #12]
 8004f56:	681b      	ldr	r3, [r3, #0]
 8004f58:	6999      	ldr	r1, [r3, #24]
 8004f5a:	68bb      	ldr	r3, [r7, #8]
 8004f5c:	691a      	ldr	r2, [r3, #16]
 8004f5e:	68fb      	ldr	r3, [r7, #12]
 8004f60:	681b      	ldr	r3, [r3, #0]
 8004f62:	430a      	orrs	r2, r1
 8004f64:	619a      	str	r2, [r3, #24]
 8004f66:	e0a5      	b.n	80050b4 <HAL_TIM_PWM_ConfigChannel+0x214>
 8004f68:	68fb      	ldr	r3, [r7, #12]
 8004f6a:	681b      	ldr	r3, [r3, #0]
 8004f6c:	68b9      	ldr	r1, [r7, #8]
 8004f6e:	4618      	mov	r0, r3
 8004f70:	f000 faae 	bl	80054d0 <TIM_OC2_SetConfig>
 8004f74:	68fb      	ldr	r3, [r7, #12]
 8004f76:	681b      	ldr	r3, [r3, #0]
 8004f78:	699a      	ldr	r2, [r3, #24]
 8004f7a:	68fb      	ldr	r3, [r7, #12]
 8004f7c:	681b      	ldr	r3, [r3, #0]
 8004f7e:	f442 6200 	orr.w	r2, r2, #2048	@ 0x800
 8004f82:	619a      	str	r2, [r3, #24]
 8004f84:	68fb      	ldr	r3, [r7, #12]
 8004f86:	681b      	ldr	r3, [r3, #0]
 8004f88:	699a      	ldr	r2, [r3, #24]
 8004f8a:	68fb      	ldr	r3, [r7, #12]
 8004f8c:	681b      	ldr	r3, [r3, #0]
 8004f8e:	f422 6280 	bic.w	r2, r2, #1024	@ 0x400
 8004f92:	619a      	str	r2, [r3, #24]
 8004f94:	68fb      	ldr	r3, [r7, #12]
 8004f96:	681b      	ldr	r3, [r3, #0]
 8004f98:	6999      	ldr	r1, [r3, #24]
 8004f9a:	68bb      	ldr	r3, [r7, #8]
 8004f9c:	691b      	ldr	r3, [r3, #16]
 8004f9e:	021a      	lsls	r2, r3, #8
 8004fa0:	68fb      	ldr	r3, [r7, #12]
 8004fa2:	681b      	ldr	r3, [r3, #0]
 8004fa4:	430a      	orrs	r2, r1
 8004fa6:	619a      	str	r2, [r3, #24]
 8004fa8:	e084      	b.n	80050b4 <HAL_TIM_PWM_ConfigChannel+0x214>
 8004faa:	68fb      	ldr	r3, [r7, #12]
 8004fac:	681b      	ldr	r3, [r3, #0]
 8004fae:	68b9      	ldr	r1, [r7, #8]
 8004fb0:	4618      	mov	r0, r3
 8004fb2:	f000 fb05 	bl	80055c0 <TIM_OC3_SetConfig>
 8004fb6:	68fb      	ldr	r3, [r7, #12]
 8004fb8:	681b      	ldr	r3, [r3, #0]
 8004fba:	69da      	ldr	r2, [r3, #28]
 8004fbc:	68fb      	ldr	r3, [r7, #12]
 8004fbe:	681b      	ldr	r3, [r3, #0]
 8004fc0:	f042 0208 	orr.w	r2, r2, #8
 8004fc4:	61da      	str	r2, [r3, #28]
 8004fc6:	68fb      	ldr	r3, [r7, #12]
 8004fc8:	681b      	ldr	r3, [r3, #0]
 8004fca:	69da      	ldr	r2, [r3, #28]
 8004fcc:	68fb      	ldr	r3, [r7, #12]
 8004fce:	681b      	ldr	r3, [r3, #0]
 8004fd0:	f022 0204 	bic.w	r2, r2, #4
 8004fd4:	61da      	str	r2, [r3, #28]
 8004fd6:	68fb      	ldr	r3, [r7, #12]
 8004fd8:	681b      	ldr	r3, [r3, #0]
 8004fda:	69d9      	ldr	r1, [r3, #28]
 8004fdc:	68bb      	ldr	r3, [r7, #8]
 8004fde:	691a      	ldr	r2, [r3, #16]
 8004fe0:	68fb      	ldr	r3, [r7, #12]
 8004fe2:	681b      	ldr	r3, [r3, #0]
 8004fe4:	430a      	orrs	r2, r1
 8004fe6:	61da      	str	r2, [r3, #28]
 8004fe8:	e064      	b.n	80050b4 <HAL_TIM_PWM_ConfigChannel+0x214>
 8004fea:	68fb      	ldr	r3, [r7, #12]
 8004fec:	681b      	ldr	r3, [r3, #0]
 8004fee:	68b9      	ldr	r1, [r7, #8]
 8004ff0:	4618      	mov	r0, r3
 8004ff2:	f000 fb5b 	bl	80056ac <TIM_OC4_SetConfig>
 8004ff6:	68fb      	ldr	r3, [r7, #12]
 8004ff8:	681b      	ldr	r3, [r3, #0]
 8004ffa:	69da      	ldr	r2, [r3, #28]
 8004ffc:	68fb      	ldr	r3, [r7, #12]
 8004ffe:	681b      	ldr	r3, [r3, #0]
 8005000:	f442 6200 	orr.w	r2, r2, #2048	@ 0x800
 8005004:	61da      	str	r2, [r3, #28]
 8005006:	68fb      	ldr	r3, [r7, #12]
 8005008:	681b      	ldr	r3, [r3, #0]
 800500a:	69da      	ldr	r2, [r3, #28]
 800500c:	68fb      	ldr	r3, [r7, #12]
 800500e:	681b      	ldr	r3, [r3, #0]
 8005010:	f422 6280 	bic.w	r2, r2, #1024	@ 0x400
 8005014:	61da      	str	r2, [r3, #28]
 8005016:	68fb      	ldr	r3, [r7, #12]
 8005018:	681b      	ldr	r3, [r3, #0]
 800501a:	69d9      	ldr	r1, [r3, #28]
 800501c:	68bb      	ldr	r3, [r7, #8]
 800501e:	691b      	ldr	r3, [r3, #16]
 8005020:	021a      	lsls	r2, r3, #8
 8005022:	68fb      	ldr	r3, [r7, #12]
 8005024:	681b      	ldr	r3, [r3, #0]
 8005026:	430a      	orrs	r2, r1
 8005028:	61da      	str	r2, [r3, #28]
 800502a:	e043      	b.n	80050b4 <HAL_TIM_PWM_ConfigChannel+0x214>
 800502c:	68fb      	ldr	r3, [r7, #12]
 800502e:	681b      	ldr	r3, [r3, #0]
 8005030:	68b9      	ldr	r1, [r7, #8]
 8005032:	4618      	mov	r0, r3
 8005034:	f000 fb92 	bl	800575c <TIM_OC5_SetConfig>
 8005038:	68fb      	ldr	r3, [r7, #12]
 800503a:	681b      	ldr	r3, [r3, #0]
 800503c:	6d5a      	ldr	r2, [r3, #84]	@ 0x54
 800503e:	68fb      	ldr	r3, [r7, #12]
 8005040:	681b      	ldr	r3, [r3, #0]
 8005042:	f042 0208 	orr.w	r2, r2, #8
 8005046:	655a      	str	r2, [r3, #84]	@ 0x54
 8005048:	68fb      	ldr	r3, [r7, #12]
 800504a:	681b      	ldr	r3, [r3, #0]
 800504c:	6d5a      	ldr	r2, [r3, #84]	@ 0x54
 800504e:	68fb      	ldr	r3, [r7, #12]
 8005050:	681b      	ldr	r3, [r3, #0]
 8005052:	f022 0204 	bic.w	r2, r2, #4
 8005056:	655a      	str	r2, [r3, #84]	@ 0x54
 8005058:	68fb      	ldr	r3, [r7, #12]
 800505a:	681b      	ldr	r3, [r3, #0]
 800505c:	6d59      	ldr	r1, [r3, #84]	@ 0x54
 800505e:	68bb      	ldr	r3, [r7, #8]
 8005060:	691a      	ldr	r2, [r3, #16]
 8005062:	68fb      	ldr	r3, [r7, #12]
 8005064:	681b      	ldr	r3, [r3, #0]
 8005066:	430a      	orrs	r2, r1
 8005068:	655a      	str	r2, [r3, #84]	@ 0x54
 800506a:	e023      	b.n	80050b4 <HAL_TIM_PWM_ConfigChannel+0x214>
 800506c:	68fb      	ldr	r3, [r7, #12]
 800506e:	681b      	ldr	r3, [r3, #0]
 8005070:	68b9      	ldr	r1, [r7, #8]
 8005072:	4618      	mov	r0, r3
 8005074:	f000 fbc4 	bl	8005800 <TIM_OC6_SetConfig>
 8005078:	68fb      	ldr	r3, [r7, #12]
 800507a:	681b      	ldr	r3, [r3, #0]
 800507c:	6d5a      	ldr	r2, [r3, #84]	@ 0x54
 800507e:	68fb      	ldr	r3, [r7, #12]
 8005080:	681b      	ldr	r3, [r3, #0]
 8005082:	f442 6200 	orr.w	r2, r2, #2048	@ 0x800
 8005086:	655a      	str	r2, [r3, #84]	@ 0x54
 8005088:	68fb      	ldr	r3, [r7, #12]
 800508a:	681b      	ldr	r3, [r3, #0]
 800508c:	6d5a      	ldr	r2, [r3, #84]	@ 0x54
 800508e:	68fb      	ldr	r3, [r7, #12]
 8005090:	681b      	ldr	r3, [r3, #0]
 8005092:	f422 6280 	bic.w	r2, r2, #1024	@ 0x400
 8005096:	655a      	str	r2, [r3, #84]	@ 0x54
 8005098:	68fb      	ldr	r3, [r7, #12]
 800509a:	681b      	ldr	r3, [r3, #0]
 800509c:	6d59      	ldr	r1, [r3, #84]	@ 0x54
 800509e:	68bb      	ldr	r3, [r7, #8]
 80050a0:	691b      	ldr	r3, [r3, #16]
 80050a2:	021a      	lsls	r2, r3, #8
 80050a4:	68fb      	ldr	r3, [r7, #12]
 80050a6:	681b      	ldr	r3, [r3, #0]
 80050a8:	430a      	orrs	r2, r1
 80050aa:	655a      	str	r2, [r3, #84]	@ 0x54
 80050ac:	e002      	b.n	80050b4 <HAL_TIM_PWM_ConfigChannel+0x214>
 80050ae:	2301      	movs	r3, #1
 80050b0:	75fb      	strb	r3, [r7, #23]
 80050b2:	bf00      	nop
 80050b4:	68fb      	ldr	r3, [r7, #12]
 80050b6:	2200      	movs	r2, #0
 80050b8:	f883 203c 	strb.w	r2, [r3, #60]	@ 0x3c
 80050bc:	7dfb      	ldrb	r3, [r7, #23]
 80050be:	4618      	mov	r0, r3
 80050c0:	3718      	adds	r7, #24
 80050c2:	46bd      	mov	sp, r7
 80050c4:	bd80      	pop	{r7, pc}
 80050c6:	bf00      	nop

080050c8 <HAL_TIM_ConfigClockSource>:
 80050c8:	b580      	push	{r7, lr}
 80050ca:	b084      	sub	sp, #16
 80050cc:	af00      	add	r7, sp, #0
 80050ce:	6078      	str	r0, [r7, #4]
 80050d0:	6039      	str	r1, [r7, #0]
 80050d2:	2300      	movs	r3, #0
 80050d4:	73fb      	strb	r3, [r7, #15]
 80050d6:	687b      	ldr	r3, [r7, #4]
 80050d8:	f893 303c 	ldrb.w	r3, [r3, #60]	@ 0x3c
 80050dc:	2b01      	cmp	r3, #1
 80050de:	d101      	bne.n	80050e4 <HAL_TIM_ConfigClockSource+0x1c>
 80050e0:	2302      	movs	r3, #2
 80050e2:	e0b4      	b.n	800524e <HAL_TIM_ConfigClockSource+0x186>
 80050e4:	687b      	ldr	r3, [r7, #4]
 80050e6:	2201      	movs	r2, #1
 80050e8:	f883 203c 	strb.w	r2, [r3, #60]	@ 0x3c
 80050ec:	687b      	ldr	r3, [r7, #4]
 80050ee:	2202      	movs	r2, #2
 80050f0:	f883 203d 	strb.w	r2, [r3, #61]	@ 0x3d
 80050f4:	687b      	ldr	r3, [r7, #4]
 80050f6:	681b      	ldr	r3, [r3, #0]
 80050f8:	689b      	ldr	r3, [r3, #8]
 80050fa:	60bb      	str	r3, [r7, #8]
 80050fc:	68ba      	ldr	r2, [r7, #8]
 80050fe:	4b56      	ldr	r3, [pc, #344]	@ (8005258 <HAL_TIM_ConfigClockSource+0x190>)
 8005100:	4013      	ands	r3, r2
 8005102:	60bb      	str	r3, [r7, #8]
 8005104:	68bb      	ldr	r3, [r7, #8]
 8005106:	f423 437f 	bic.w	r3, r3, #65280	@ 0xff00
 800510a:	60bb      	str	r3, [r7, #8]
 800510c:	687b      	ldr	r3, [r7, #4]
 800510e:	681b      	ldr	r3, [r3, #0]
 8005110:	68ba      	ldr	r2, [r7, #8]
 8005112:	609a      	str	r2, [r3, #8]
 8005114:	683b      	ldr	r3, [r7, #0]
 8005116:	681b      	ldr	r3, [r3, #0]
 8005118:	f5b3 5f00 	cmp.w	r3, #8192	@ 0x2000
 800511c:	d03e      	beq.n	800519c <HAL_TIM_ConfigClockSource+0xd4>
 800511e:	f5b3 5f00 	cmp.w	r3, #8192	@ 0x2000
 8005122:	f200 8087 	bhi.w	8005234 <HAL_TIM_ConfigClockSource+0x16c>
 8005126:	f5b3 5f80 	cmp.w	r3, #4096	@ 0x1000
 800512a:	f000 8086 	beq.w	800523a <HAL_TIM_ConfigClockSource+0x172>
 800512e:	f5b3 5f80 	cmp.w	r3, #4096	@ 0x1000
 8005132:	d87f      	bhi.n	8005234 <HAL_TIM_ConfigClockSource+0x16c>
 8005134:	2b70      	cmp	r3, #112	@ 0x70
 8005136:	d01a      	beq.n	800516e <HAL_TIM_ConfigClockSource+0xa6>
 8005138:	2b70      	cmp	r3, #112	@ 0x70
 800513a:	d87b      	bhi.n	8005234 <HAL_TIM_ConfigClockSource+0x16c>
 800513c:	2b60      	cmp	r3, #96	@ 0x60
 800513e:	d050      	beq.n	80051e2 <HAL_TIM_ConfigClockSource+0x11a>
 8005140:	2b60      	cmp	r3, #96	@ 0x60
 8005142:	d877      	bhi.n	8005234 <HAL_TIM_ConfigClockSource+0x16c>
 8005144:	2b50      	cmp	r3, #80	@ 0x50
 8005146:	d03c      	beq.n	80051c2 <HAL_TIM_ConfigClockSource+0xfa>
 8005148:	2b50      	cmp	r3, #80	@ 0x50
 800514a:	d873      	bhi.n	8005234 <HAL_TIM_ConfigClockSource+0x16c>
 800514c:	2b40      	cmp	r3, #64	@ 0x40
 800514e:	d058      	beq.n	8005202 <HAL_TIM_ConfigClockSource+0x13a>
 8005150:	2b40      	cmp	r3, #64	@ 0x40
 8005152:	d86f      	bhi.n	8005234 <HAL_TIM_ConfigClockSource+0x16c>
 8005154:	2b30      	cmp	r3, #48	@ 0x30
 8005156:	d064      	beq.n	8005222 <HAL_TIM_ConfigClockSource+0x15a>
 8005158:	2b30      	cmp	r3, #48	@ 0x30
 800515a:	d86b      	bhi.n	8005234 <HAL_TIM_ConfigClockSource+0x16c>
 800515c:	2b20      	cmp	r3, #32
 800515e:	d060      	beq.n	8005222 <HAL_TIM_ConfigClockSource+0x15a>
 8005160:	2b20      	cmp	r3, #32
 8005162:	d867      	bhi.n	8005234 <HAL_TIM_ConfigClockSource+0x16c>
 8005164:	2b00      	cmp	r3, #0
 8005166:	d05c      	beq.n	8005222 <HAL_TIM_ConfigClockSource+0x15a>
 8005168:	2b10      	cmp	r3, #16
 800516a:	d05a      	beq.n	8005222 <HAL_TIM_ConfigClockSource+0x15a>
 800516c:	e062      	b.n	8005234 <HAL_TIM_ConfigClockSource+0x16c>
 800516e:	687b      	ldr	r3, [r7, #4]
 8005170:	6818      	ldr	r0, [r3, #0]
 8005172:	683b      	ldr	r3, [r7, #0]
 8005174:	6899      	ldr	r1, [r3, #8]
 8005176:	683b      	ldr	r3, [r7, #0]
 8005178:	685a      	ldr	r2, [r3, #4]
 800517a:	683b      	ldr	r3, [r7, #0]
 800517c:	68db      	ldr	r3, [r3, #12]
 800517e:	f000 fc0d 	bl	800599c <TIM_ETR_SetConfig>
 8005182:	687b      	ldr	r3, [r7, #4]
 8005184:	681b      	ldr	r3, [r3, #0]
 8005186:	689b      	ldr	r3, [r3, #8]
 8005188:	60bb      	str	r3, [r7, #8]
 800518a:	68bb      	ldr	r3, [r7, #8]
 800518c:	f043 0377 	orr.w	r3, r3, #119	@ 0x77
 8005190:	60bb      	str	r3, [r7, #8]
 8005192:	687b      	ldr	r3, [r7, #4]
 8005194:	681b      	ldr	r3, [r3, #0]
 8005196:	68ba      	ldr	r2, [r7, #8]
 8005198:	609a      	str	r2, [r3, #8]
 800519a:	e04f      	b.n	800523c <HAL_TIM_ConfigClockSource+0x174>
 800519c:	687b      	ldr	r3, [r7, #4]
 800519e:	6818      	ldr	r0, [r3, #0]
 80051a0:	683b      	ldr	r3, [r7, #0]
 80051a2:	6899      	ldr	r1, [r3, #8]
 80051a4:	683b      	ldr	r3, [r7, #0]
 80051a6:	685a      	ldr	r2, [r3, #4]
 80051a8:	683b      	ldr	r3, [r7, #0]
 80051aa:	68db      	ldr	r3, [r3, #12]
 80051ac:	f000 fbf6 	bl	800599c <TIM_ETR_SetConfig>
 80051b0:	687b      	ldr	r3, [r7, #4]
 80051b2:	681b      	ldr	r3, [r3, #0]
 80051b4:	689a      	ldr	r2, [r3, #8]
 80051b6:	687b      	ldr	r3, [r7, #4]
 80051b8:	681b      	ldr	r3, [r3, #0]
 80051ba:	f442 4280 	orr.w	r2, r2, #16384	@ 0x4000
 80051be:	609a      	str	r2, [r3, #8]
 80051c0:	e03c      	b.n	800523c <HAL_TIM_ConfigClockSource+0x174>
 80051c2:	687b      	ldr	r3, [r7, #4]
 80051c4:	6818      	ldr	r0, [r3, #0]
 80051c6:	683b      	ldr	r3, [r7, #0]
 80051c8:	6859      	ldr	r1, [r3, #4]
 80051ca:	683b      	ldr	r3, [r7, #0]
 80051cc:	68db      	ldr	r3, [r3, #12]
 80051ce:	461a      	mov	r2, r3
 80051d0:	f000 fb6a 	bl	80058a8 <TIM_TI1_ConfigInputStage>
 80051d4:	687b      	ldr	r3, [r7, #4]
 80051d6:	681b      	ldr	r3, [r3, #0]
 80051d8:	2150      	movs	r1, #80	@ 0x50
 80051da:	4618      	mov	r0, r3
 80051dc:	f000 fbc3 	bl	8005966 <TIM_ITRx_SetConfig>
 80051e0:	e02c      	b.n	800523c <HAL_TIM_ConfigClockSource+0x174>
 80051e2:	687b      	ldr	r3, [r7, #4]
 80051e4:	6818      	ldr	r0, [r3, #0]
 80051e6:	683b      	ldr	r3, [r7, #0]
 80051e8:	6859      	ldr	r1, [r3, #4]
 80051ea:	683b      	ldr	r3, [r7, #0]
 80051ec:	68db      	ldr	r3, [r3, #12]
 80051ee:	461a      	mov	r2, r3
 80051f0:	f000 fb89 	bl	8005906 <TIM_TI2_ConfigInputStage>
 80051f4:	687b      	ldr	r3, [r7, #4]
 80051f6:	681b      	ldr	r3, [r3, #0]
 80051f8:	2160      	movs	r1, #96	@ 0x60
 80051fa:	4618      	mov	r0, r3
 80051fc:	f000 fbb3 	bl	8005966 <TIM_ITRx_SetConfig>
 8005200:	e01c      	b.n	800523c <HAL_TIM_ConfigClockSource+0x174>
 8005202:	687b      	ldr	r3, [r7, #4]
 8005204:	6818      	ldr	r0, [r3, #0]
 8005206:	683b      	ldr	r3, [r7, #0]
 8005208:	6859      	ldr	r1, [r3, #4]
 800520a:	683b      	ldr	r3, [r7, #0]
 800520c:	68db      	ldr	r3, [r3, #12]
 800520e:	461a      	mov	r2, r3
 8005210:	f000 fb4a 	bl	80058a8 <TIM_TI1_ConfigInputStage>
 8005214:	687b      	ldr	r3, [r7, #4]
 8005216:	681b      	ldr	r3, [r3, #0]
 8005218:	2140      	movs	r1, #64	@ 0x40
 800521a:	4618      	mov	r0, r3
 800521c:	f000 fba3 	bl	8005966 <TIM_ITRx_SetConfig>
 8005220:	e00c      	b.n	800523c <HAL_TIM_ConfigClockSource+0x174>
 8005222:	687b      	ldr	r3, [r7, #4]
 8005224:	681a      	ldr	r2, [r3, #0]
 8005226:	683b      	ldr	r3, [r7, #0]
 8005228:	681b      	ldr	r3, [r3, #0]
 800522a:	4619      	mov	r1, r3
 800522c:	4610      	mov	r0, r2
 800522e:	f000 fb9a 	bl	8005966 <TIM_ITRx_SetConfig>
 8005232:	e003      	b.n	800523c <HAL_TIM_ConfigClockSource+0x174>
 8005234:	2301      	movs	r3, #1
 8005236:	73fb      	strb	r3, [r7, #15]
 8005238:	e000      	b.n	800523c <HAL_TIM_ConfigClockSource+0x174>
 800523a:	bf00      	nop
 800523c:	687b      	ldr	r3, [r7, #4]
 800523e:	2201      	movs	r2, #1
 8005240:	f883 203d 	strb.w	r2, [r3, #61]	@ 0x3d
 8005244:	687b      	ldr	r3, [r7, #4]
 8005246:	2200      	movs	r2, #0
 8005248:	f883 203c 	strb.w	r2, [r3, #60]	@ 0x3c
 800524c:	7bfb      	ldrb	r3, [r7, #15]
 800524e:	4618      	mov	r0, r3
 8005250:	3710      	adds	r7, #16
 8005252:	46bd      	mov	sp, r7
 8005254:	bd80      	pop	{r7, pc}
 8005256:	bf00      	nop
 8005258:	fffeff88 	.word	0xfffeff88

0800525c <HAL_TIM_OC_DelayElapsedCallback>:
 800525c:	b480      	push	{r7}
 800525e:	b083      	sub	sp, #12
 8005260:	af00      	add	r7, sp, #0
 8005262:	6078      	str	r0, [r7, #4]
 8005264:	bf00      	nop
 8005266:	370c      	adds	r7, #12
 8005268:	46bd      	mov	sp, r7
 800526a:	f85d 7b04 	ldr.w	r7, [sp], #4
 800526e:	4770      	bx	lr

08005270 <HAL_TIM_IC_CaptureCallback>:
 8005270:	b480      	push	{r7}
 8005272:	b083      	sub	sp, #12
 8005274:	af00      	add	r7, sp, #0
 8005276:	6078      	str	r0, [r7, #4]
 8005278:	bf00      	nop
 800527a:	370c      	adds	r7, #12
 800527c:	46bd      	mov	sp, r7
 800527e:	f85d 7b04 	ldr.w	r7, [sp], #4
 8005282:	4770      	bx	lr

08005284 <HAL_TIM_PWM_PulseFinishedCallback>:
 8005284:	b480      	push	{r7}
 8005286:	b083      	sub	sp, #12
 8005288:	af00      	add	r7, sp, #0
 800528a:	6078      	str	r0, [r7, #4]
 800528c:	bf00      	nop
 800528e:	370c      	adds	r7, #12
 8005290:	46bd      	mov	sp, r7
 8005292:	f85d 7b04 	ldr.w	r7, [sp], #4
 8005296:	4770      	bx	lr

08005298 <HAL_TIM_TriggerCallback>:
 8005298:	b480      	push	{r7}
 800529a:	b083      	sub	sp, #12
 800529c:	af00      	add	r7, sp, #0
 800529e:	6078      	str	r0, [r7, #4]
 80052a0:	bf00      	nop
 80052a2:	370c      	adds	r7, #12
 80052a4:	46bd      	mov	sp, r7
 80052a6:	f85d 7b04 	ldr.w	r7, [sp], #4
 80052aa:	4770      	bx	lr

080052ac <TIM_Base_SetConfig>:
 80052ac:	b480      	push	{r7}
 80052ae:	b085      	sub	sp, #20
 80052b0:	af00      	add	r7, sp, #0
 80052b2:	6078      	str	r0, [r7, #4]
 80052b4:	6039      	str	r1, [r7, #0]
 80052b6:	687b      	ldr	r3, [r7, #4]
 80052b8:	681b      	ldr	r3, [r3, #0]
 80052ba:	60fb      	str	r3, [r7, #12]
 80052bc:	687b      	ldr	r3, [r7, #4]
 80052be:	4a40      	ldr	r2, [pc, #256]	@ (80053c0 <TIM_Base_SetConfig+0x114>)
 80052c0:	4293      	cmp	r3, r2
 80052c2:	d013      	beq.n	80052ec <TIM_Base_SetConfig+0x40>
 80052c4:	687b      	ldr	r3, [r7, #4]
 80052c6:	f1b3 4f80 	cmp.w	r3, #1073741824	@ 0x40000000
 80052ca:	d00f      	beq.n	80052ec <TIM_Base_SetConfig+0x40>
 80052cc:	687b      	ldr	r3, [r7, #4]
 80052ce:	4a3d      	ldr	r2, [pc, #244]	@ (80053c4 <TIM_Base_SetConfig+0x118>)
 80052d0:	4293      	cmp	r3, r2
 80052d2:	d00b      	beq.n	80052ec <TIM_Base_SetConfig+0x40>
 80052d4:	687b      	ldr	r3, [r7, #4]
 80052d6:	4a3c      	ldr	r2, [pc, #240]	@ (80053c8 <TIM_Base_SetConfig+0x11c>)
 80052d8:	4293      	cmp	r3, r2
 80052da:	d007      	beq.n	80052ec <TIM_Base_SetConfig+0x40>
 80052dc:	687b      	ldr	r3, [r7, #4]
 80052de:	4a3b      	ldr	r2, [pc, #236]	@ (80053cc <TIM_Base_SetConfig+0x120>)
 80052e0:	4293      	cmp	r3, r2
 80052e2:	d003      	beq.n	80052ec <TIM_Base_SetConfig+0x40>
 80052e4:	687b      	ldr	r3, [r7, #4]
 80052e6:	4a3a      	ldr	r2, [pc, #232]	@ (80053d0 <TIM_Base_SetConfig+0x124>)
 80052e8:	4293      	cmp	r3, r2
 80052ea:	d108      	bne.n	80052fe <TIM_Base_SetConfig+0x52>
 80052ec:	68fb      	ldr	r3, [r7, #12]
 80052ee:	f023 0370 	bic.w	r3, r3, #112	@ 0x70
 80052f2:	60fb      	str	r3, [r7, #12]
 80052f4:	683b      	ldr	r3, [r7, #0]
 80052f6:	685b      	ldr	r3, [r3, #4]
 80052f8:	68fa      	ldr	r2, [r7, #12]
 80052fa:	4313      	orrs	r3, r2
 80052fc:	60fb      	str	r3, [r7, #12]
 80052fe:	687b      	ldr	r3, [r7, #4]
 8005300:	4a2f      	ldr	r2, [pc, #188]	@ (80053c0 <TIM_Base_SetConfig+0x114>)
 8005302:	4293      	cmp	r3, r2
 8005304:	d02b      	beq.n	800535e <TIM_Base_SetConfig+0xb2>
 8005306:	687b      	ldr	r3, [r7, #4]
 8005308:	f1b3 4f80 	cmp.w	r3, #1073741824	@ 0x40000000
 800530c:	d027      	beq.n	800535e <TIM_Base_SetConfig+0xb2>
 800530e:	687b      	ldr	r3, [r7, #4]
 8005310:	4a2c      	ldr	r2, [pc, #176]	@ (80053c4 <TIM_Base_SetConfig+0x118>)
 8005312:	4293      	cmp	r3, r2
 8005314:	d023      	beq.n	800535e <TIM_Base_SetConfig+0xb2>
 8005316:	687b      	ldr	r3, [r7, #4]
 8005318:	4a2b      	ldr	r2, [pc, #172]	@ (80053c8 <TIM_Base_SetConfig+0x11c>)
 800531a:	4293      	cmp	r3, r2
 800531c:	d01f      	beq.n	800535e <TIM_Base_SetConfig+0xb2>
 800531e:	687b      	ldr	r3, [r7, #4]
 8005320:	4a2a      	ldr	r2, [pc, #168]	@ (80053cc <TIM_Base_SetConfig+0x120>)
 8005322:	4293      	cmp	r3, r2
 8005324:	d01b      	beq.n	800535e <TIM_Base_SetConfig+0xb2>
 8005326:	687b      	ldr	r3, [r7, #4]
 8005328:	4a29      	ldr	r2, [pc, #164]	@ (80053d0 <TIM_Base_SetConfig+0x124>)
 800532a:	4293      	cmp	r3, r2
 800532c:	d017      	beq.n	800535e <TIM_Base_SetConfig+0xb2>
 800532e:	687b      	ldr	r3, [r7, #4]
 8005330:	4a28      	ldr	r2, [pc, #160]	@ (80053d4 <TIM_Base_SetConfig+0x128>)
 8005332:	4293      	cmp	r3, r2
 8005334:	d013      	beq.n	800535e <TIM_Base_SetConfig+0xb2>
 8005336:	687b      	ldr	r3, [r7, #4]
 8005338:	4a27      	ldr	r2, [pc, #156]	@ (80053d8 <TIM_Base_SetConfig+0x12c>)
 800533a:	4293      	cmp	r3, r2
 800533c:	d00f      	beq.n	800535e <TIM_Base_SetConfig+0xb2>
 800533e:	687b      	ldr	r3, [r7, #4]
 8005340:	4a26      	ldr	r2, [pc, #152]	@ (80053dc <TIM_Base_SetConfig+0x130>)
 8005342:	4293      	cmp	r3, r2
 8005344:	d00b      	beq.n	800535e <TIM_Base_SetConfig+0xb2>
 8005346:	687b      	ldr	r3, [r7, #4]
 8005348:	4a25      	ldr	r2, [pc, #148]	@ (80053e0 <TIM_Base_SetConfig+0x134>)
 800534a:	4293      	cmp	r3, r2
 800534c:	d007      	beq.n	800535e <TIM_Base_SetConfig+0xb2>
 800534e:	687b      	ldr	r3, [r7, #4]
 8005350:	4a24      	ldr	r2, [pc, #144]	@ (80053e4 <TIM_Base_SetConfig+0x138>)
 8005352:	4293      	cmp	r3, r2
 8005354:	d003      	beq.n	800535e <TIM_Base_SetConfig+0xb2>
 8005356:	687b      	ldr	r3, [r7, #4]
 8005358:	4a23      	ldr	r2, [pc, #140]	@ (80053e8 <TIM_Base_SetConfig+0x13c>)
 800535a:	4293      	cmp	r3, r2
 800535c:	d108      	bne.n	8005370 <TIM_Base_SetConfig+0xc4>
 800535e:	68fb      	ldr	r3, [r7, #12]
 8005360:	f423 7340 	bic.w	r3, r3, #768	@ 0x300
 8005364:	60fb      	str	r3, [r7, #12]
 8005366:	683b      	ldr	r3, [r7, #0]
 8005368:	68db      	ldr	r3, [r3, #12]
 800536a:	68fa      	ldr	r2, [r7, #12]
 800536c:	4313      	orrs	r3, r2
 800536e:	60fb      	str	r3, [r7, #12]
 8005370:	68fb      	ldr	r3, [r7, #12]
 8005372:	f023 0280 	bic.w	r2, r3, #128	@ 0x80
 8005376:	683b      	ldr	r3, [r7, #0]
 8005378:	695b      	ldr	r3, [r3, #20]
 800537a:	4313      	orrs	r3, r2
 800537c:	60fb      	str	r3, [r7, #12]
 800537e:	687b      	ldr	r3, [r7, #4]
 8005380:	68fa      	ldr	r2, [r7, #12]
 8005382:	601a      	str	r2, [r3, #0]
 8005384:	683b      	ldr	r3, [r7, #0]
 8005386:	689a      	ldr	r2, [r3, #8]
 8005388:	687b      	ldr	r3, [r7, #4]
 800538a:	62da      	str	r2, [r3, #44]	@ 0x2c
 800538c:	683b      	ldr	r3, [r7, #0]
 800538e:	681a      	ldr	r2, [r3, #0]
 8005390:	687b      	ldr	r3, [r7, #4]
 8005392:	629a      	str	r2, [r3, #40]	@ 0x28
 8005394:	687b      	ldr	r3, [r7, #4]
 8005396:	4a0a      	ldr	r2, [pc, #40]	@ (80053c0 <TIM_Base_SetConfig+0x114>)
 8005398:	4293      	cmp	r3, r2
 800539a:	d003      	beq.n	80053a4 <TIM_Base_SetConfig+0xf8>
 800539c:	687b      	ldr	r3, [r7, #4]
 800539e:	4a0c      	ldr	r2, [pc, #48]	@ (80053d0 <TIM_Base_SetConfig+0x124>)
 80053a0:	4293      	cmp	r3, r2
 80053a2:	d103      	bne.n	80053ac <TIM_Base_SetConfig+0x100>
 80053a4:	683b      	ldr	r3, [r7, #0]
 80053a6:	691a      	ldr	r2, [r3, #16]
 80053a8:	687b      	ldr	r3, [r7, #4]
 80053aa:	631a      	str	r2, [r3, #48]	@ 0x30
 80053ac:	687b      	ldr	r3, [r7, #4]
 80053ae:	2201      	movs	r2, #1
 80053b0:	615a      	str	r2, [r3, #20]
 80053b2:	bf00      	nop
 80053b4:	3714      	adds	r7, #20
 80053b6:	46bd      	mov	sp, r7
 80053b8:	f85d 7b04 	ldr.w	r7, [sp], #4
 80053bc:	4770      	bx	lr
 80053be:	bf00      	nop
 80053c0:	40010000 	.word	0x40010000
 80053c4:	40000400 	.word	0x40000400
 80053c8:	40000800 	.word	0x40000800
 80053cc:	40000c00 	.word	0x40000c00
 80053d0:	40010400 	.word	0x40010400
 80053d4:	40014000 	.word	0x40014000
 80053d8:	40014400 	.word	0x40014400
 80053dc:	40014800 	.word	0x40014800
 80053e0:	40001800 	.word	0x40001800
 80053e4:	40001c00 	.word	0x40001c00
 80053e8:	40002000 	.word	0x40002000

080053ec <TIM_OC1_SetConfig>:
 80053ec:	b480      	push	{r7}
 80053ee:	b087      	sub	sp, #28
 80053f0:	af00      	add	r7, sp, #0
 80053f2:	6078      	str	r0, [r7, #4]
 80053f4:	6039      	str	r1, [r7, #0]
 80053f6:	687b      	ldr	r3, [r7, #4]
 80053f8:	6a1b      	ldr	r3, [r3, #32]
 80053fa:	f023 0201 	bic.w	r2, r3, #1
 80053fe:	687b      	ldr	r3, [r7, #4]
 8005400:	621a      	str	r2, [r3, #32]
 8005402:	687b      	ldr	r3, [r7, #4]
 8005404:	6a1b      	ldr	r3, [r3, #32]
 8005406:	617b      	str	r3, [r7, #20]
 8005408:	687b      	ldr	r3, [r7, #4]
 800540a:	685b      	ldr	r3, [r3, #4]
 800540c:	613b      	str	r3, [r7, #16]
 800540e:	687b      	ldr	r3, [r7, #4]
 8005410:	699b      	ldr	r3, [r3, #24]
 8005412:	60fb      	str	r3, [r7, #12]
 8005414:	68fa      	ldr	r2, [r7, #12]
 8005416:	4b2b      	ldr	r3, [pc, #172]	@ (80054c4 <TIM_OC1_SetConfig+0xd8>)
 8005418:	4013      	ands	r3, r2
 800541a:	60fb      	str	r3, [r7, #12]
 800541c:	68fb      	ldr	r3, [r7, #12]
 800541e:	f023 0303 	bic.w	r3, r3, #3
 8005422:	60fb      	str	r3, [r7, #12]
 8005424:	683b      	ldr	r3, [r7, #0]
 8005426:	681b      	ldr	r3, [r3, #0]
 8005428:	68fa      	ldr	r2, [r7, #12]
 800542a:	4313      	orrs	r3, r2
 800542c:	60fb      	str	r3, [r7, #12]
 800542e:	697b      	ldr	r3, [r7, #20]
 8005430:	f023 0302 	bic.w	r3, r3, #2
 8005434:	617b      	str	r3, [r7, #20]
 8005436:	683b      	ldr	r3, [r7, #0]
 8005438:	689b      	ldr	r3, [r3, #8]
 800543a:	697a      	ldr	r2, [r7, #20]
 800543c:	4313      	orrs	r3, r2
 800543e:	617b      	str	r3, [r7, #20]
 8005440:	687b      	ldr	r3, [r7, #4]
 8005442:	4a21      	ldr	r2, [pc, #132]	@ (80054c8 <TIM_OC1_SetConfig+0xdc>)
 8005444:	4293      	cmp	r3, r2
 8005446:	d003      	beq.n	8005450 <TIM_OC1_SetConfig+0x64>
 8005448:	687b      	ldr	r3, [r7, #4]
 800544a:	4a20      	ldr	r2, [pc, #128]	@ (80054cc <TIM_OC1_SetConfig+0xe0>)
 800544c:	4293      	cmp	r3, r2
 800544e:	d10c      	bne.n	800546a <TIM_OC1_SetConfig+0x7e>
 8005450:	697b      	ldr	r3, [r7, #20]
 8005452:	f023 0308 	bic.w	r3, r3, #8
 8005456:	617b      	str	r3, [r7, #20]
 8005458:	683b      	ldr	r3, [r7, #0]
 800545a:	68db      	ldr	r3, [r3, #12]
 800545c:	697a      	ldr	r2, [r7, #20]
 800545e:	4313      	orrs	r3, r2
 8005460:	617b      	str	r3, [r7, #20]
 8005462:	697b      	ldr	r3, [r7, #20]
 8005464:	f023 0304 	bic.w	r3, r3, #4
 8005468:	617b      	str	r3, [r7, #20]
 800546a:	687b      	ldr	r3, [r7, #4]
 800546c:	4a16      	ldr	r2, [pc, #88]	@ (80054c8 <TIM_OC1_SetConfig+0xdc>)
 800546e:	4293      	cmp	r3, r2
 8005470:	d003      	beq.n	800547a <TIM_OC1_SetConfig+0x8e>
 8005472:	687b      	ldr	r3, [r7, #4]
 8005474:	4a15      	ldr	r2, [pc, #84]	@ (80054cc <TIM_OC1_SetConfig+0xe0>)
 8005476:	4293      	cmp	r3, r2
 8005478:	d111      	bne.n	800549e <TIM_OC1_SetConfig+0xb2>
 800547a:	693b      	ldr	r3, [r7, #16]
 800547c:	f423 7380 	bic.w	r3, r3, #256	@ 0x100
 8005480:	613b      	str	r3, [r7, #16]
 8005482:	693b      	ldr	r3, [r7, #16]
 8005484:	f423 7300 	bic.w	r3, r3, #512	@ 0x200
 8005488:	613b      	str	r3, [r7, #16]
 800548a:	683b      	ldr	r3, [r7, #0]
 800548c:	695b      	ldr	r3, [r3, #20]
 800548e:	693a      	ldr	r2, [r7, #16]
 8005490:	4313      	orrs	r3, r2
 8005492:	613b      	str	r3, [r7, #16]
 8005494:	683b      	ldr	r3, [r7, #0]
 8005496:	699b      	ldr	r3, [r3, #24]
 8005498:	693a      	ldr	r2, [r7, #16]
 800549a:	4313      	orrs	r3, r2
 800549c:	613b      	str	r3, [r7, #16]
 800549e:	687b      	ldr	r3, [r7, #4]
 80054a0:	693a      	ldr	r2, [r7, #16]
 80054a2:	605a      	str	r2, [r3, #4]
 80054a4:	687b      	ldr	r3, [r7, #4]
 80054a6:	68fa      	ldr	r2, [r7, #12]
 80054a8:	619a      	str	r2, [r3, #24]
 80054aa:	683b      	ldr	r3, [r7, #0]
 80054ac:	685a      	ldr	r2, [r3, #4]
 80054ae:	687b      	ldr	r3, [r7, #4]
 80054b0:	635a      	str	r2, [r3, #52]	@ 0x34
 80054b2:	687b      	ldr	r3, [r7, #4]
 80054b4:	697a      	ldr	r2, [r7, #20]
 80054b6:	621a      	str	r2, [r3, #32]
 80054b8:	bf00      	nop
 80054ba:	371c      	adds	r7, #28
 80054bc:	46bd      	mov	sp, r7
 80054be:	f85d 7b04 	ldr.w	r7, [sp], #4
 80054c2:	4770      	bx	lr
 80054c4:	fffeff8f 	.word	0xfffeff8f
 80054c8:	40010000 	.word	0x40010000
 80054cc:	40010400 	.word	0x40010400

080054d0 <TIM_OC2_SetConfig>:
 80054d0:	b480      	push	{r7}
 80054d2:	b087      	sub	sp, #28
 80054d4:	af00      	add	r7, sp, #0
 80054d6:	6078      	str	r0, [r7, #4]
 80054d8:	6039      	str	r1, [r7, #0]
 80054da:	687b      	ldr	r3, [r7, #4]
 80054dc:	6a1b      	ldr	r3, [r3, #32]
 80054de:	f023 0210 	bic.w	r2, r3, #16
 80054e2:	687b      	ldr	r3, [r7, #4]
 80054e4:	621a      	str	r2, [r3, #32]
 80054e6:	687b      	ldr	r3, [r7, #4]
 80054e8:	6a1b      	ldr	r3, [r3, #32]
 80054ea:	617b      	str	r3, [r7, #20]
 80054ec:	687b      	ldr	r3, [r7, #4]
 80054ee:	685b      	ldr	r3, [r3, #4]
 80054f0:	613b      	str	r3, [r7, #16]
 80054f2:	687b      	ldr	r3, [r7, #4]
 80054f4:	699b      	ldr	r3, [r3, #24]
 80054f6:	60fb      	str	r3, [r7, #12]
 80054f8:	68fa      	ldr	r2, [r7, #12]
 80054fa:	4b2e      	ldr	r3, [pc, #184]	@ (80055b4 <TIM_OC2_SetConfig+0xe4>)
 80054fc:	4013      	ands	r3, r2
 80054fe:	60fb      	str	r3, [r7, #12]
 8005500:	68fb      	ldr	r3, [r7, #12]
 8005502:	f423 7340 	bic.w	r3, r3, #768	@ 0x300
 8005506:	60fb      	str	r3, [r7, #12]
 8005508:	683b      	ldr	r3, [r7, #0]
 800550a:	681b      	ldr	r3, [r3, #0]
 800550c:	021b      	lsls	r3, r3, #8
 800550e:	68fa      	ldr	r2, [r7, #12]
 8005510:	4313      	orrs	r3, r2
 8005512:	60fb      	str	r3, [r7, #12]
 8005514:	697b      	ldr	r3, [r7, #20]
 8005516:	f023 0320 	bic.w	r3, r3, #32
 800551a:	617b      	str	r3, [r7, #20]
 800551c:	683b      	ldr	r3, [r7, #0]
 800551e:	689b      	ldr	r3, [r3, #8]
 8005520:	011b      	lsls	r3, r3, #4
 8005522:	697a      	ldr	r2, [r7, #20]
 8005524:	4313      	orrs	r3, r2
 8005526:	617b      	str	r3, [r7, #20]
 8005528:	687b      	ldr	r3, [r7, #4]
 800552a:	4a23      	ldr	r2, [pc, #140]	@ (80055b8 <TIM_OC2_SetConfig+0xe8>)
 800552c:	4293      	cmp	r3, r2
 800552e:	d003      	beq.n	8005538 <TIM_OC2_SetConfig+0x68>
 8005530:	687b      	ldr	r3, [r7, #4]
 8005532:	4a22      	ldr	r2, [pc, #136]	@ (80055bc <TIM_OC2_SetConfig+0xec>)
 8005534:	4293      	cmp	r3, r2
 8005536:	d10d      	bne.n	8005554 <TIM_OC2_SetConfig+0x84>
 8005538:	697b      	ldr	r3, [r7, #20]
 800553a:	f023 0380 	bic.w	r3, r3, #128	@ 0x80
 800553e:	617b      	str	r3, [r7, #20]
 8005540:	683b      	ldr	r3, [r7, #0]
 8005542:	68db      	ldr	r3, [r3, #12]
 8005544:	011b      	lsls	r3, r3, #4
 8005546:	697a      	ldr	r2, [r7, #20]
 8005548:	4313      	orrs	r3, r2
 800554a:	617b      	str	r3, [r7, #20]
 800554c:	697b      	ldr	r3, [r7, #20]
 800554e:	f023 0340 	bic.w	r3, r3, #64	@ 0x40
 8005552:	617b      	str	r3, [r7, #20]
 8005554:	687b      	ldr	r3, [r7, #4]
 8005556:	4a18      	ldr	r2, [pc, #96]	@ (80055b8 <TIM_OC2_SetConfig+0xe8>)
 8005558:	4293      	cmp	r3, r2
 800555a:	d003      	beq.n	8005564 <TIM_OC2_SetConfig+0x94>
 800555c:	687b      	ldr	r3, [r7, #4]
 800555e:	4a17      	ldr	r2, [pc, #92]	@ (80055bc <TIM_OC2_SetConfig+0xec>)
 8005560:	4293      	cmp	r3, r2
 8005562:	d113      	bne.n	800558c <TIM_OC2_SetConfig+0xbc>
 8005564:	693b      	ldr	r3, [r7, #16]
 8005566:	f423 6380 	bic.w	r3, r3, #1024	@ 0x400
 800556a:	613b      	str	r3, [r7, #16]
 800556c:	693b      	ldr	r3, [r7, #16]
 800556e:	f423 6300 	bic.w	r3, r3, #2048	@ 0x800
 8005572:	613b      	str	r3, [r7, #16]
 8005574:	683b      	ldr	r3, [r7, #0]
 8005576:	695b      	ldr	r3, [r3, #20]
 8005578:	009b      	lsls	r3, r3, #2
 800557a:	693a      	ldr	r2, [r7, #16]
 800557c:	4313      	orrs	r3, r2
 800557e:	613b      	str	r3, [r7, #16]
 8005580:	683b      	ldr	r3, [r7, #0]
 8005582:	699b      	ldr	r3, [r3, #24]
 8005584:	009b      	lsls	r3, r3, #2
 8005586:	693a      	ldr	r2, [r7, #16]
 8005588:	4313      	orrs	r3, r2
 800558a:	613b      	str	r3, [r7, #16]
 800558c:	687b      	ldr	r3, [r7, #4]
 800558e:	693a      	ldr	r2, [r7, #16]
 8005590:	605a      	str	r2, [r3, #4]
 8005592:	687b      	ldr	r3, [r7, #4]
 8005594:	68fa      	ldr	r2, [r7, #12]
 8005596:	619a      	str	r2, [r3, #24]
 8005598:	683b      	ldr	r3, [r7, #0]
 800559a:	685a      	ldr	r2, [r3, #4]
 800559c:	687b      	ldr	r3, [r7, #4]
 800559e:	639a      	str	r2, [r3, #56]	@ 0x38
 80055a0:	687b      	ldr	r3, [r7, #4]
 80055a2:	697a      	ldr	r2, [r7, #20]
 80055a4:	621a      	str	r2, [r3, #32]
 80055a6:	bf00      	nop
 80055a8:	371c      	adds	r7, #28
 80055aa:	46bd      	mov	sp, r7
 80055ac:	f85d 7b04 	ldr.w	r7, [sp], #4
 80055b0:	4770      	bx	lr
 80055b2:	bf00      	nop
 80055b4:	feff8fff 	.word	0xfeff8fff
 80055b8:	40010000 	.word	0x40010000
 80055bc:	40010400 	.word	0x40010400

080055c0 <TIM_OC3_SetConfig>:
 80055c0:	b480      	push	{r7}
 80055c2:	b087      	sub	sp, #28
 80055c4:	af00      	add	r7, sp, #0
 80055c6:	6078      	str	r0, [r7, #4]
 80055c8:	6039      	str	r1, [r7, #0]
 80055ca:	687b      	ldr	r3, [r7, #4]
 80055cc:	6a1b      	ldr	r3, [r3, #32]
 80055ce:	f423 7280 	bic.w	r2, r3, #256	@ 0x100
 80055d2:	687b      	ldr	r3, [r7, #4]
 80055d4:	621a      	str	r2, [r3, #32]
 80055d6:	687b      	ldr	r3, [r7, #4]
 80055d8:	6a1b      	ldr	r3, [r3, #32]
 80055da:	617b      	str	r3, [r7, #20]
 80055dc:	687b      	ldr	r3, [r7, #4]
 80055de:	685b      	ldr	r3, [r3, #4]
 80055e0:	613b      	str	r3, [r7, #16]
 80055e2:	687b      	ldr	r3, [r7, #4]
 80055e4:	69db      	ldr	r3, [r3, #28]
 80055e6:	60fb      	str	r3, [r7, #12]
 80055e8:	68fa      	ldr	r2, [r7, #12]
 80055ea:	4b2d      	ldr	r3, [pc, #180]	@ (80056a0 <TIM_OC3_SetConfig+0xe0>)
 80055ec:	4013      	ands	r3, r2
 80055ee:	60fb      	str	r3, [r7, #12]
 80055f0:	68fb      	ldr	r3, [r7, #12]
 80055f2:	f023 0303 	bic.w	r3, r3, #3
 80055f6:	60fb      	str	r3, [r7, #12]
 80055f8:	683b      	ldr	r3, [r7, #0]
 80055fa:	681b      	ldr	r3, [r3, #0]
 80055fc:	68fa      	ldr	r2, [r7, #12]
 80055fe:	4313      	orrs	r3, r2
 8005600:	60fb      	str	r3, [r7, #12]
 8005602:	697b      	ldr	r3, [r7, #20]
 8005604:	f423 7300 	bic.w	r3, r3, #512	@ 0x200
 8005608:	617b      	str	r3, [r7, #20]
 800560a:	683b      	ldr	r3, [r7, #0]
 800560c:	689b      	ldr	r3, [r3, #8]
 800560e:	021b      	lsls	r3, r3, #8
 8005610:	697a      	ldr	r2, [r7, #20]
 8005612:	4313      	orrs	r3, r2
 8005614:	617b      	str	r3, [r7, #20]
 8005616:	687b      	ldr	r3, [r7, #4]
 8005618:	4a22      	ldr	r2, [pc, #136]	@ (80056a4 <TIM_OC3_SetConfig+0xe4>)
 800561a:	4293      	cmp	r3, r2
 800561c:	d003      	beq.n	8005626 <TIM_OC3_SetConfig+0x66>
 800561e:	687b      	ldr	r3, [r7, #4]
 8005620:	4a21      	ldr	r2, [pc, #132]	@ (80056a8 <TIM_OC3_SetConfig+0xe8>)
 8005622:	4293      	cmp	r3, r2
 8005624:	d10d      	bne.n	8005642 <TIM_OC3_SetConfig+0x82>
 8005626:	697b      	ldr	r3, [r7, #20]
 8005628:	f423 6300 	bic.w	r3, r3, #2048	@ 0x800
 800562c:	617b      	str	r3, [r7, #20]
 800562e:	683b      	ldr	r3, [r7, #0]
 8005630:	68db      	ldr	r3, [r3, #12]
 8005632:	021b      	lsls	r3, r3, #8
 8005634:	697a      	ldr	r2, [r7, #20]
 8005636:	4313      	orrs	r3, r2
 8005638:	617b      	str	r3, [r7, #20]
 800563a:	697b      	ldr	r3, [r7, #20]
 800563c:	f423 6380 	bic.w	r3, r3, #1024	@ 0x400
 8005640:	617b      	str	r3, [r7, #20]
 8005642:	687b      	ldr	r3, [r7, #4]
 8005644:	4a17      	ldr	r2, [pc, #92]	@ (80056a4 <TIM_OC3_SetConfig+0xe4>)
 8005646:	4293      	cmp	r3, r2
 8005648:	d003      	beq.n	8005652 <TIM_OC3_SetConfig+0x92>
 800564a:	687b      	ldr	r3, [r7, #4]
 800564c:	4a16      	ldr	r2, [pc, #88]	@ (80056a8 <TIM_OC3_SetConfig+0xe8>)
 800564e:	4293      	cmp	r3, r2
 8005650:	d113      	bne.n	800567a <TIM_OC3_SetConfig+0xba>
 8005652:	693b      	ldr	r3, [r7, #16]
 8005654:	f423 5380 	bic.w	r3, r3, #4096	@ 0x1000
 8005658:	613b      	str	r3, [r7, #16]
 800565a:	693b      	ldr	r3, [r7, #16]
 800565c:	f423 5300 	bic.w	r3, r3, #8192	@ 0x2000
 8005660:	613b      	str	r3, [r7, #16]
 8005662:	683b      	ldr	r3, [r7, #0]
 8005664:	695b      	ldr	r3, [r3, #20]
 8005666:	011b      	lsls	r3, r3, #4
 8005668:	693a      	ldr	r2, [r7, #16]
 800566a:	4313      	orrs	r3, r2
 800566c:	613b      	str	r3, [r7, #16]
 800566e:	683b      	ldr	r3, [r7, #0]
 8005670:	699b      	ldr	r3, [r3, #24]
 8005672:	011b      	lsls	r3, r3, #4
 8005674:	693a      	ldr	r2, [r7, #16]
 8005676:	4313      	orrs	r3, r2
 8005678:	613b      	str	r3, [r7, #16]
 800567a:	687b      	ldr	r3, [r7, #4]
 800567c:	693a      	ldr	r2, [r7, #16]
 800567e:	605a      	str	r2, [r3, #4]
 8005680:	687b      	ldr	r3, [r7, #4]
 8005682:	68fa      	ldr	r2, [r7, #12]
 8005684:	61da      	str	r2, [r3, #28]
 8005686:	683b      	ldr	r3, [r7, #0]
 8005688:	685a      	ldr	r2, [r3, #4]
 800568a:	687b      	ldr	r3, [r7, #4]
 800568c:	63da      	str	r2, [r3, #60]	@ 0x3c
 800568e:	687b      	ldr	r3, [r7, #4]
 8005690:	697a      	ldr	r2, [r7, #20]
 8005692:	621a      	str	r2, [r3, #32]
 8005694:	bf00      	nop
 8005696:	371c      	adds	r7, #28
 8005698:	46bd      	mov	sp, r7
 800569a:	f85d 7b04 	ldr.w	r7, [sp], #4
 800569e:	4770      	bx	lr
 80056a0:	fffeff8f 	.word	0xfffeff8f
 80056a4:	40010000 	.word	0x40010000
 80056a8:	40010400 	.word	0x40010400

080056ac <TIM_OC4_SetConfig>:
 80056ac:	b480      	push	{r7}
 80056ae:	b087      	sub	sp, #28
 80056b0:	af00      	add	r7, sp, #0
 80056b2:	6078      	str	r0, [r7, #4]
 80056b4:	6039      	str	r1, [r7, #0]
 80056b6:	687b      	ldr	r3, [r7, #4]
 80056b8:	6a1b      	ldr	r3, [r3, #32]
 80056ba:	f423 5280 	bic.w	r2, r3, #4096	@ 0x1000
 80056be:	687b      	ldr	r3, [r7, #4]
 80056c0:	621a      	str	r2, [r3, #32]
 80056c2:	687b      	ldr	r3, [r7, #4]
 80056c4:	6a1b      	ldr	r3, [r3, #32]
 80056c6:	613b      	str	r3, [r7, #16]
 80056c8:	687b      	ldr	r3, [r7, #4]
 80056ca:	685b      	ldr	r3, [r3, #4]
 80056cc:	617b      	str	r3, [r7, #20]
 80056ce:	687b      	ldr	r3, [r7, #4]
 80056d0:	69db      	ldr	r3, [r3, #28]
 80056d2:	60fb      	str	r3, [r7, #12]
 80056d4:	68fa      	ldr	r2, [r7, #12]
 80056d6:	4b1e      	ldr	r3, [pc, #120]	@ (8005750 <TIM_OC4_SetConfig+0xa4>)
 80056d8:	4013      	ands	r3, r2
 80056da:	60fb      	str	r3, [r7, #12]
 80056dc:	68fb      	ldr	r3, [r7, #12]
 80056de:	f423 7340 	bic.w	r3, r3, #768	@ 0x300
 80056e2:	60fb      	str	r3, [r7, #12]
 80056e4:	683b      	ldr	r3, [r7, #0]
 80056e6:	681b      	ldr	r3, [r3, #0]
 80056e8:	021b      	lsls	r3, r3, #8
 80056ea:	68fa      	ldr	r2, [r7, #12]
 80056ec:	4313      	orrs	r3, r2
 80056ee:	60fb      	str	r3, [r7, #12]
 80056f0:	693b      	ldr	r3, [r7, #16]
 80056f2:	f423 5300 	bic.w	r3, r3, #8192	@ 0x2000
 80056f6:	613b      	str	r3, [r7, #16]
 80056f8:	683b      	ldr	r3, [r7, #0]
 80056fa:	689b      	ldr	r3, [r3, #8]
 80056fc:	031b      	lsls	r3, r3, #12
 80056fe:	693a      	ldr	r2, [r7, #16]
 8005700:	4313      	orrs	r3, r2
 8005702:	613b      	str	r3, [r7, #16]
 8005704:	687b      	ldr	r3, [r7, #4]
 8005706:	4a13      	ldr	r2, [pc, #76]	@ (8005754 <TIM_OC4_SetConfig+0xa8>)
 8005708:	4293      	cmp	r3, r2
 800570a:	d003      	beq.n	8005714 <TIM_OC4_SetConfig+0x68>
 800570c:	687b      	ldr	r3, [r7, #4]
 800570e:	4a12      	ldr	r2, [pc, #72]	@ (8005758 <TIM_OC4_SetConfig+0xac>)
 8005710:	4293      	cmp	r3, r2
 8005712:	d109      	bne.n	8005728 <TIM_OC4_SetConfig+0x7c>
 8005714:	697b      	ldr	r3, [r7, #20]
 8005716:	f423 4380 	bic.w	r3, r3, #16384	@ 0x4000
 800571a:	617b      	str	r3, [r7, #20]
 800571c:	683b      	ldr	r3, [r7, #0]
 800571e:	695b      	ldr	r3, [r3, #20]
 8005720:	019b      	lsls	r3, r3, #6
 8005722:	697a      	ldr	r2, [r7, #20]
 8005724:	4313      	orrs	r3, r2
 8005726:	617b      	str	r3, [r7, #20]
 8005728:	687b      	ldr	r3, [r7, #4]
 800572a:	697a      	ldr	r2, [r7, #20]
 800572c:	605a      	str	r2, [r3, #4]
 800572e:	687b      	ldr	r3, [r7, #4]
 8005730:	68fa      	ldr	r2, [r7, #12]
 8005732:	61da      	str	r2, [r3, #28]
 8005734:	683b      	ldr	r3, [r7, #0]
 8005736:	685a      	ldr	r2, [r3, #4]
 8005738:	687b      	ldr	r3, [r7, #4]
 800573a:	641a      	str	r2, [r3, #64]	@ 0x40
 800573c:	687b      	ldr	r3, [r7, #4]
 800573e:	693a      	ldr	r2, [r7, #16]
 8005740:	621a      	str	r2, [r3, #32]
 8005742:	bf00      	nop
 8005744:	371c      	adds	r7, #28
 8005746:	46bd      	mov	sp, r7
 8005748:	f85d 7b04 	ldr.w	r7, [sp], #4
 800574c:	4770      	bx	lr
 800574e:	bf00      	nop
 8005750:	feff8fff 	.word	0xfeff8fff
 8005754:	40010000 	.word	0x40010000
 8005758:	40010400 	.word	0x40010400

0800575c <TIM_OC5_SetConfig>:
 800575c:	b480      	push	{r7}
 800575e:	b087      	sub	sp, #28
 8005760:	af00      	add	r7, sp, #0
 8005762:	6078      	str	r0, [r7, #4]
 8005764:	6039      	str	r1, [r7, #0]
 8005766:	687b      	ldr	r3, [r7, #4]
 8005768:	6a1b      	ldr	r3, [r3, #32]
 800576a:	f423 3280 	bic.w	r2, r3, #65536	@ 0x10000
 800576e:	687b      	ldr	r3, [r7, #4]
 8005770:	621a      	str	r2, [r3, #32]
 8005772:	687b      	ldr	r3, [r7, #4]
 8005774:	6a1b      	ldr	r3, [r3, #32]
 8005776:	613b      	str	r3, [r7, #16]
 8005778:	687b      	ldr	r3, [r7, #4]
 800577a:	685b      	ldr	r3, [r3, #4]
 800577c:	617b      	str	r3, [r7, #20]
 800577e:	687b      	ldr	r3, [r7, #4]
 8005780:	6d5b      	ldr	r3, [r3, #84]	@ 0x54
 8005782:	60fb      	str	r3, [r7, #12]
 8005784:	68fa      	ldr	r2, [r7, #12]
 8005786:	4b1b      	ldr	r3, [pc, #108]	@ (80057f4 <TIM_OC5_SetConfig+0x98>)
 8005788:	4013      	ands	r3, r2
 800578a:	60fb      	str	r3, [r7, #12]
 800578c:	683b      	ldr	r3, [r7, #0]
 800578e:	681b      	ldr	r3, [r3, #0]
 8005790:	68fa      	ldr	r2, [r7, #12]
 8005792:	4313      	orrs	r3, r2
 8005794:	60fb      	str	r3, [r7, #12]
 8005796:	693b      	ldr	r3, [r7, #16]
 8005798:	f423 3300 	bic.w	r3, r3, #131072	@ 0x20000
 800579c:	613b      	str	r3, [r7, #16]
 800579e:	683b      	ldr	r3, [r7, #0]
 80057a0:	689b      	ldr	r3, [r3, #8]
 80057a2:	041b      	lsls	r3, r3, #16
 80057a4:	693a      	ldr	r2, [r7, #16]
 80057a6:	4313      	orrs	r3, r2
 80057a8:	613b      	str	r3, [r7, #16]
 80057aa:	687b      	ldr	r3, [r7, #4]
 80057ac:	4a12      	ldr	r2, [pc, #72]	@ (80057f8 <TIM_OC5_SetConfig+0x9c>)
 80057ae:	4293      	cmp	r3, r2
 80057b0:	d003      	beq.n	80057ba <TIM_OC5_SetConfig+0x5e>
 80057b2:	687b      	ldr	r3, [r7, #4]
 80057b4:	4a11      	ldr	r2, [pc, #68]	@ (80057fc <TIM_OC5_SetConfig+0xa0>)
 80057b6:	4293      	cmp	r3, r2
 80057b8:	d109      	bne.n	80057ce <TIM_OC5_SetConfig+0x72>
 80057ba:	697b      	ldr	r3, [r7, #20]
 80057bc:	f423 3380 	bic.w	r3, r3, #65536	@ 0x10000
 80057c0:	617b      	str	r3, [r7, #20]
 80057c2:	683b      	ldr	r3, [r7, #0]
 80057c4:	695b      	ldr	r3, [r3, #20]
 80057c6:	021b      	lsls	r3, r3, #8
 80057c8:	697a      	ldr	r2, [r7, #20]
 80057ca:	4313      	orrs	r3, r2
 80057cc:	617b      	str	r3, [r7, #20]
 80057ce:	687b      	ldr	r3, [r7, #4]
 80057d0:	697a      	ldr	r2, [r7, #20]
 80057d2:	605a      	str	r2, [r3, #4]
 80057d4:	687b      	ldr	r3, [r7, #4]
 80057d6:	68fa      	ldr	r2, [r7, #12]
 80057d8:	655a      	str	r2, [r3, #84]	@ 0x54
 80057da:	683b      	ldr	r3, [r7, #0]
 80057dc:	685a      	ldr	r2, [r3, #4]
 80057de:	687b      	ldr	r3, [r7, #4]
 80057e0:	659a      	str	r2, [r3, #88]	@ 0x58
 80057e2:	687b      	ldr	r3, [r7, #4]
 80057e4:	693a      	ldr	r2, [r7, #16]
 80057e6:	621a      	str	r2, [r3, #32]
 80057e8:	bf00      	nop
 80057ea:	371c      	adds	r7, #28
 80057ec:	46bd      	mov	sp, r7
 80057ee:	f85d 7b04 	ldr.w	r7, [sp], #4
 80057f2:	4770      	bx	lr
 80057f4:	fffeff8f 	.word	0xfffeff8f
 80057f8:	40010000 	.word	0x40010000
 80057fc:	40010400 	.word	0x40010400

08005800 <TIM_OC6_SetConfig>:
 8005800:	b480      	push	{r7}
 8005802:	b087      	sub	sp, #28
 8005804:	af00      	add	r7, sp, #0
 8005806:	6078      	str	r0, [r7, #4]
 8005808:	6039      	str	r1, [r7, #0]
 800580a:	687b      	ldr	r3, [r7, #4]
 800580c:	6a1b      	ldr	r3, [r3, #32]
 800580e:	f423 1280 	bic.w	r2, r3, #1048576	@ 0x100000
 8005812:	687b      	ldr	r3, [r7, #4]
 8005814:	621a      	str	r2, [r3, #32]
 8005816:	687b      	ldr	r3, [r7, #4]
 8005818:	6a1b      	ldr	r3, [r3, #32]
 800581a:	613b      	str	r3, [r7, #16]
 800581c:	687b      	ldr	r3, [r7, #4]
 800581e:	685b      	ldr	r3, [r3, #4]
 8005820:	617b      	str	r3, [r7, #20]
 8005822:	687b      	ldr	r3, [r7, #4]
 8005824:	6d5b      	ldr	r3, [r3, #84]	@ 0x54
 8005826:	60fb      	str	r3, [r7, #12]
 8005828:	68fa      	ldr	r2, [r7, #12]
 800582a:	4b1c      	ldr	r3, [pc, #112]	@ (800589c <TIM_OC6_SetConfig+0x9c>)
 800582c:	4013      	ands	r3, r2
 800582e:	60fb      	str	r3, [r7, #12]
 8005830:	683b      	ldr	r3, [r7, #0]
 8005832:	681b      	ldr	r3, [r3, #0]
 8005834:	021b      	lsls	r3, r3, #8
 8005836:	68fa      	ldr	r2, [r7, #12]
 8005838:	4313      	orrs	r3, r2
 800583a:	60fb      	str	r3, [r7, #12]
 800583c:	693b      	ldr	r3, [r7, #16]
 800583e:	f423 1300 	bic.w	r3, r3, #2097152	@ 0x200000
 8005842:	613b      	str	r3, [r7, #16]
 8005844:	683b      	ldr	r3, [r7, #0]
 8005846:	689b      	ldr	r3, [r3, #8]
 8005848:	051b      	lsls	r3, r3, #20
 800584a:	693a      	ldr	r2, [r7, #16]
 800584c:	4313      	orrs	r3, r2
 800584e:	613b      	str	r3, [r7, #16]
 8005850:	687b      	ldr	r3, [r7, #4]
 8005852:	4a13      	ldr	r2, [pc, #76]	@ (80058a0 <TIM_OC6_SetConfig+0xa0>)
 8005854:	4293      	cmp	r3, r2
 8005856:	d003      	beq.n	8005860 <TIM_OC6_SetConfig+0x60>
 8005858:	687b      	ldr	r3, [r7, #4]
 800585a:	4a12      	ldr	r2, [pc, #72]	@ (80058a4 <TIM_OC6_SetConfig+0xa4>)
 800585c:	4293      	cmp	r3, r2
 800585e:	d109      	bne.n	8005874 <TIM_OC6_SetConfig+0x74>
 8005860:	697b      	ldr	r3, [r7, #20]
 8005862:	f423 2380 	bic.w	r3, r3, #262144	@ 0x40000
 8005866:	617b      	str	r3, [r7, #20]
 8005868:	683b      	ldr	r3, [r7, #0]
 800586a:	695b      	ldr	r3, [r3, #20]
 800586c:	029b      	lsls	r3, r3, #10
 800586e:	697a      	ldr	r2, [r7, #20]
 8005870:	4313      	orrs	r3, r2
 8005872:	617b      	str	r3, [r7, #20]
 8005874:	687b      	ldr	r3, [r7, #4]
 8005876:	697a      	ldr	r2, [r7, #20]
 8005878:	605a      	str	r2, [r3, #4]
 800587a:	687b      	ldr	r3, [r7, #4]
 800587c:	68fa      	ldr	r2, [r7, #12]
 800587e:	655a      	str	r2, [r3, #84]	@ 0x54
 8005880:	683b      	ldr	r3, [r7, #0]
 8005882:	685a      	ldr	r2, [r3, #4]
 8005884:	687b      	ldr	r3, [r7, #4]
 8005886:	65da      	str	r2, [r3, #92]	@ 0x5c
 8005888:	687b      	ldr	r3, [r7, #4]
 800588a:	693a      	ldr	r2, [r7, #16]
 800588c:	621a      	str	r2, [r3, #32]
 800588e:	bf00      	nop
 8005890:	371c      	adds	r7, #28
 8005892:	46bd      	mov	sp, r7
 8005894:	f85d 7b04 	ldr.w	r7, [sp], #4
 8005898:	4770      	bx	lr
 800589a:	bf00      	nop
 800589c:	feff8fff 	.word	0xfeff8fff
 80058a0:	40010000 	.word	0x40010000
 80058a4:	40010400 	.word	0x40010400

080058a8 <TIM_TI1_ConfigInputStage>:
 80058a8:	b480      	push	{r7}
 80058aa:	b087      	sub	sp, #28
 80058ac:	af00      	add	r7, sp, #0
 80058ae:	60f8      	str	r0, [r7, #12]
 80058b0:	60b9      	str	r1, [r7, #8]
 80058b2:	607a      	str	r2, [r7, #4]
 80058b4:	68fb      	ldr	r3, [r7, #12]
 80058b6:	6a1b      	ldr	r3, [r3, #32]
 80058b8:	617b      	str	r3, [r7, #20]
 80058ba:	68fb      	ldr	r3, [r7, #12]
 80058bc:	6a1b      	ldr	r3, [r3, #32]
 80058be:	f023 0201 	bic.w	r2, r3, #1
 80058c2:	68fb      	ldr	r3, [r7, #12]
 80058c4:	621a      	str	r2, [r3, #32]
 80058c6:	68fb      	ldr	r3, [r7, #12]
 80058c8:	699b      	ldr	r3, [r3, #24]
 80058ca:	613b      	str	r3, [r7, #16]
 80058cc:	693b      	ldr	r3, [r7, #16]
 80058ce:	f023 03f0 	bic.w	r3, r3, #240	@ 0xf0
 80058d2:	613b      	str	r3, [r7, #16]
 80058d4:	687b      	ldr	r3, [r7, #4]
 80058d6:	011b      	lsls	r3, r3, #4
 80058d8:	693a      	ldr	r2, [r7, #16]
 80058da:	4313      	orrs	r3, r2
 80058dc:	613b      	str	r3, [r7, #16]
 80058de:	697b      	ldr	r3, [r7, #20]
 80058e0:	f023 030a 	bic.w	r3, r3, #10
 80058e4:	617b      	str	r3, [r7, #20]
 80058e6:	697a      	ldr	r2, [r7, #20]
 80058e8:	68bb      	ldr	r3, [r7, #8]
 80058ea:	4313      	orrs	r3, r2
 80058ec:	617b      	str	r3, [r7, #20]
 80058ee:	68fb      	ldr	r3, [r7, #12]
 80058f0:	693a      	ldr	r2, [r7, #16]
 80058f2:	619a      	str	r2, [r3, #24]
 80058f4:	68fb      	ldr	r3, [r7, #12]
 80058f6:	697a      	ldr	r2, [r7, #20]
 80058f8:	621a      	str	r2, [r3, #32]
 80058fa:	bf00      	nop
 80058fc:	371c      	adds	r7, #28
 80058fe:	46bd      	mov	sp, r7
 8005900:	f85d 7b04 	ldr.w	r7, [sp], #4
 8005904:	4770      	bx	lr

08005906 <TIM_TI2_ConfigInputStage>:
 8005906:	b480      	push	{r7}
 8005908:	b087      	sub	sp, #28
 800590a:	af00      	add	r7, sp, #0
 800590c:	60f8      	str	r0, [r7, #12]
 800590e:	60b9      	str	r1, [r7, #8]
 8005910:	607a      	str	r2, [r7, #4]
 8005912:	68fb      	ldr	r3, [r7, #12]
 8005914:	6a1b      	ldr	r3, [r3, #32]
 8005916:	f023 0210 	bic.w	r2, r3, #16
 800591a:	68fb      	ldr	r3, [r7, #12]
 800591c:	621a      	str	r2, [r3, #32]
 800591e:	68fb      	ldr	r3, [r7, #12]
 8005920:	699b      	ldr	r3, [r3, #24]
 8005922:	617b      	str	r3, [r7, #20]
 8005924:	68fb      	ldr	r3, [r7, #12]
 8005926:	6a1b      	ldr	r3, [r3, #32]
 8005928:	613b      	str	r3, [r7, #16]
 800592a:	697b      	ldr	r3, [r7, #20]
 800592c:	f423 4370 	bic.w	r3, r3, #61440	@ 0xf000
 8005930:	617b      	str	r3, [r7, #20]
 8005932:	687b      	ldr	r3, [r7, #4]
 8005934:	031b      	lsls	r3, r3, #12
 8005936:	697a      	ldr	r2, [r7, #20]
 8005938:	4313      	orrs	r3, r2
 800593a:	617b      	str	r3, [r7, #20]
 800593c:	693b      	ldr	r3, [r7, #16]
 800593e:	f023 03a0 	bic.w	r3, r3, #160	@ 0xa0
 8005942:	613b      	str	r3, [r7, #16]
 8005944:	68bb      	ldr	r3, [r7, #8]
 8005946:	011b      	lsls	r3, r3, #4
 8005948:	693a      	ldr	r2, [r7, #16]
 800594a:	4313      	orrs	r3, r2
 800594c:	613b      	str	r3, [r7, #16]
 800594e:	68fb      	ldr	r3, [r7, #12]
 8005950:	697a      	ldr	r2, [r7, #20]
 8005952:	619a      	str	r2, [r3, #24]
 8005954:	68fb      	ldr	r3, [r7, #12]
 8005956:	693a      	ldr	r2, [r7, #16]
 8005958:	621a      	str	r2, [r3, #32]
 800595a:	bf00      	nop
 800595c:	371c      	adds	r7, #28
 800595e:	46bd      	mov	sp, r7
 8005960:	f85d 7b04 	ldr.w	r7, [sp], #4
 8005964:	4770      	bx	lr

08005966 <TIM_ITRx_SetConfig>:
 8005966:	b480      	push	{r7}
 8005968:	b085      	sub	sp, #20
 800596a:	af00      	add	r7, sp, #0
 800596c:	6078      	str	r0, [r7, #4]
 800596e:	6039      	str	r1, [r7, #0]
 8005970:	687b      	ldr	r3, [r7, #4]
 8005972:	689b      	ldr	r3, [r3, #8]
 8005974:	60fb      	str	r3, [r7, #12]
 8005976:	68fb      	ldr	r3, [r7, #12]
 8005978:	f023 0370 	bic.w	r3, r3, #112	@ 0x70
 800597c:	60fb      	str	r3, [r7, #12]
 800597e:	683a      	ldr	r2, [r7, #0]
 8005980:	68fb      	ldr	r3, [r7, #12]
 8005982:	4313      	orrs	r3, r2
 8005984:	f043 0307 	orr.w	r3, r3, #7
 8005988:	60fb      	str	r3, [r7, #12]
 800598a:	687b      	ldr	r3, [r7, #4]
 800598c:	68fa      	ldr	r2, [r7, #12]
 800598e:	609a      	str	r2, [r3, #8]
 8005990:	bf00      	nop
 8005992:	3714      	adds	r7, #20
 8005994:	46bd      	mov	sp, r7
 8005996:	f85d 7b04 	ldr.w	r7, [sp], #4
 800599a:	4770      	bx	lr

0800599c <TIM_ETR_SetConfig>:
 800599c:	b480      	push	{r7}
 800599e:	b087      	sub	sp, #28
 80059a0:	af00      	add	r7, sp, #0
 80059a2:	60f8      	str	r0, [r7, #12]
 80059a4:	60b9      	str	r1, [r7, #8]
 80059a6:	607a      	str	r2, [r7, #4]
 80059a8:	603b      	str	r3, [r7, #0]
 80059aa:	68fb      	ldr	r3, [r7, #12]
 80059ac:	689b      	ldr	r3, [r3, #8]
 80059ae:	617b      	str	r3, [r7, #20]
 80059b0:	697b      	ldr	r3, [r7, #20]
 80059b2:	f423 437f 	bic.w	r3, r3, #65280	@ 0xff00
 80059b6:	617b      	str	r3, [r7, #20]
 80059b8:	683b      	ldr	r3, [r7, #0]
 80059ba:	021a      	lsls	r2, r3, #8
 80059bc:	687b      	ldr	r3, [r7, #4]
 80059be:	431a      	orrs	r2, r3
 80059c0:	68bb      	ldr	r3, [r7, #8]
 80059c2:	4313      	orrs	r3, r2
 80059c4:	697a      	ldr	r2, [r7, #20]
 80059c6:	4313      	orrs	r3, r2
 80059c8:	617b      	str	r3, [r7, #20]
 80059ca:	68fb      	ldr	r3, [r7, #12]
 80059cc:	697a      	ldr	r2, [r7, #20]
 80059ce:	609a      	str	r2, [r3, #8]
 80059d0:	bf00      	nop
 80059d2:	371c      	adds	r7, #28
 80059d4:	46bd      	mov	sp, r7
 80059d6:	f85d 7b04 	ldr.w	r7, [sp], #4
 80059da:	4770      	bx	lr

080059dc <TIM_CCxChannelCmd>:
 80059dc:	b480      	push	{r7}
 80059de:	b087      	sub	sp, #28
 80059e0:	af00      	add	r7, sp, #0
 80059e2:	60f8      	str	r0, [r7, #12]
 80059e4:	60b9      	str	r1, [r7, #8]
 80059e6:	607a      	str	r2, [r7, #4]
 80059e8:	68bb      	ldr	r3, [r7, #8]
 80059ea:	f003 031f 	and.w	r3, r3, #31
 80059ee:	2201      	movs	r2, #1
 80059f0:	fa02 f303 	lsl.w	r3, r2, r3
 80059f4:	617b      	str	r3, [r7, #20]
 80059f6:	68fb      	ldr	r3, [r7, #12]
 80059f8:	6a1a      	ldr	r2, [r3, #32]
 80059fa:	697b      	ldr	r3, [r7, #20]
 80059fc:	43db      	mvns	r3, r3
 80059fe:	401a      	ands	r2, r3
 8005a00:	68fb      	ldr	r3, [r7, #12]
 8005a02:	621a      	str	r2, [r3, #32]
 8005a04:	68fb      	ldr	r3, [r7, #12]
 8005a06:	6a1a      	ldr	r2, [r3, #32]
 8005a08:	68bb      	ldr	r3, [r7, #8]
 8005a0a:	f003 031f 	and.w	r3, r3, #31
 8005a0e:	6879      	ldr	r1, [r7, #4]
 8005a10:	fa01 f303 	lsl.w	r3, r1, r3
 8005a14:	431a      	orrs	r2, r3
 8005a16:	68fb      	ldr	r3, [r7, #12]
 8005a18:	621a      	str	r2, [r3, #32]
 8005a1a:	bf00      	nop
 8005a1c:	371c      	adds	r7, #28
 8005a1e:	46bd      	mov	sp, r7
 8005a20:	f85d 7b04 	ldr.w	r7, [sp], #4
 8005a24:	4770      	bx	lr
	...

08005a28 <HAL_TIMEx_MasterConfigSynchronization>:
 8005a28:	b480      	push	{r7}
 8005a2a:	b085      	sub	sp, #20
 8005a2c:	af00      	add	r7, sp, #0
 8005a2e:	6078      	str	r0, [r7, #4]
 8005a30:	6039      	str	r1, [r7, #0]
 8005a32:	687b      	ldr	r3, [r7, #4]
 8005a34:	f893 303c 	ldrb.w	r3, [r3, #60]	@ 0x3c
 8005a38:	2b01      	cmp	r3, #1
 8005a3a:	d101      	bne.n	8005a40 <HAL_TIMEx_MasterConfigSynchronization+0x18>
 8005a3c:	2302      	movs	r3, #2
 8005a3e:	e06d      	b.n	8005b1c <HAL_TIMEx_MasterConfigSynchronization+0xf4>
 8005a40:	687b      	ldr	r3, [r7, #4]
 8005a42:	2201      	movs	r2, #1
 8005a44:	f883 203c 	strb.w	r2, [r3, #60]	@ 0x3c
 8005a48:	687b      	ldr	r3, [r7, #4]
 8005a4a:	2202      	movs	r2, #2
 8005a4c:	f883 203d 	strb.w	r2, [r3, #61]	@ 0x3d
 8005a50:	687b      	ldr	r3, [r7, #4]
 8005a52:	681b      	ldr	r3, [r3, #0]
 8005a54:	685b      	ldr	r3, [r3, #4]
 8005a56:	60fb      	str	r3, [r7, #12]
 8005a58:	687b      	ldr	r3, [r7, #4]
 8005a5a:	681b      	ldr	r3, [r3, #0]
 8005a5c:	689b      	ldr	r3, [r3, #8]
 8005a5e:	60bb      	str	r3, [r7, #8]
 8005a60:	687b      	ldr	r3, [r7, #4]
 8005a62:	681b      	ldr	r3, [r3, #0]
 8005a64:	4a30      	ldr	r2, [pc, #192]	@ (8005b28 <HAL_TIMEx_MasterConfigSynchronization+0x100>)
 8005a66:	4293      	cmp	r3, r2
 8005a68:	d004      	beq.n	8005a74 <HAL_TIMEx_MasterConfigSynchronization+0x4c>
 8005a6a:	687b      	ldr	r3, [r7, #4]
 8005a6c:	681b      	ldr	r3, [r3, #0]
 8005a6e:	4a2f      	ldr	r2, [pc, #188]	@ (8005b2c <HAL_TIMEx_MasterConfigSynchronization+0x104>)
 8005a70:	4293      	cmp	r3, r2
 8005a72:	d108      	bne.n	8005a86 <HAL_TIMEx_MasterConfigSynchronization+0x5e>
 8005a74:	68fb      	ldr	r3, [r7, #12]
 8005a76:	f423 0370 	bic.w	r3, r3, #15728640	@ 0xf00000
 8005a7a:	60fb      	str	r3, [r7, #12]
 8005a7c:	683b      	ldr	r3, [r7, #0]
 8005a7e:	685b      	ldr	r3, [r3, #4]
 8005a80:	68fa      	ldr	r2, [r7, #12]
 8005a82:	4313      	orrs	r3, r2
 8005a84:	60fb      	str	r3, [r7, #12]
 8005a86:	68fb      	ldr	r3, [r7, #12]
 8005a88:	f023 0370 	bic.w	r3, r3, #112	@ 0x70
 8005a8c:	60fb      	str	r3, [r7, #12]
 8005a8e:	683b      	ldr	r3, [r7, #0]
 8005a90:	681b      	ldr	r3, [r3, #0]
 8005a92:	68fa      	ldr	r2, [r7, #12]
 8005a94:	4313      	orrs	r3, r2
 8005a96:	60fb      	str	r3, [r7, #12]
 8005a98:	687b      	ldr	r3, [r7, #4]
 8005a9a:	681b      	ldr	r3, [r3, #0]
 8005a9c:	68fa      	ldr	r2, [r7, #12]
 8005a9e:	605a      	str	r2, [r3, #4]
 8005aa0:	687b      	ldr	r3, [r7, #4]
 8005aa2:	681b      	ldr	r3, [r3, #0]
 8005aa4:	4a20      	ldr	r2, [pc, #128]	@ (8005b28 <HAL_TIMEx_MasterConfigSynchronization+0x100>)
 8005aa6:	4293      	cmp	r3, r2
 8005aa8:	d022      	beq.n	8005af0 <HAL_TIMEx_MasterConfigSynchronization+0xc8>
 8005aaa:	687b      	ldr	r3, [r7, #4]
 8005aac:	681b      	ldr	r3, [r3, #0]
 8005aae:	f1b3 4f80 	cmp.w	r3, #1073741824	@ 0x40000000
 8005ab2:	d01d      	beq.n	8005af0 <HAL_TIMEx_MasterConfigSynchronization+0xc8>
 8005ab4:	687b      	ldr	r3, [r7, #4]
 8005ab6:	681b      	ldr	r3, [r3, #0]
 8005ab8:	4a1d      	ldr	r2, [pc, #116]	@ (8005b30 <HAL_TIMEx_MasterConfigSynchronization+0x108>)
 8005aba:	4293      	cmp	r3, r2
 8005abc:	d018      	beq.n	8005af0 <HAL_TIMEx_MasterConfigSynchronization+0xc8>
 8005abe:	687b      	ldr	r3, [r7, #4]
 8005ac0:	681b      	ldr	r3, [r3, #0]
 8005ac2:	4a1c      	ldr	r2, [pc, #112]	@ (8005b34 <HAL_TIMEx_MasterConfigSynchronization+0x10c>)
 8005ac4:	4293      	cmp	r3, r2
 8005ac6:	d013      	beq.n	8005af0 <HAL_TIMEx_MasterConfigSynchronization+0xc8>
 8005ac8:	687b      	ldr	r3, [r7, #4]
 8005aca:	681b      	ldr	r3, [r3, #0]
 8005acc:	4a1a      	ldr	r2, [pc, #104]	@ (8005b38 <HAL_TIMEx_MasterConfigSynchronization+0x110>)
 8005ace:	4293      	cmp	r3, r2
 8005ad0:	d00e      	beq.n	8005af0 <HAL_TIMEx_MasterConfigSynchronization+0xc8>
 8005ad2:	687b      	ldr	r3, [r7, #4]
 8005ad4:	681b      	ldr	r3, [r3, #0]
 8005ad6:	4a15      	ldr	r2, [pc, #84]	@ (8005b2c <HAL_TIMEx_MasterConfigSynchronization+0x104>)
 8005ad8:	4293      	cmp	r3, r2
 8005ada:	d009      	beq.n	8005af0 <HAL_TIMEx_MasterConfigSynchronization+0xc8>
 8005adc:	687b      	ldr	r3, [r7, #4]
 8005ade:	681b      	ldr	r3, [r3, #0]
 8005ae0:	4a16      	ldr	r2, [pc, #88]	@ (8005b3c <HAL_TIMEx_MasterConfigSynchronization+0x114>)
 8005ae2:	4293      	cmp	r3, r2
 8005ae4:	d004      	beq.n	8005af0 <HAL_TIMEx_MasterConfigSynchronization+0xc8>
 8005ae6:	687b      	ldr	r3, [r7, #4]
 8005ae8:	681b      	ldr	r3, [r3, #0]
 8005aea:	4a15      	ldr	r2, [pc, #84]	@ (8005b40 <HAL_TIMEx_MasterConfigSynchronization+0x118>)
 8005aec:	4293      	cmp	r3, r2
 8005aee:	d10c      	bne.n	8005b0a <HAL_TIMEx_MasterConfigSynchronization+0xe2>
 8005af0:	68bb      	ldr	r3, [r7, #8]
 8005af2:	f023 0380 	bic.w	r3, r3, #128	@ 0x80
 8005af6:	60bb      	str	r3, [r7, #8]
 8005af8:	683b      	ldr	r3, [r7, #0]
 8005afa:	689b      	ldr	r3, [r3, #8]
 8005afc:	68ba      	ldr	r2, [r7, #8]
 8005afe:	4313      	orrs	r3, r2
 8005b00:	60bb      	str	r3, [r7, #8]
 8005b02:	687b      	ldr	r3, [r7, #4]
 8005b04:	681b      	ldr	r3, [r3, #0]
 8005b06:	68ba      	ldr	r2, [r7, #8]
 8005b08:	609a      	str	r2, [r3, #8]
 8005b0a:	687b      	ldr	r3, [r7, #4]
 8005b0c:	2201      	movs	r2, #1
 8005b0e:	f883 203d 	strb.w	r2, [r3, #61]	@ 0x3d
 8005b12:	687b      	ldr	r3, [r7, #4]
 8005b14:	2200      	movs	r2, #0
 8005b16:	f883 203c 	strb.w	r2, [r3, #60]	@ 0x3c
 8005b1a:	2300      	movs	r3, #0
 8005b1c:	4618      	mov	r0, r3
 8005b1e:	3714      	adds	r7, #20
 8005b20:	46bd      	mov	sp, r7
 8005b22:	f85d 7b04 	ldr.w	r7, [sp], #4
 8005b26:	4770      	bx	lr
 8005b28:	40010000 	.word	0x40010000
 8005b2c:	40010400 	.word	0x40010400
 8005b30:	40000400 	.word	0x40000400
 8005b34:	40000800 	.word	0x40000800
 8005b38:	40000c00 	.word	0x40000c00
 8005b3c:	40014000 	.word	0x40014000
 8005b40:	40001800 	.word	0x40001800

08005b44 <HAL_TIMEx_CommutCallback>:
 8005b44:	b480      	push	{r7}
 8005b46:	b083      	sub	sp, #12
 8005b48:	af00      	add	r7, sp, #0
 8005b4a:	6078      	str	r0, [r7, #4]
 8005b4c:	bf00      	nop
 8005b4e:	370c      	adds	r7, #12
 8005b50:	46bd      	mov	sp, r7
 8005b52:	f85d 7b04 	ldr.w	r7, [sp], #4
 8005b56:	4770      	bx	lr

08005b58 <HAL_TIMEx_BreakCallback>:
 8005b58:	b480      	push	{r7}
 8005b5a:	b083      	sub	sp, #12
 8005b5c:	af00      	add	r7, sp, #0
 8005b5e:	6078      	str	r0, [r7, #4]
 8005b60:	bf00      	nop
 8005b62:	370c      	adds	r7, #12
 8005b64:	46bd      	mov	sp, r7
 8005b66:	f85d 7b04 	ldr.w	r7, [sp], #4
 8005b6a:	4770      	bx	lr

08005b6c <HAL_TIMEx_Break2Callback>:
 8005b6c:	b480      	push	{r7}
 8005b6e:	b083      	sub	sp, #12
 8005b70:	af00      	add	r7, sp, #0
 8005b72:	6078      	str	r0, [r7, #4]
 8005b74:	bf00      	nop
 8005b76:	370c      	adds	r7, #12
 8005b78:	46bd      	mov	sp, r7
 8005b7a:	f85d 7b04 	ldr.w	r7, [sp], #4
 8005b7e:	4770      	bx	lr

08005b80 <HAL_UART_Init>:
 8005b80:	b580      	push	{r7, lr}
 8005b82:	b082      	sub	sp, #8
 8005b84:	af00      	add	r7, sp, #0
 8005b86:	6078      	str	r0, [r7, #4]
 8005b88:	687b      	ldr	r3, [r7, #4]
 8005b8a:	2b00      	cmp	r3, #0
 8005b8c:	d101      	bne.n	8005b92 <HAL_UART_Init+0x12>
 8005b8e:	2301      	movs	r3, #1
 8005b90:	e040      	b.n	8005c14 <HAL_UART_Init+0x94>
 8005b92:	687b      	ldr	r3, [r7, #4]
 8005b94:	6fdb      	ldr	r3, [r3, #124]	@ 0x7c
 8005b96:	2b00      	cmp	r3, #0
 8005b98:	d106      	bne.n	8005ba8 <HAL_UART_Init+0x28>
 8005b9a:	687b      	ldr	r3, [r7, #4]
 8005b9c:	2200      	movs	r2, #0
 8005b9e:	f883 2078 	strb.w	r2, [r3, #120]	@ 0x78
 8005ba2:	6878      	ldr	r0, [r7, #4]
 8005ba4:	f7fc fcf2 	bl	800258c <HAL_UART_MspInit>
 8005ba8:	687b      	ldr	r3, [r7, #4]
 8005baa:	2224      	movs	r2, #36	@ 0x24
 8005bac:	67da      	str	r2, [r3, #124]	@ 0x7c
 8005bae:	687b      	ldr	r3, [r7, #4]
 8005bb0:	681b      	ldr	r3, [r3, #0]
 8005bb2:	681a      	ldr	r2, [r3, #0]
 8005bb4:	687b      	ldr	r3, [r7, #4]
 8005bb6:	681b      	ldr	r3, [r3, #0]
 8005bb8:	f022 0201 	bic.w	r2, r2, #1
 8005bbc:	601a      	str	r2, [r3, #0]
 8005bbe:	6878      	ldr	r0, [r7, #4]
 8005bc0:	f000 f8b0 	bl	8005d24 <UART_SetConfig>
 8005bc4:	4603      	mov	r3, r0
 8005bc6:	2b01      	cmp	r3, #1
 8005bc8:	d101      	bne.n	8005bce <HAL_UART_Init+0x4e>
 8005bca:	2301      	movs	r3, #1
 8005bcc:	e022      	b.n	8005c14 <HAL_UART_Init+0x94>
 8005bce:	687b      	ldr	r3, [r7, #4]
 8005bd0:	6a5b      	ldr	r3, [r3, #36]	@ 0x24
 8005bd2:	2b00      	cmp	r3, #0
 8005bd4:	d002      	beq.n	8005bdc <HAL_UART_Init+0x5c>
 8005bd6:	6878      	ldr	r0, [r7, #4]
 8005bd8:	f000 fb08 	bl	80061ec <UART_AdvFeatureConfig>
 8005bdc:	687b      	ldr	r3, [r7, #4]
 8005bde:	681b      	ldr	r3, [r3, #0]
 8005be0:	685a      	ldr	r2, [r3, #4]
 8005be2:	687b      	ldr	r3, [r7, #4]
 8005be4:	681b      	ldr	r3, [r3, #0]
 8005be6:	f422 4290 	bic.w	r2, r2, #18432	@ 0x4800
 8005bea:	605a      	str	r2, [r3, #4]
 8005bec:	687b      	ldr	r3, [r7, #4]
 8005bee:	681b      	ldr	r3, [r3, #0]
 8005bf0:	689a      	ldr	r2, [r3, #8]
 8005bf2:	687b      	ldr	r3, [r7, #4]
 8005bf4:	681b      	ldr	r3, [r3, #0]
 8005bf6:	f022 022a 	bic.w	r2, r2, #42	@ 0x2a
 8005bfa:	609a      	str	r2, [r3, #8]
 8005bfc:	687b      	ldr	r3, [r7, #4]
 8005bfe:	681b      	ldr	r3, [r3, #0]
 8005c00:	681a      	ldr	r2, [r3, #0]
 8005c02:	687b      	ldr	r3, [r7, #4]
 8005c04:	681b      	ldr	r3, [r3, #0]
 8005c06:	f042 0201 	orr.w	r2, r2, #1
 8005c0a:	601a      	str	r2, [r3, #0]
 8005c0c:	6878      	ldr	r0, [r7, #4]
 8005c0e:	f000 fb8f 	bl	8006330 <UART_CheckIdleState>
 8005c12:	4603      	mov	r3, r0
 8005c14:	4618      	mov	r0, r3
 8005c16:	3708      	adds	r7, #8
 8005c18:	46bd      	mov	sp, r7
 8005c1a:	bd80      	pop	{r7, pc}

08005c1c <HAL_UART_Transmit>:
 8005c1c:	b580      	push	{r7, lr}
 8005c1e:	b08a      	sub	sp, #40	@ 0x28
 8005c20:	af02      	add	r7, sp, #8
 8005c22:	60f8      	str	r0, [r7, #12]
 8005c24:	60b9      	str	r1, [r7, #8]
 8005c26:	603b      	str	r3, [r7, #0]
 8005c28:	4613      	mov	r3, r2
 8005c2a:	80fb      	strh	r3, [r7, #6]
 8005c2c:	68fb      	ldr	r3, [r7, #12]
 8005c2e:	6fdb      	ldr	r3, [r3, #124]	@ 0x7c
 8005c30:	2b20      	cmp	r3, #32
 8005c32:	d171      	bne.n	8005d18 <HAL_UART_Transmit+0xfc>
 8005c34:	68bb      	ldr	r3, [r7, #8]
 8005c36:	2b00      	cmp	r3, #0
 8005c38:	d002      	beq.n	8005c40 <HAL_UART_Transmit+0x24>
 8005c3a:	88fb      	ldrh	r3, [r7, #6]
 8005c3c:	2b00      	cmp	r3, #0
 8005c3e:	d101      	bne.n	8005c44 <HAL_UART_Transmit+0x28>
 8005c40:	2301      	movs	r3, #1
 8005c42:	e06a      	b.n	8005d1a <HAL_UART_Transmit+0xfe>
 8005c44:	68fb      	ldr	r3, [r7, #12]
 8005c46:	2200      	movs	r2, #0
 8005c48:	f8c3 2084 	str.w	r2, [r3, #132]	@ 0x84
 8005c4c:	68fb      	ldr	r3, [r7, #12]
 8005c4e:	2221      	movs	r2, #33	@ 0x21
 8005c50:	67da      	str	r2, [r3, #124]	@ 0x7c
 8005c52:	f7fc fd75 	bl	8002740 <HAL_GetTick>
 8005c56:	6178      	str	r0, [r7, #20]
 8005c58:	68fb      	ldr	r3, [r7, #12]
 8005c5a:	88fa      	ldrh	r2, [r7, #6]
 8005c5c:	f8a3 2050 	strh.w	r2, [r3, #80]	@ 0x50
 8005c60:	68fb      	ldr	r3, [r7, #12]
 8005c62:	88fa      	ldrh	r2, [r7, #6]
 8005c64:	f8a3 2052 	strh.w	r2, [r3, #82]	@ 0x52
 8005c68:	68fb      	ldr	r3, [r7, #12]
 8005c6a:	689b      	ldr	r3, [r3, #8]
 8005c6c:	f5b3 5f80 	cmp.w	r3, #4096	@ 0x1000
 8005c70:	d108      	bne.n	8005c84 <HAL_UART_Transmit+0x68>
 8005c72:	68fb      	ldr	r3, [r7, #12]
 8005c74:	691b      	ldr	r3, [r3, #16]
 8005c76:	2b00      	cmp	r3, #0
 8005c78:	d104      	bne.n	8005c84 <HAL_UART_Transmit+0x68>
 8005c7a:	2300      	movs	r3, #0
 8005c7c:	61fb      	str	r3, [r7, #28]
 8005c7e:	68bb      	ldr	r3, [r7, #8]
 8005c80:	61bb      	str	r3, [r7, #24]
 8005c82:	e003      	b.n	8005c8c <HAL_UART_Transmit+0x70>
 8005c84:	68bb      	ldr	r3, [r7, #8]
 8005c86:	61fb      	str	r3, [r7, #28]
 8005c88:	2300      	movs	r3, #0
 8005c8a:	61bb      	str	r3, [r7, #24]
 8005c8c:	e02c      	b.n	8005ce8 <HAL_UART_Transmit+0xcc>
 8005c8e:	683b      	ldr	r3, [r7, #0]
 8005c90:	9300      	str	r3, [sp, #0]
 8005c92:	697b      	ldr	r3, [r7, #20]
 8005c94:	2200      	movs	r2, #0
 8005c96:	2180      	movs	r1, #128	@ 0x80
 8005c98:	68f8      	ldr	r0, [r7, #12]
 8005c9a:	f000 fb96 	bl	80063ca <UART_WaitOnFlagUntilTimeout>
 8005c9e:	4603      	mov	r3, r0
 8005ca0:	2b00      	cmp	r3, #0
 8005ca2:	d001      	beq.n	8005ca8 <HAL_UART_Transmit+0x8c>
 8005ca4:	2303      	movs	r3, #3
 8005ca6:	e038      	b.n	8005d1a <HAL_UART_Transmit+0xfe>
 8005ca8:	69fb      	ldr	r3, [r7, #28]
 8005caa:	2b00      	cmp	r3, #0
 8005cac:	d10b      	bne.n	8005cc6 <HAL_UART_Transmit+0xaa>
 8005cae:	69bb      	ldr	r3, [r7, #24]
 8005cb0:	881b      	ldrh	r3, [r3, #0]
 8005cb2:	461a      	mov	r2, r3
 8005cb4:	68fb      	ldr	r3, [r7, #12]
 8005cb6:	681b      	ldr	r3, [r3, #0]
 8005cb8:	f3c2 0208 	ubfx	r2, r2, #0, #9
 8005cbc:	629a      	str	r2, [r3, #40]	@ 0x28
 8005cbe:	69bb      	ldr	r3, [r7, #24]
 8005cc0:	3302      	adds	r3, #2
 8005cc2:	61bb      	str	r3, [r7, #24]
 8005cc4:	e007      	b.n	8005cd6 <HAL_UART_Transmit+0xba>
 8005cc6:	69fb      	ldr	r3, [r7, #28]
 8005cc8:	781a      	ldrb	r2, [r3, #0]
 8005cca:	68fb      	ldr	r3, [r7, #12]
 8005ccc:	681b      	ldr	r3, [r3, #0]
 8005cce:	629a      	str	r2, [r3, #40]	@ 0x28
 8005cd0:	69fb      	ldr	r3, [r7, #28]
 8005cd2:	3301      	adds	r3, #1
 8005cd4:	61fb      	str	r3, [r7, #28]
 8005cd6:	68fb      	ldr	r3, [r7, #12]
 8005cd8:	f8b3 3052 	ldrh.w	r3, [r3, #82]	@ 0x52
 8005cdc:	b29b      	uxth	r3, r3
 8005cde:	3b01      	subs	r3, #1
 8005ce0:	b29a      	uxth	r2, r3
 8005ce2:	68fb      	ldr	r3, [r7, #12]
 8005ce4:	f8a3 2052 	strh.w	r2, [r3, #82]	@ 0x52
 8005ce8:	68fb      	ldr	r3, [r7, #12]
 8005cea:	f8b3 3052 	ldrh.w	r3, [r3, #82]	@ 0x52
 8005cee:	b29b      	uxth	r3, r3
 8005cf0:	2b00      	cmp	r3, #0
 8005cf2:	d1cc      	bne.n	8005c8e <HAL_UART_Transmit+0x72>
 8005cf4:	683b      	ldr	r3, [r7, #0]
 8005cf6:	9300      	str	r3, [sp, #0]
 8005cf8:	697b      	ldr	r3, [r7, #20]
 8005cfa:	2200      	movs	r2, #0
 8005cfc:	2140      	movs	r1, #64	@ 0x40
 8005cfe:	68f8      	ldr	r0, [r7, #12]
 8005d00:	f000 fb63 	bl	80063ca <UART_WaitOnFlagUntilTimeout>
 8005d04:	4603      	mov	r3, r0
 8005d06:	2b00      	cmp	r3, #0
 8005d08:	d001      	beq.n	8005d0e <HAL_UART_Transmit+0xf2>
 8005d0a:	2303      	movs	r3, #3
 8005d0c:	e005      	b.n	8005d1a <HAL_UART_Transmit+0xfe>
 8005d0e:	68fb      	ldr	r3, [r7, #12]
 8005d10:	2220      	movs	r2, #32
 8005d12:	67da      	str	r2, [r3, #124]	@ 0x7c
 8005d14:	2300      	movs	r3, #0
 8005d16:	e000      	b.n	8005d1a <HAL_UART_Transmit+0xfe>
 8005d18:	2302      	movs	r3, #2
 8005d1a:	4618      	mov	r0, r3
 8005d1c:	3720      	adds	r7, #32
 8005d1e:	46bd      	mov	sp, r7
 8005d20:	bd80      	pop	{r7, pc}
	...

08005d24 <UART_SetConfig>:
 8005d24:	b580      	push	{r7, lr}
 8005d26:	b088      	sub	sp, #32
 8005d28:	af00      	add	r7, sp, #0
 8005d2a:	6078      	str	r0, [r7, #4]
 8005d2c:	2300      	movs	r3, #0
 8005d2e:	77bb      	strb	r3, [r7, #30]
 8005d30:	687b      	ldr	r3, [r7, #4]
 8005d32:	689a      	ldr	r2, [r3, #8]
 8005d34:	687b      	ldr	r3, [r7, #4]
 8005d36:	691b      	ldr	r3, [r3, #16]
 8005d38:	431a      	orrs	r2, r3
 8005d3a:	687b      	ldr	r3, [r7, #4]
 8005d3c:	695b      	ldr	r3, [r3, #20]
 8005d3e:	431a      	orrs	r2, r3
 8005d40:	687b      	ldr	r3, [r7, #4]
 8005d42:	69db      	ldr	r3, [r3, #28]
 8005d44:	4313      	orrs	r3, r2
 8005d46:	617b      	str	r3, [r7, #20]
 8005d48:	687b      	ldr	r3, [r7, #4]
 8005d4a:	681b      	ldr	r3, [r3, #0]
 8005d4c:	681a      	ldr	r2, [r3, #0]
 8005d4e:	4ba6      	ldr	r3, [pc, #664]	@ (8005fe8 <UART_SetConfig+0x2c4>)
 8005d50:	4013      	ands	r3, r2
 8005d52:	687a      	ldr	r2, [r7, #4]
 8005d54:	6812      	ldr	r2, [r2, #0]
 8005d56:	6979      	ldr	r1, [r7, #20]
 8005d58:	430b      	orrs	r3, r1
 8005d5a:	6013      	str	r3, [r2, #0]
 8005d5c:	687b      	ldr	r3, [r7, #4]
 8005d5e:	681b      	ldr	r3, [r3, #0]
 8005d60:	685b      	ldr	r3, [r3, #4]
 8005d62:	f423 5140 	bic.w	r1, r3, #12288	@ 0x3000
 8005d66:	687b      	ldr	r3, [r7, #4]
 8005d68:	68da      	ldr	r2, [r3, #12]
 8005d6a:	687b      	ldr	r3, [r7, #4]
 8005d6c:	681b      	ldr	r3, [r3, #0]
 8005d6e:	430a      	orrs	r2, r1
 8005d70:	605a      	str	r2, [r3, #4]
 8005d72:	687b      	ldr	r3, [r7, #4]
 8005d74:	699b      	ldr	r3, [r3, #24]
 8005d76:	617b      	str	r3, [r7, #20]
 8005d78:	687b      	ldr	r3, [r7, #4]
 8005d7a:	6a1b      	ldr	r3, [r3, #32]
 8005d7c:	697a      	ldr	r2, [r7, #20]
 8005d7e:	4313      	orrs	r3, r2
 8005d80:	617b      	str	r3, [r7, #20]
 8005d82:	687b      	ldr	r3, [r7, #4]
 8005d84:	681b      	ldr	r3, [r3, #0]
 8005d86:	689b      	ldr	r3, [r3, #8]
 8005d88:	f423 6130 	bic.w	r1, r3, #2816	@ 0xb00
 8005d8c:	687b      	ldr	r3, [r7, #4]
 8005d8e:	681b      	ldr	r3, [r3, #0]
 8005d90:	697a      	ldr	r2, [r7, #20]
 8005d92:	430a      	orrs	r2, r1
 8005d94:	609a      	str	r2, [r3, #8]
 8005d96:	687b      	ldr	r3, [r7, #4]
 8005d98:	681b      	ldr	r3, [r3, #0]
 8005d9a:	4a94      	ldr	r2, [pc, #592]	@ (8005fec <UART_SetConfig+0x2c8>)
 8005d9c:	4293      	cmp	r3, r2
 8005d9e:	d120      	bne.n	8005de2 <UART_SetConfig+0xbe>
 8005da0:	4b93      	ldr	r3, [pc, #588]	@ (8005ff0 <UART_SetConfig+0x2cc>)
 8005da2:	f8d3 3090 	ldr.w	r3, [r3, #144]	@ 0x90
 8005da6:	f003 0303 	and.w	r3, r3, #3
 8005daa:	2b03      	cmp	r3, #3
 8005dac:	d816      	bhi.n	8005ddc <UART_SetConfig+0xb8>
 8005dae:	a201      	add	r2, pc, #4	@ (adr r2, 8005db4 <UART_SetConfig+0x90>)
 8005db0:	f852 f023 	ldr.w	pc, [r2, r3, lsl #2]
 8005db4:	08005dc5 	.word	0x08005dc5
 8005db8:	08005dd1 	.word	0x08005dd1
 8005dbc:	08005dcb 	.word	0x08005dcb
 8005dc0:	08005dd7 	.word	0x08005dd7
 8005dc4:	2301      	movs	r3, #1
 8005dc6:	77fb      	strb	r3, [r7, #31]
 8005dc8:	e150      	b.n	800606c <UART_SetConfig+0x348>
 8005dca:	2302      	movs	r3, #2
 8005dcc:	77fb      	strb	r3, [r7, #31]
 8005dce:	e14d      	b.n	800606c <UART_SetConfig+0x348>
 8005dd0:	2304      	movs	r3, #4
 8005dd2:	77fb      	strb	r3, [r7, #31]
 8005dd4:	e14a      	b.n	800606c <UART_SetConfig+0x348>
 8005dd6:	2308      	movs	r3, #8
 8005dd8:	77fb      	strb	r3, [r7, #31]
 8005dda:	e147      	b.n	800606c <UART_SetConfig+0x348>
 8005ddc:	2310      	movs	r3, #16
 8005dde:	77fb      	strb	r3, [r7, #31]
 8005de0:	e144      	b.n	800606c <UART_SetConfig+0x348>
 8005de2:	687b      	ldr	r3, [r7, #4]
 8005de4:	681b      	ldr	r3, [r3, #0]
 8005de6:	4a83      	ldr	r2, [pc, #524]	@ (8005ff4 <UART_SetConfig+0x2d0>)
 8005de8:	4293      	cmp	r3, r2
 8005dea:	d132      	bne.n	8005e52 <UART_SetConfig+0x12e>
 8005dec:	4b80      	ldr	r3, [pc, #512]	@ (8005ff0 <UART_SetConfig+0x2cc>)
 8005dee:	f8d3 3090 	ldr.w	r3, [r3, #144]	@ 0x90
 8005df2:	f003 030c 	and.w	r3, r3, #12
 8005df6:	2b0c      	cmp	r3, #12
 8005df8:	d828      	bhi.n	8005e4c <UART_SetConfig+0x128>
 8005dfa:	a201      	add	r2, pc, #4	@ (adr r2, 8005e00 <UART_SetConfig+0xdc>)
 8005dfc:	f852 f023 	ldr.w	pc, [r2, r3, lsl #2]
 8005e00:	08005e35 	.word	0x08005e35
 8005e04:	08005e4d 	.word	0x08005e4d
 8005e08:	08005e4d 	.word	0x08005e4d
 8005e0c:	08005e4d 	.word	0x08005e4d
 8005e10:	08005e41 	.word	0x08005e41
 8005e14:	08005e4d 	.word	0x08005e4d
 8005e18:	08005e4d 	.word	0x08005e4d
 8005e1c:	08005e4d 	.word	0x08005e4d
 8005e20:	08005e3b 	.word	0x08005e3b
 8005e24:	08005e4d 	.word	0x08005e4d
 8005e28:	08005e4d 	.word	0x08005e4d
 8005e2c:	08005e4d 	.word	0x08005e4d
 8005e30:	08005e47 	.word	0x08005e47
 8005e34:	2300      	movs	r3, #0
 8005e36:	77fb      	strb	r3, [r7, #31]
 8005e38:	e118      	b.n	800606c <UART_SetConfig+0x348>
 8005e3a:	2302      	movs	r3, #2
 8005e3c:	77fb      	strb	r3, [r7, #31]
 8005e3e:	e115      	b.n	800606c <UART_SetConfig+0x348>
 8005e40:	2304      	movs	r3, #4
 8005e42:	77fb      	strb	r3, [r7, #31]
 8005e44:	e112      	b.n	800606c <UART_SetConfig+0x348>
 8005e46:	2308      	movs	r3, #8
 8005e48:	77fb      	strb	r3, [r7, #31]
 8005e4a:	e10f      	b.n	800606c <UART_SetConfig+0x348>
 8005e4c:	2310      	movs	r3, #16
 8005e4e:	77fb      	strb	r3, [r7, #31]
 8005e50:	e10c      	b.n	800606c <UART_SetConfig+0x348>
 8005e52:	687b      	ldr	r3, [r7, #4]
 8005e54:	681b      	ldr	r3, [r3, #0]
 8005e56:	4a68      	ldr	r2, [pc, #416]	@ (8005ff8 <UART_SetConfig+0x2d4>)
 8005e58:	4293      	cmp	r3, r2
 8005e5a:	d120      	bne.n	8005e9e <UART_SetConfig+0x17a>
 8005e5c:	4b64      	ldr	r3, [pc, #400]	@ (8005ff0 <UART_SetConfig+0x2cc>)
 8005e5e:	f8d3 3090 	ldr.w	r3, [r3, #144]	@ 0x90
 8005e62:	f003 0330 	and.w	r3, r3, #48	@ 0x30
 8005e66:	2b30      	cmp	r3, #48	@ 0x30
 8005e68:	d013      	beq.n	8005e92 <UART_SetConfig+0x16e>
 8005e6a:	2b30      	cmp	r3, #48	@ 0x30
 8005e6c:	d814      	bhi.n	8005e98 <UART_SetConfig+0x174>
 8005e6e:	2b20      	cmp	r3, #32
 8005e70:	d009      	beq.n	8005e86 <UART_SetConfig+0x162>
 8005e72:	2b20      	cmp	r3, #32
 8005e74:	d810      	bhi.n	8005e98 <UART_SetConfig+0x174>
 8005e76:	2b00      	cmp	r3, #0
 8005e78:	d002      	beq.n	8005e80 <UART_SetConfig+0x15c>
 8005e7a:	2b10      	cmp	r3, #16
 8005e7c:	d006      	beq.n	8005e8c <UART_SetConfig+0x168>
 8005e7e:	e00b      	b.n	8005e98 <UART_SetConfig+0x174>
 8005e80:	2300      	movs	r3, #0
 8005e82:	77fb      	strb	r3, [r7, #31]
 8005e84:	e0f2      	b.n	800606c <UART_SetConfig+0x348>
 8005e86:	2302      	movs	r3, #2
 8005e88:	77fb      	strb	r3, [r7, #31]
 8005e8a:	e0ef      	b.n	800606c <UART_SetConfig+0x348>
 8005e8c:	2304      	movs	r3, #4
 8005e8e:	77fb      	strb	r3, [r7, #31]
 8005e90:	e0ec      	b.n	800606c <UART_SetConfig+0x348>
 8005e92:	2308      	movs	r3, #8
 8005e94:	77fb      	strb	r3, [r7, #31]
 8005e96:	e0e9      	b.n	800606c <UART_SetConfig+0x348>
 8005e98:	2310      	movs	r3, #16
 8005e9a:	77fb      	strb	r3, [r7, #31]
 8005e9c:	e0e6      	b.n	800606c <UART_SetConfig+0x348>
 8005e9e:	687b      	ldr	r3, [r7, #4]
 8005ea0:	681b      	ldr	r3, [r3, #0]
 8005ea2:	4a56      	ldr	r2, [pc, #344]	@ (8005ffc <UART_SetConfig+0x2d8>)
 8005ea4:	4293      	cmp	r3, r2
 8005ea6:	d120      	bne.n	8005eea <UART_SetConfig+0x1c6>
 8005ea8:	4b51      	ldr	r3, [pc, #324]	@ (8005ff0 <UART_SetConfig+0x2cc>)
 8005eaa:	f8d3 3090 	ldr.w	r3, [r3, #144]	@ 0x90
 8005eae:	f003 03c0 	and.w	r3, r3, #192	@ 0xc0
 8005eb2:	2bc0      	cmp	r3, #192	@ 0xc0
 8005eb4:	d013      	beq.n	8005ede <UART_SetConfig+0x1ba>
 8005eb6:	2bc0      	cmp	r3, #192	@ 0xc0
 8005eb8:	d814      	bhi.n	8005ee4 <UART_SetConfig+0x1c0>
 8005eba:	2b80      	cmp	r3, #128	@ 0x80
 8005ebc:	d009      	beq.n	8005ed2 <UART_SetConfig+0x1ae>
 8005ebe:	2b80      	cmp	r3, #128	@ 0x80
 8005ec0:	d810      	bhi.n	8005ee4 <UART_SetConfig+0x1c0>
 8005ec2:	2b00      	cmp	r3, #0
 8005ec4:	d002      	beq.n	8005ecc <UART_SetConfig+0x1a8>
 8005ec6:	2b40      	cmp	r3, #64	@ 0x40
 8005ec8:	d006      	beq.n	8005ed8 <UART_SetConfig+0x1b4>
 8005eca:	e00b      	b.n	8005ee4 <UART_SetConfig+0x1c0>
 8005ecc:	2300      	movs	r3, #0
 8005ece:	77fb      	strb	r3, [r7, #31]
 8005ed0:	e0cc      	b.n	800606c <UART_SetConfig+0x348>
 8005ed2:	2302      	movs	r3, #2
 8005ed4:	77fb      	strb	r3, [r7, #31]
 8005ed6:	e0c9      	b.n	800606c <UART_SetConfig+0x348>
 8005ed8:	2304      	movs	r3, #4
 8005eda:	77fb      	strb	r3, [r7, #31]
 8005edc:	e0c6      	b.n	800606c <UART_SetConfig+0x348>
 8005ede:	2308      	movs	r3, #8
 8005ee0:	77fb      	strb	r3, [r7, #31]
 8005ee2:	e0c3      	b.n	800606c <UART_SetConfig+0x348>
 8005ee4:	2310      	movs	r3, #16
 8005ee6:	77fb      	strb	r3, [r7, #31]
 8005ee8:	e0c0      	b.n	800606c <UART_SetConfig+0x348>
 8005eea:	687b      	ldr	r3, [r7, #4]
 8005eec:	681b      	ldr	r3, [r3, #0]
 8005eee:	4a44      	ldr	r2, [pc, #272]	@ (8006000 <UART_SetConfig+0x2dc>)
 8005ef0:	4293      	cmp	r3, r2
 8005ef2:	d125      	bne.n	8005f40 <UART_SetConfig+0x21c>
 8005ef4:	4b3e      	ldr	r3, [pc, #248]	@ (8005ff0 <UART_SetConfig+0x2cc>)
 8005ef6:	f8d3 3090 	ldr.w	r3, [r3, #144]	@ 0x90
 8005efa:	f403 7340 	and.w	r3, r3, #768	@ 0x300
 8005efe:	f5b3 7f40 	cmp.w	r3, #768	@ 0x300
 8005f02:	d017      	beq.n	8005f34 <UART_SetConfig+0x210>
 8005f04:	f5b3 7f40 	cmp.w	r3, #768	@ 0x300
 8005f08:	d817      	bhi.n	8005f3a <UART_SetConfig+0x216>
 8005f0a:	f5b3 7f00 	cmp.w	r3, #512	@ 0x200
 8005f0e:	d00b      	beq.n	8005f28 <UART_SetConfig+0x204>
 8005f10:	f5b3 7f00 	cmp.w	r3, #512	@ 0x200
 8005f14:	d811      	bhi.n	8005f3a <UART_SetConfig+0x216>
 8005f16:	2b00      	cmp	r3, #0
 8005f18:	d003      	beq.n	8005f22 <UART_SetConfig+0x1fe>
 8005f1a:	f5b3 7f80 	cmp.w	r3, #256	@ 0x100
 8005f1e:	d006      	beq.n	8005f2e <UART_SetConfig+0x20a>
 8005f20:	e00b      	b.n	8005f3a <UART_SetConfig+0x216>
 8005f22:	2300      	movs	r3, #0
 8005f24:	77fb      	strb	r3, [r7, #31]
 8005f26:	e0a1      	b.n	800606c <UART_SetConfig+0x348>
 8005f28:	2302      	movs	r3, #2
 8005f2a:	77fb      	strb	r3, [r7, #31]
 8005f2c:	e09e      	b.n	800606c <UART_SetConfig+0x348>
 8005f2e:	2304      	movs	r3, #4
 8005f30:	77fb      	strb	r3, [r7, #31]
 8005f32:	e09b      	b.n	800606c <UART_SetConfig+0x348>
 8005f34:	2308      	movs	r3, #8
 8005f36:	77fb      	strb	r3, [r7, #31]
 8005f38:	e098      	b.n	800606c <UART_SetConfig+0x348>
 8005f3a:	2310      	movs	r3, #16
 8005f3c:	77fb      	strb	r3, [r7, #31]
 8005f3e:	e095      	b.n	800606c <UART_SetConfig+0x348>
 8005f40:	687b      	ldr	r3, [r7, #4]
 8005f42:	681b      	ldr	r3, [r3, #0]
 8005f44:	4a2f      	ldr	r2, [pc, #188]	@ (8006004 <UART_SetConfig+0x2e0>)
 8005f46:	4293      	cmp	r3, r2
 8005f48:	d125      	bne.n	8005f96 <UART_SetConfig+0x272>
 8005f4a:	4b29      	ldr	r3, [pc, #164]	@ (8005ff0 <UART_SetConfig+0x2cc>)
 8005f4c:	f8d3 3090 	ldr.w	r3, [r3, #144]	@ 0x90
 8005f50:	f403 6340 	and.w	r3, r3, #3072	@ 0xc00
 8005f54:	f5b3 6f40 	cmp.w	r3, #3072	@ 0xc00
 8005f58:	d017      	beq.n	8005f8a <UART_SetConfig+0x266>
 8005f5a:	f5b3 6f40 	cmp.w	r3, #3072	@ 0xc00
 8005f5e:	d817      	bhi.n	8005f90 <UART_SetConfig+0x26c>
 8005f60:	f5b3 6f00 	cmp.w	r3, #2048	@ 0x800
 8005f64:	d00b      	beq.n	8005f7e <UART_SetConfig+0x25a>
 8005f66:	f5b3 6f00 	cmp.w	r3, #2048	@ 0x800
 8005f6a:	d811      	bhi.n	8005f90 <UART_SetConfig+0x26c>
 8005f6c:	2b00      	cmp	r3, #0
 8005f6e:	d003      	beq.n	8005f78 <UART_SetConfig+0x254>
 8005f70:	f5b3 6f80 	cmp.w	r3, #1024	@ 0x400
 8005f74:	d006      	beq.n	8005f84 <UART_SetConfig+0x260>
 8005f76:	e00b      	b.n	8005f90 <UART_SetConfig+0x26c>
 8005f78:	2301      	movs	r3, #1
 8005f7a:	77fb      	strb	r3, [r7, #31]
 8005f7c:	e076      	b.n	800606c <UART_SetConfig+0x348>
 8005f7e:	2302      	movs	r3, #2
 8005f80:	77fb      	strb	r3, [r7, #31]
 8005f82:	e073      	b.n	800606c <UART_SetConfig+0x348>
 8005f84:	2304      	movs	r3, #4
 8005f86:	77fb      	strb	r3, [r7, #31]
 8005f88:	e070      	b.n	800606c <UART_SetConfig+0x348>
 8005f8a:	2308      	movs	r3, #8
 8005f8c:	77fb      	strb	r3, [r7, #31]
 8005f8e:	e06d      	b.n	800606c <UART_SetConfig+0x348>
 8005f90:	2310      	movs	r3, #16
 8005f92:	77fb      	strb	r3, [r7, #31]
 8005f94:	e06a      	b.n	800606c <UART_SetConfig+0x348>
 8005f96:	687b      	ldr	r3, [r7, #4]
 8005f98:	681b      	ldr	r3, [r3, #0]
 8005f9a:	4a1b      	ldr	r2, [pc, #108]	@ (8006008 <UART_SetConfig+0x2e4>)
 8005f9c:	4293      	cmp	r3, r2
 8005f9e:	d138      	bne.n	8006012 <UART_SetConfig+0x2ee>
 8005fa0:	4b13      	ldr	r3, [pc, #76]	@ (8005ff0 <UART_SetConfig+0x2cc>)
 8005fa2:	f8d3 3090 	ldr.w	r3, [r3, #144]	@ 0x90
 8005fa6:	f403 5340 	and.w	r3, r3, #12288	@ 0x3000
 8005faa:	f5b3 5f40 	cmp.w	r3, #12288	@ 0x3000
 8005fae:	d017      	beq.n	8005fe0 <UART_SetConfig+0x2bc>
 8005fb0:	f5b3 5f40 	cmp.w	r3, #12288	@ 0x3000
 8005fb4:	d82a      	bhi.n	800600c <UART_SetConfig+0x2e8>
 8005fb6:	f5b3 5f00 	cmp.w	r3, #8192	@ 0x2000
 8005fba:	d00b      	beq.n	8005fd4 <UART_SetConfig+0x2b0>
 8005fbc:	f5b3 5f00 	cmp.w	r3, #8192	@ 0x2000
 8005fc0:	d824      	bhi.n	800600c <UART_SetConfig+0x2e8>
 8005fc2:	2b00      	cmp	r3, #0
 8005fc4:	d003      	beq.n	8005fce <UART_SetConfig+0x2aa>
 8005fc6:	f5b3 5f80 	cmp.w	r3, #4096	@ 0x1000
 8005fca:	d006      	beq.n	8005fda <UART_SetConfig+0x2b6>
 8005fcc:	e01e      	b.n	800600c <UART_SetConfig+0x2e8>
 8005fce:	2300      	movs	r3, #0
 8005fd0:	77fb      	strb	r3, [r7, #31]
 8005fd2:	e04b      	b.n	800606c <UART_SetConfig+0x348>
 8005fd4:	2302      	movs	r3, #2
 8005fd6:	77fb      	strb	r3, [r7, #31]
 8005fd8:	e048      	b.n	800606c <UART_SetConfig+0x348>
 8005fda:	2304      	movs	r3, #4
 8005fdc:	77fb      	strb	r3, [r7, #31]
 8005fde:	e045      	b.n	800606c <UART_SetConfig+0x348>
 8005fe0:	2308      	movs	r3, #8
 8005fe2:	77fb      	strb	r3, [r7, #31]
 8005fe4:	e042      	b.n	800606c <UART_SetConfig+0x348>
 8005fe6:	bf00      	nop
 8005fe8:	efff69f3 	.word	0xefff69f3
 8005fec:	40011000 	.word	0x40011000
 8005ff0:	40023800 	.word	0x40023800
 8005ff4:	40004400 	.word	0x40004400
 8005ff8:	40004800 	.word	0x40004800
 8005ffc:	40004c00 	.word	0x40004c00
 8006000:	40005000 	.word	0x40005000
 8006004:	40011400 	.word	0x40011400
 8006008:	40007800 	.word	0x40007800
 800600c:	2310      	movs	r3, #16
 800600e:	77fb      	strb	r3, [r7, #31]
 8006010:	e02c      	b.n	800606c <UART_SetConfig+0x348>
 8006012:	687b      	ldr	r3, [r7, #4]
 8006014:	681b      	ldr	r3, [r3, #0]
 8006016:	4a72      	ldr	r2, [pc, #456]	@ (80061e0 <UART_SetConfig+0x4bc>)
 8006018:	4293      	cmp	r3, r2
 800601a:	d125      	bne.n	8006068 <UART_SetConfig+0x344>
 800601c:	4b71      	ldr	r3, [pc, #452]	@ (80061e4 <UART_SetConfig+0x4c0>)
 800601e:	f8d3 3090 	ldr.w	r3, [r3, #144]	@ 0x90
 8006022:	f403 4340 	and.w	r3, r3, #49152	@ 0xc000
 8006026:	f5b3 4f40 	cmp.w	r3, #49152	@ 0xc000
 800602a:	d017      	beq.n	800605c <UART_SetConfig+0x338>
 800602c:	f5b3 4f40 	cmp.w	r3, #49152	@ 0xc000
 8006030:	d817      	bhi.n	8006062 <UART_SetConfig+0x33e>
 8006032:	f5b3 4f00 	cmp.w	r3, #32768	@ 0x8000
 8006036:	d00b      	beq.n	8006050 <UART_SetConfig+0x32c>
 8006038:	f5b3 4f00 	cmp.w	r3, #32768	@ 0x8000
 800603c:	d811      	bhi.n	8006062 <UART_SetConfig+0x33e>
 800603e:	2b00      	cmp	r3, #0
 8006040:	d003      	beq.n	800604a <UART_SetConfig+0x326>
 8006042:	f5b3 4f80 	cmp.w	r3, #16384	@ 0x4000
 8006046:	d006      	beq.n	8006056 <UART_SetConfig+0x332>
 8006048:	e00b      	b.n	8006062 <UART_SetConfig+0x33e>
 800604a:	2300      	movs	r3, #0
 800604c:	77fb      	strb	r3, [r7, #31]
 800604e:	e00d      	b.n	800606c <UART_SetConfig+0x348>
 8006050:	2302      	movs	r3, #2
 8006052:	77fb      	strb	r3, [r7, #31]
 8006054:	e00a      	b.n	800606c <UART_SetConfig+0x348>
 8006056:	2304      	movs	r3, #4
 8006058:	77fb      	strb	r3, [r7, #31]
 800605a:	e007      	b.n	800606c <UART_SetConfig+0x348>
 800605c:	2308      	movs	r3, #8
 800605e:	77fb      	strb	r3, [r7, #31]
 8006060:	e004      	b.n	800606c <UART_SetConfig+0x348>
 8006062:	2310      	movs	r3, #16
 8006064:	77fb      	strb	r3, [r7, #31]
 8006066:	e001      	b.n	800606c <UART_SetConfig+0x348>
 8006068:	2310      	movs	r3, #16
 800606a:	77fb      	strb	r3, [r7, #31]
 800606c:	687b      	ldr	r3, [r7, #4]
 800606e:	69db      	ldr	r3, [r3, #28]
 8006070:	f5b3 4f00 	cmp.w	r3, #32768	@ 0x8000
 8006074:	d15b      	bne.n	800612e <UART_SetConfig+0x40a>
 8006076:	7ffb      	ldrb	r3, [r7, #31]
 8006078:	2b08      	cmp	r3, #8
 800607a:	d828      	bhi.n	80060ce <UART_SetConfig+0x3aa>
 800607c:	a201      	add	r2, pc, #4	@ (adr r2, 8006084 <UART_SetConfig+0x360>)
 800607e:	f852 f023 	ldr.w	pc, [r2, r3, lsl #2]
 8006082:	bf00      	nop
 8006084:	080060a9 	.word	0x080060a9
 8006088:	080060b1 	.word	0x080060b1
 800608c:	080060b9 	.word	0x080060b9
 8006090:	080060cf 	.word	0x080060cf
 8006094:	080060bf 	.word	0x080060bf
 8006098:	080060cf 	.word	0x080060cf
 800609c:	080060cf 	.word	0x080060cf
 80060a0:	080060cf 	.word	0x080060cf
 80060a4:	080060c7 	.word	0x080060c7
 80060a8:	f7fd fb8e 	bl	80037c8 <HAL_RCC_GetPCLK1Freq>
 80060ac:	61b8      	str	r0, [r7, #24]
 80060ae:	e013      	b.n	80060d8 <UART_SetConfig+0x3b4>
 80060b0:	f7fd fb9e 	bl	80037f0 <HAL_RCC_GetPCLK2Freq>
 80060b4:	61b8      	str	r0, [r7, #24]
 80060b6:	e00f      	b.n	80060d8 <UART_SetConfig+0x3b4>
 80060b8:	4b4b      	ldr	r3, [pc, #300]	@ (80061e8 <UART_SetConfig+0x4c4>)
 80060ba:	61bb      	str	r3, [r7, #24]
 80060bc:	e00c      	b.n	80060d8 <UART_SetConfig+0x3b4>
 80060be:	f7fd fa71 	bl	80035a4 <HAL_RCC_GetSysClockFreq>
 80060c2:	61b8      	str	r0, [r7, #24]
 80060c4:	e008      	b.n	80060d8 <UART_SetConfig+0x3b4>
 80060c6:	f44f 4300 	mov.w	r3, #32768	@ 0x8000
 80060ca:	61bb      	str	r3, [r7, #24]
 80060cc:	e004      	b.n	80060d8 <UART_SetConfig+0x3b4>
 80060ce:	2300      	movs	r3, #0
 80060d0:	61bb      	str	r3, [r7, #24]
 80060d2:	2301      	movs	r3, #1
 80060d4:	77bb      	strb	r3, [r7, #30]
 80060d6:	bf00      	nop
 80060d8:	69bb      	ldr	r3, [r7, #24]
 80060da:	2b00      	cmp	r3, #0
 80060dc:	d074      	beq.n	80061c8 <UART_SetConfig+0x4a4>
 80060de:	69bb      	ldr	r3, [r7, #24]
 80060e0:	005a      	lsls	r2, r3, #1
 80060e2:	687b      	ldr	r3, [r7, #4]
 80060e4:	685b      	ldr	r3, [r3, #4]
 80060e6:	085b      	lsrs	r3, r3, #1
 80060e8:	441a      	add	r2, r3
 80060ea:	687b      	ldr	r3, [r7, #4]
 80060ec:	685b      	ldr	r3, [r3, #4]
 80060ee:	fbb2 f3f3 	udiv	r3, r2, r3
 80060f2:	613b      	str	r3, [r7, #16]
 80060f4:	693b      	ldr	r3, [r7, #16]
 80060f6:	2b0f      	cmp	r3, #15
 80060f8:	d916      	bls.n	8006128 <UART_SetConfig+0x404>
 80060fa:	693b      	ldr	r3, [r7, #16]
 80060fc:	f5b3 3f80 	cmp.w	r3, #65536	@ 0x10000
 8006100:	d212      	bcs.n	8006128 <UART_SetConfig+0x404>
 8006102:	693b      	ldr	r3, [r7, #16]
 8006104:	b29b      	uxth	r3, r3
 8006106:	f023 030f 	bic.w	r3, r3, #15
 800610a:	81fb      	strh	r3, [r7, #14]
 800610c:	693b      	ldr	r3, [r7, #16]
 800610e:	085b      	lsrs	r3, r3, #1
 8006110:	b29b      	uxth	r3, r3
 8006112:	f003 0307 	and.w	r3, r3, #7
 8006116:	b29a      	uxth	r2, r3
 8006118:	89fb      	ldrh	r3, [r7, #14]
 800611a:	4313      	orrs	r3, r2
 800611c:	81fb      	strh	r3, [r7, #14]
 800611e:	687b      	ldr	r3, [r7, #4]
 8006120:	681b      	ldr	r3, [r3, #0]
 8006122:	89fa      	ldrh	r2, [r7, #14]
 8006124:	60da      	str	r2, [r3, #12]
 8006126:	e04f      	b.n	80061c8 <UART_SetConfig+0x4a4>
 8006128:	2301      	movs	r3, #1
 800612a:	77bb      	strb	r3, [r7, #30]
 800612c:	e04c      	b.n	80061c8 <UART_SetConfig+0x4a4>
 800612e:	7ffb      	ldrb	r3, [r7, #31]
 8006130:	2b08      	cmp	r3, #8
 8006132:	d828      	bhi.n	8006186 <UART_SetConfig+0x462>
 8006134:	a201      	add	r2, pc, #4	@ (adr r2, 800613c <UART_SetConfig+0x418>)
 8006136:	f852 f023 	ldr.w	pc, [r2, r3, lsl #2]
 800613a:	bf00      	nop
 800613c:	08006161 	.word	0x08006161
 8006140:	08006169 	.word	0x08006169
 8006144:	08006171 	.word	0x08006171
 8006148:	08006187 	.word	0x08006187
 800614c:	08006177 	.word	0x08006177
 8006150:	08006187 	.word	0x08006187
 8006154:	08006187 	.word	0x08006187
 8006158:	08006187 	.word	0x08006187
 800615c:	0800617f 	.word	0x0800617f
 8006160:	f7fd fb32 	bl	80037c8 <HAL_RCC_GetPCLK1Freq>
 8006164:	61b8      	str	r0, [r7, #24]
 8006166:	e013      	b.n	8006190 <UART_SetConfig+0x46c>
 8006168:	f7fd fb42 	bl	80037f0 <HAL_RCC_GetPCLK2Freq>
 800616c:	61b8      	str	r0, [r7, #24]
 800616e:	e00f      	b.n	8006190 <UART_SetConfig+0x46c>
 8006170:	4b1d      	ldr	r3, [pc, #116]	@ (80061e8 <UART_SetConfig+0x4c4>)
 8006172:	61bb      	str	r3, [r7, #24]
 8006174:	e00c      	b.n	8006190 <UART_SetConfig+0x46c>
 8006176:	f7fd fa15 	bl	80035a4 <HAL_RCC_GetSysClockFreq>
 800617a:	61b8      	str	r0, [r7, #24]
 800617c:	e008      	b.n	8006190 <UART_SetConfig+0x46c>
 800617e:	f44f 4300 	mov.w	r3, #32768	@ 0x8000
 8006182:	61bb      	str	r3, [r7, #24]
 8006184:	e004      	b.n	8006190 <UART_SetConfig+0x46c>
 8006186:	2300      	movs	r3, #0
 8006188:	61bb      	str	r3, [r7, #24]
 800618a:	2301      	movs	r3, #1
 800618c:	77bb      	strb	r3, [r7, #30]
 800618e:	bf00      	nop
 8006190:	69bb      	ldr	r3, [r7, #24]
 8006192:	2b00      	cmp	r3, #0
 8006194:	d018      	beq.n	80061c8 <UART_SetConfig+0x4a4>
 8006196:	687b      	ldr	r3, [r7, #4]
 8006198:	685b      	ldr	r3, [r3, #4]
 800619a:	085a      	lsrs	r2, r3, #1
 800619c:	69bb      	ldr	r3, [r7, #24]
 800619e:	441a      	add	r2, r3
 80061a0:	687b      	ldr	r3, [r7, #4]
 80061a2:	685b      	ldr	r3, [r3, #4]
 80061a4:	fbb2 f3f3 	udiv	r3, r2, r3
 80061a8:	613b      	str	r3, [r7, #16]
 80061aa:	693b      	ldr	r3, [r7, #16]
 80061ac:	2b0f      	cmp	r3, #15
 80061ae:	d909      	bls.n	80061c4 <UART_SetConfig+0x4a0>
 80061b0:	693b      	ldr	r3, [r7, #16]
 80061b2:	f5b3 3f80 	cmp.w	r3, #65536	@ 0x10000
 80061b6:	d205      	bcs.n	80061c4 <UART_SetConfig+0x4a0>
 80061b8:	693b      	ldr	r3, [r7, #16]
 80061ba:	b29a      	uxth	r2, r3
 80061bc:	687b      	ldr	r3, [r7, #4]
 80061be:	681b      	ldr	r3, [r3, #0]
 80061c0:	60da      	str	r2, [r3, #12]
 80061c2:	e001      	b.n	80061c8 <UART_SetConfig+0x4a4>
 80061c4:	2301      	movs	r3, #1
 80061c6:	77bb      	strb	r3, [r7, #30]
 80061c8:	687b      	ldr	r3, [r7, #4]
 80061ca:	2200      	movs	r2, #0
 80061cc:	669a      	str	r2, [r3, #104]	@ 0x68
 80061ce:	687b      	ldr	r3, [r7, #4]
 80061d0:	2200      	movs	r2, #0
 80061d2:	66da      	str	r2, [r3, #108]	@ 0x6c
 80061d4:	7fbb      	ldrb	r3, [r7, #30]
 80061d6:	4618      	mov	r0, r3
 80061d8:	3720      	adds	r7, #32
 80061da:	46bd      	mov	sp, r7
 80061dc:	bd80      	pop	{r7, pc}
 80061de:	bf00      	nop
 80061e0:	40007c00 	.word	0x40007c00
 80061e4:	40023800 	.word	0x40023800
 80061e8:	00f42400 	.word	0x00f42400

080061ec <UART_AdvFeatureConfig>:
 80061ec:	b480      	push	{r7}
 80061ee:	b083      	sub	sp, #12
 80061f0:	af00      	add	r7, sp, #0
 80061f2:	6078      	str	r0, [r7, #4]
 80061f4:	687b      	ldr	r3, [r7, #4]
 80061f6:	6a5b      	ldr	r3, [r3, #36]	@ 0x24
 80061f8:	f003 0301 	and.w	r3, r3, #1
 80061fc:	2b00      	cmp	r3, #0
 80061fe:	d00a      	beq.n	8006216 <UART_AdvFeatureConfig+0x2a>
 8006200:	687b      	ldr	r3, [r7, #4]
 8006202:	681b      	ldr	r3, [r3, #0]
 8006204:	685b      	ldr	r3, [r3, #4]
 8006206:	f423 3100 	bic.w	r1, r3, #131072	@ 0x20000
 800620a:	687b      	ldr	r3, [r7, #4]
 800620c:	6a9a      	ldr	r2, [r3, #40]	@ 0x28
 800620e:	687b      	ldr	r3, [r7, #4]
 8006210:	681b      	ldr	r3, [r3, #0]
 8006212:	430a      	orrs	r2, r1
 8006214:	605a      	str	r2, [r3, #4]
 8006216:	687b      	ldr	r3, [r7, #4]
 8006218:	6a5b      	ldr	r3, [r3, #36]	@ 0x24
 800621a:	f003 0302 	and.w	r3, r3, #2
 800621e:	2b00      	cmp	r3, #0
 8006220:	d00a      	beq.n	8006238 <UART_AdvFeatureConfig+0x4c>
 8006222:	687b      	ldr	r3, [r7, #4]
 8006224:	681b      	ldr	r3, [r3, #0]
 8006226:	685b      	ldr	r3, [r3, #4]
 8006228:	f423 3180 	bic.w	r1, r3, #65536	@ 0x10000
 800622c:	687b      	ldr	r3, [r7, #4]
 800622e:	6ada      	ldr	r2, [r3, #44]	@ 0x2c
 8006230:	687b      	ldr	r3, [r7, #4]
 8006232:	681b      	ldr	r3, [r3, #0]
 8006234:	430a      	orrs	r2, r1
 8006236:	605a      	str	r2, [r3, #4]
 8006238:	687b      	ldr	r3, [r7, #4]
 800623a:	6a5b      	ldr	r3, [r3, #36]	@ 0x24
 800623c:	f003 0304 	and.w	r3, r3, #4
 8006240:	2b00      	cmp	r3, #0
 8006242:	d00a      	beq.n	800625a <UART_AdvFeatureConfig+0x6e>
 8006244:	687b      	ldr	r3, [r7, #4]
 8006246:	681b      	ldr	r3, [r3, #0]
 8006248:	685b      	ldr	r3, [r3, #4]
 800624a:	f423 2180 	bic.w	r1, r3, #262144	@ 0x40000
 800624e:	687b      	ldr	r3, [r7, #4]
 8006250:	6b1a      	ldr	r2, [r3, #48]	@ 0x30
 8006252:	687b      	ldr	r3, [r7, #4]
 8006254:	681b      	ldr	r3, [r3, #0]
 8006256:	430a      	orrs	r2, r1
 8006258:	605a      	str	r2, [r3, #4]
 800625a:	687b      	ldr	r3, [r7, #4]
 800625c:	6a5b      	ldr	r3, [r3, #36]	@ 0x24
 800625e:	f003 0308 	and.w	r3, r3, #8
 8006262:	2b00      	cmp	r3, #0
 8006264:	d00a      	beq.n	800627c <UART_AdvFeatureConfig+0x90>
 8006266:	687b      	ldr	r3, [r7, #4]
 8006268:	681b      	ldr	r3, [r3, #0]
 800626a:	685b      	ldr	r3, [r3, #4]
 800626c:	f423 4100 	bic.w	r1, r3, #32768	@ 0x8000
 8006270:	687b      	ldr	r3, [r7, #4]
 8006272:	6b5a      	ldr	r2, [r3, #52]	@ 0x34
 8006274:	687b      	ldr	r3, [r7, #4]
 8006276:	681b      	ldr	r3, [r3, #0]
 8006278:	430a      	orrs	r2, r1
 800627a:	605a      	str	r2, [r3, #4]
 800627c:	687b      	ldr	r3, [r7, #4]
 800627e:	6a5b      	ldr	r3, [r3, #36]	@ 0x24
 8006280:	f003 0310 	and.w	r3, r3, #16
 8006284:	2b00      	cmp	r3, #0
 8006286:	d00a      	beq.n	800629e <UART_AdvFeatureConfig+0xb2>
 8006288:	687b      	ldr	r3, [r7, #4]
 800628a:	681b      	ldr	r3, [r3, #0]
 800628c:	689b      	ldr	r3, [r3, #8]
 800628e:	f423 5180 	bic.w	r1, r3, #4096	@ 0x1000
 8006292:	687b      	ldr	r3, [r7, #4]
 8006294:	6b9a      	ldr	r2, [r3, #56]	@ 0x38
 8006296:	687b      	ldr	r3, [r7, #4]
 8006298:	681b      	ldr	r3, [r3, #0]
 800629a:	430a      	orrs	r2, r1
 800629c:	609a      	str	r2, [r3, #8]
 800629e:	687b      	ldr	r3, [r7, #4]
 80062a0:	6a5b      	ldr	r3, [r3, #36]	@ 0x24
 80062a2:	f003 0320 	and.w	r3, r3, #32
 80062a6:	2b00      	cmp	r3, #0
 80062a8:	d00a      	beq.n	80062c0 <UART_AdvFeatureConfig+0xd4>
 80062aa:	687b      	ldr	r3, [r7, #4]
 80062ac:	681b      	ldr	r3, [r3, #0]
 80062ae:	689b      	ldr	r3, [r3, #8]
 80062b0:	f423 5100 	bic.w	r1, r3, #8192	@ 0x2000
 80062b4:	687b      	ldr	r3, [r7, #4]
 80062b6:	6bda      	ldr	r2, [r3, #60]	@ 0x3c
 80062b8:	687b      	ldr	r3, [r7, #4]
 80062ba:	681b      	ldr	r3, [r3, #0]
 80062bc:	430a      	orrs	r2, r1
 80062be:	609a      	str	r2, [r3, #8]
 80062c0:	687b      	ldr	r3, [r7, #4]
 80062c2:	6a5b      	ldr	r3, [r3, #36]	@ 0x24
 80062c4:	f003 0340 	and.w	r3, r3, #64	@ 0x40
 80062c8:	2b00      	cmp	r3, #0
 80062ca:	d01a      	beq.n	8006302 <UART_AdvFeatureConfig+0x116>
 80062cc:	687b      	ldr	r3, [r7, #4]
 80062ce:	681b      	ldr	r3, [r3, #0]
 80062d0:	685b      	ldr	r3, [r3, #4]
 80062d2:	f423 1180 	bic.w	r1, r3, #1048576	@ 0x100000
 80062d6:	687b      	ldr	r3, [r7, #4]
 80062d8:	6c1a      	ldr	r2, [r3, #64]	@ 0x40
 80062da:	687b      	ldr	r3, [r7, #4]
 80062dc:	681b      	ldr	r3, [r3, #0]
 80062de:	430a      	orrs	r2, r1
 80062e0:	605a      	str	r2, [r3, #4]
 80062e2:	687b      	ldr	r3, [r7, #4]
 80062e4:	6c1b      	ldr	r3, [r3, #64]	@ 0x40
 80062e6:	f5b3 1f80 	cmp.w	r3, #1048576	@ 0x100000
 80062ea:	d10a      	bne.n	8006302 <UART_AdvFeatureConfig+0x116>
 80062ec:	687b      	ldr	r3, [r7, #4]
 80062ee:	681b      	ldr	r3, [r3, #0]
 80062f0:	685b      	ldr	r3, [r3, #4]
 80062f2:	f423 01c0 	bic.w	r1, r3, #6291456	@ 0x600000
 80062f6:	687b      	ldr	r3, [r7, #4]
 80062f8:	6c5a      	ldr	r2, [r3, #68]	@ 0x44
 80062fa:	687b      	ldr	r3, [r7, #4]
 80062fc:	681b      	ldr	r3, [r3, #0]
 80062fe:	430a      	orrs	r2, r1
 8006300:	605a      	str	r2, [r3, #4]
 8006302:	687b      	ldr	r3, [r7, #4]
 8006304:	6a5b      	ldr	r3, [r3, #36]	@ 0x24
 8006306:	f003 0380 	and.w	r3, r3, #128	@ 0x80
 800630a:	2b00      	cmp	r3, #0
 800630c:	d00a      	beq.n	8006324 <UART_AdvFeatureConfig+0x138>
 800630e:	687b      	ldr	r3, [r7, #4]
 8006310:	681b      	ldr	r3, [r3, #0]
 8006312:	685b      	ldr	r3, [r3, #4]
 8006314:	f423 2100 	bic.w	r1, r3, #524288	@ 0x80000
 8006318:	687b      	ldr	r3, [r7, #4]
 800631a:	6c9a      	ldr	r2, [r3, #72]	@ 0x48
 800631c:	687b      	ldr	r3, [r7, #4]
 800631e:	681b      	ldr	r3, [r3, #0]
 8006320:	430a      	orrs	r2, r1
 8006322:	605a      	str	r2, [r3, #4]
 8006324:	bf00      	nop
 8006326:	370c      	adds	r7, #12
 8006328:	46bd      	mov	sp, r7
 800632a:	f85d 7b04 	ldr.w	r7, [sp], #4
 800632e:	4770      	bx	lr

08006330 <UART_CheckIdleState>:
 8006330:	b580      	push	{r7, lr}
 8006332:	b086      	sub	sp, #24
 8006334:	af02      	add	r7, sp, #8
 8006336:	6078      	str	r0, [r7, #4]
 8006338:	687b      	ldr	r3, [r7, #4]
 800633a:	2200      	movs	r2, #0
 800633c:	f8c3 2084 	str.w	r2, [r3, #132]	@ 0x84
 8006340:	f7fc f9fe 	bl	8002740 <HAL_GetTick>
 8006344:	60f8      	str	r0, [r7, #12]
 8006346:	687b      	ldr	r3, [r7, #4]
 8006348:	681b      	ldr	r3, [r3, #0]
 800634a:	681b      	ldr	r3, [r3, #0]
 800634c:	f003 0308 	and.w	r3, r3, #8
 8006350:	2b08      	cmp	r3, #8
 8006352:	d10e      	bne.n	8006372 <UART_CheckIdleState+0x42>
 8006354:	f06f 437e 	mvn.w	r3, #4261412864	@ 0xfe000000
 8006358:	9300      	str	r3, [sp, #0]
 800635a:	68fb      	ldr	r3, [r7, #12]
 800635c:	2200      	movs	r2, #0
 800635e:	f44f 1100 	mov.w	r1, #2097152	@ 0x200000
 8006362:	6878      	ldr	r0, [r7, #4]
 8006364:	f000 f831 	bl	80063ca <UART_WaitOnFlagUntilTimeout>
 8006368:	4603      	mov	r3, r0
 800636a:	2b00      	cmp	r3, #0
 800636c:	d001      	beq.n	8006372 <UART_CheckIdleState+0x42>
 800636e:	2303      	movs	r3, #3
 8006370:	e027      	b.n	80063c2 <UART_CheckIdleState+0x92>
 8006372:	687b      	ldr	r3, [r7, #4]
 8006374:	681b      	ldr	r3, [r3, #0]
 8006376:	681b      	ldr	r3, [r3, #0]
 8006378:	f003 0304 	and.w	r3, r3, #4
 800637c:	2b04      	cmp	r3, #4
 800637e:	d10e      	bne.n	800639e <UART_CheckIdleState+0x6e>
 8006380:	f06f 437e 	mvn.w	r3, #4261412864	@ 0xfe000000
 8006384:	9300      	str	r3, [sp, #0]
 8006386:	68fb      	ldr	r3, [r7, #12]
 8006388:	2200      	movs	r2, #0
 800638a:	f44f 0180 	mov.w	r1, #4194304	@ 0x400000
 800638e:	6878      	ldr	r0, [r7, #4]
 8006390:	f000 f81b 	bl	80063ca <UART_WaitOnFlagUntilTimeout>
 8006394:	4603      	mov	r3, r0
 8006396:	2b00      	cmp	r3, #0
 8006398:	d001      	beq.n	800639e <UART_CheckIdleState+0x6e>
 800639a:	2303      	movs	r3, #3
 800639c:	e011      	b.n	80063c2 <UART_CheckIdleState+0x92>
 800639e:	687b      	ldr	r3, [r7, #4]
 80063a0:	2220      	movs	r2, #32
 80063a2:	67da      	str	r2, [r3, #124]	@ 0x7c
 80063a4:	687b      	ldr	r3, [r7, #4]
 80063a6:	2220      	movs	r2, #32
 80063a8:	f8c3 2080 	str.w	r2, [r3, #128]	@ 0x80
 80063ac:	687b      	ldr	r3, [r7, #4]
 80063ae:	2200      	movs	r2, #0
 80063b0:	661a      	str	r2, [r3, #96]	@ 0x60
 80063b2:	687b      	ldr	r3, [r7, #4]
 80063b4:	2200      	movs	r2, #0
 80063b6:	665a      	str	r2, [r3, #100]	@ 0x64
 80063b8:	687b      	ldr	r3, [r7, #4]
 80063ba:	2200      	movs	r2, #0
 80063bc:	f883 2078 	strb.w	r2, [r3, #120]	@ 0x78
 80063c0:	2300      	movs	r3, #0
 80063c2:	4618      	mov	r0, r3
 80063c4:	3710      	adds	r7, #16
 80063c6:	46bd      	mov	sp, r7
 80063c8:	bd80      	pop	{r7, pc}

080063ca <UART_WaitOnFlagUntilTimeout>:
 80063ca:	b580      	push	{r7, lr}
 80063cc:	b09c      	sub	sp, #112	@ 0x70
 80063ce:	af00      	add	r7, sp, #0
 80063d0:	60f8      	str	r0, [r7, #12]
 80063d2:	60b9      	str	r1, [r7, #8]
 80063d4:	603b      	str	r3, [r7, #0]
 80063d6:	4613      	mov	r3, r2
 80063d8:	71fb      	strb	r3, [r7, #7]
 80063da:	e0a7      	b.n	800652c <UART_WaitOnFlagUntilTimeout+0x162>
 80063dc:	6fbb      	ldr	r3, [r7, #120]	@ 0x78
 80063de:	f1b3 3fff 	cmp.w	r3, #4294967295
 80063e2:	f000 80a3 	beq.w	800652c <UART_WaitOnFlagUntilTimeout+0x162>
 80063e6:	f7fc f9ab 	bl	8002740 <HAL_GetTick>
 80063ea:	4602      	mov	r2, r0
 80063ec:	683b      	ldr	r3, [r7, #0]
 80063ee:	1ad3      	subs	r3, r2, r3
 80063f0:	6fba      	ldr	r2, [r7, #120]	@ 0x78
 80063f2:	429a      	cmp	r2, r3
 80063f4:	d302      	bcc.n	80063fc <UART_WaitOnFlagUntilTimeout+0x32>
 80063f6:	6fbb      	ldr	r3, [r7, #120]	@ 0x78
 80063f8:	2b00      	cmp	r3, #0
 80063fa:	d13f      	bne.n	800647c <UART_WaitOnFlagUntilTimeout+0xb2>
 80063fc:	68fb      	ldr	r3, [r7, #12]
 80063fe:	681b      	ldr	r3, [r3, #0]
 8006400:	653b      	str	r3, [r7, #80]	@ 0x50
 8006402:	6d3b      	ldr	r3, [r7, #80]	@ 0x50
 8006404:	e853 3f00 	ldrex	r3, [r3]
 8006408:	64fb      	str	r3, [r7, #76]	@ 0x4c
 800640a:	6cfb      	ldr	r3, [r7, #76]	@ 0x4c
 800640c:	f423 73d0 	bic.w	r3, r3, #416	@ 0x1a0
 8006410:	667b      	str	r3, [r7, #100]	@ 0x64
 8006412:	68fb      	ldr	r3, [r7, #12]
 8006414:	681b      	ldr	r3, [r3, #0]
 8006416:	461a      	mov	r2, r3
 8006418:	6e7b      	ldr	r3, [r7, #100]	@ 0x64
 800641a:	65fb      	str	r3, [r7, #92]	@ 0x5c
 800641c:	65ba      	str	r2, [r7, #88]	@ 0x58
 800641e:	6db9      	ldr	r1, [r7, #88]	@ 0x58
 8006420:	6dfa      	ldr	r2, [r7, #92]	@ 0x5c
 8006422:	e841 2300 	strex	r3, r2, [r1]
 8006426:	657b      	str	r3, [r7, #84]	@ 0x54
 8006428:	6d7b      	ldr	r3, [r7, #84]	@ 0x54
 800642a:	2b00      	cmp	r3, #0
 800642c:	d1e6      	bne.n	80063fc <UART_WaitOnFlagUntilTimeout+0x32>
 800642e:	68fb      	ldr	r3, [r7, #12]
 8006430:	681b      	ldr	r3, [r3, #0]
 8006432:	3308      	adds	r3, #8
 8006434:	63fb      	str	r3, [r7, #60]	@ 0x3c
 8006436:	6bfb      	ldr	r3, [r7, #60]	@ 0x3c
 8006438:	e853 3f00 	ldrex	r3, [r3]
 800643c:	63bb      	str	r3, [r7, #56]	@ 0x38
 800643e:	6bbb      	ldr	r3, [r7, #56]	@ 0x38
 8006440:	f023 0301 	bic.w	r3, r3, #1
 8006444:	663b      	str	r3, [r7, #96]	@ 0x60
 8006446:	68fb      	ldr	r3, [r7, #12]
 8006448:	681b      	ldr	r3, [r3, #0]
 800644a:	3308      	adds	r3, #8
 800644c:	6e3a      	ldr	r2, [r7, #96]	@ 0x60
 800644e:	64ba      	str	r2, [r7, #72]	@ 0x48
 8006450:	647b      	str	r3, [r7, #68]	@ 0x44
 8006452:	6c79      	ldr	r1, [r7, #68]	@ 0x44
 8006454:	6cba      	ldr	r2, [r7, #72]	@ 0x48
 8006456:	e841 2300 	strex	r3, r2, [r1]
 800645a:	643b      	str	r3, [r7, #64]	@ 0x40
 800645c:	6c3b      	ldr	r3, [r7, #64]	@ 0x40
 800645e:	2b00      	cmp	r3, #0
 8006460:	d1e5      	bne.n	800642e <UART_WaitOnFlagUntilTimeout+0x64>
 8006462:	68fb      	ldr	r3, [r7, #12]
 8006464:	2220      	movs	r2, #32
 8006466:	67da      	str	r2, [r3, #124]	@ 0x7c
 8006468:	68fb      	ldr	r3, [r7, #12]
 800646a:	2220      	movs	r2, #32
 800646c:	f8c3 2080 	str.w	r2, [r3, #128]	@ 0x80
 8006470:	68fb      	ldr	r3, [r7, #12]
 8006472:	2200      	movs	r2, #0
 8006474:	f883 2078 	strb.w	r2, [r3, #120]	@ 0x78
 8006478:	2303      	movs	r3, #3
 800647a:	e068      	b.n	800654e <UART_WaitOnFlagUntilTimeout+0x184>
 800647c:	68fb      	ldr	r3, [r7, #12]
 800647e:	681b      	ldr	r3, [r3, #0]
 8006480:	681b      	ldr	r3, [r3, #0]
 8006482:	f003 0304 	and.w	r3, r3, #4
 8006486:	2b00      	cmp	r3, #0
 8006488:	d050      	beq.n	800652c <UART_WaitOnFlagUntilTimeout+0x162>
 800648a:	68fb      	ldr	r3, [r7, #12]
 800648c:	681b      	ldr	r3, [r3, #0]
 800648e:	69db      	ldr	r3, [r3, #28]
 8006490:	f403 6300 	and.w	r3, r3, #2048	@ 0x800
 8006494:	f5b3 6f00 	cmp.w	r3, #2048	@ 0x800
 8006498:	d148      	bne.n	800652c <UART_WaitOnFlagUntilTimeout+0x162>
 800649a:	68fb      	ldr	r3, [r7, #12]
 800649c:	681b      	ldr	r3, [r3, #0]
 800649e:	f44f 6200 	mov.w	r2, #2048	@ 0x800
 80064a2:	621a      	str	r2, [r3, #32]
 80064a4:	68fb      	ldr	r3, [r7, #12]
 80064a6:	681b      	ldr	r3, [r3, #0]
 80064a8:	62bb      	str	r3, [r7, #40]	@ 0x28
 80064aa:	6abb      	ldr	r3, [r7, #40]	@ 0x28
 80064ac:	e853 3f00 	ldrex	r3, [r3]
 80064b0:	627b      	str	r3, [r7, #36]	@ 0x24
 80064b2:	6a7b      	ldr	r3, [r7, #36]	@ 0x24
 80064b4:	f423 73d0 	bic.w	r3, r3, #416	@ 0x1a0
 80064b8:	66fb      	str	r3, [r7, #108]	@ 0x6c
 80064ba:	68fb      	ldr	r3, [r7, #12]
 80064bc:	681b      	ldr	r3, [r3, #0]
 80064be:	461a      	mov	r2, r3
 80064c0:	6efb      	ldr	r3, [r7, #108]	@ 0x6c
 80064c2:	637b      	str	r3, [r7, #52]	@ 0x34
 80064c4:	633a      	str	r2, [r7, #48]	@ 0x30
 80064c6:	6b39      	ldr	r1, [r7, #48]	@ 0x30
 80064c8:	6b7a      	ldr	r2, [r7, #52]	@ 0x34
 80064ca:	e841 2300 	strex	r3, r2, [r1]
 80064ce:	62fb      	str	r3, [r7, #44]	@ 0x2c
 80064d0:	6afb      	ldr	r3, [r7, #44]	@ 0x2c
 80064d2:	2b00      	cmp	r3, #0
 80064d4:	d1e6      	bne.n	80064a4 <UART_WaitOnFlagUntilTimeout+0xda>
 80064d6:	68fb      	ldr	r3, [r7, #12]
 80064d8:	681b      	ldr	r3, [r3, #0]
 80064da:	3308      	adds	r3, #8
 80064dc:	617b      	str	r3, [r7, #20]
 80064de:	697b      	ldr	r3, [r7, #20]
 80064e0:	e853 3f00 	ldrex	r3, [r3]
 80064e4:	613b      	str	r3, [r7, #16]
 80064e6:	693b      	ldr	r3, [r7, #16]
 80064e8:	f023 0301 	bic.w	r3, r3, #1
 80064ec:	66bb      	str	r3, [r7, #104]	@ 0x68
 80064ee:	68fb      	ldr	r3, [r7, #12]
 80064f0:	681b      	ldr	r3, [r3, #0]
 80064f2:	3308      	adds	r3, #8
 80064f4:	6eba      	ldr	r2, [r7, #104]	@ 0x68
 80064f6:	623a      	str	r2, [r7, #32]
 80064f8:	61fb      	str	r3, [r7, #28]
 80064fa:	69f9      	ldr	r1, [r7, #28]
 80064fc:	6a3a      	ldr	r2, [r7, #32]
 80064fe:	e841 2300 	strex	r3, r2, [r1]
 8006502:	61bb      	str	r3, [r7, #24]
 8006504:	69bb      	ldr	r3, [r7, #24]
 8006506:	2b00      	cmp	r3, #0
 8006508:	d1e5      	bne.n	80064d6 <UART_WaitOnFlagUntilTimeout+0x10c>
 800650a:	68fb      	ldr	r3, [r7, #12]
 800650c:	2220      	movs	r2, #32
 800650e:	67da      	str	r2, [r3, #124]	@ 0x7c
 8006510:	68fb      	ldr	r3, [r7, #12]
 8006512:	2220      	movs	r2, #32
 8006514:	f8c3 2080 	str.w	r2, [r3, #128]	@ 0x80
 8006518:	68fb      	ldr	r3, [r7, #12]
 800651a:	2220      	movs	r2, #32
 800651c:	f8c3 2084 	str.w	r2, [r3, #132]	@ 0x84
 8006520:	68fb      	ldr	r3, [r7, #12]
 8006522:	2200      	movs	r2, #0
 8006524:	f883 2078 	strb.w	r2, [r3, #120]	@ 0x78
 8006528:	2303      	movs	r3, #3
 800652a:	e010      	b.n	800654e <UART_WaitOnFlagUntilTimeout+0x184>
 800652c:	68fb      	ldr	r3, [r7, #12]
 800652e:	681b      	ldr	r3, [r3, #0]
 8006530:	69da      	ldr	r2, [r3, #28]
 8006532:	68bb      	ldr	r3, [r7, #8]
 8006534:	4013      	ands	r3, r2
 8006536:	68ba      	ldr	r2, [r7, #8]
 8006538:	429a      	cmp	r2, r3
 800653a:	bf0c      	ite	eq
 800653c:	2301      	moveq	r3, #1
 800653e:	2300      	movne	r3, #0
 8006540:	b2db      	uxtb	r3, r3
 8006542:	461a      	mov	r2, r3
 8006544:	79fb      	ldrb	r3, [r7, #7]
 8006546:	429a      	cmp	r2, r3
 8006548:	f43f af48 	beq.w	80063dc <UART_WaitOnFlagUntilTimeout+0x12>
 800654c:	2300      	movs	r3, #0
 800654e:	4618      	mov	r0, r3
 8006550:	3770      	adds	r7, #112	@ 0x70
 8006552:	46bd      	mov	sp, r7
 8006554:	bd80      	pop	{r7, pc}

08006556 <_vsniprintf_r>:
 8006556:	b530      	push	{r4, r5, lr}
 8006558:	4614      	mov	r4, r2
 800655a:	2c00      	cmp	r4, #0
 800655c:	b09b      	sub	sp, #108	@ 0x6c
 800655e:	4605      	mov	r5, r0
 8006560:	461a      	mov	r2, r3
 8006562:	da05      	bge.n	8006570 <_vsniprintf_r+0x1a>
 8006564:	238b      	movs	r3, #139	@ 0x8b
 8006566:	6003      	str	r3, [r0, #0]
 8006568:	f04f 30ff 	mov.w	r0, #4294967295
 800656c:	b01b      	add	sp, #108	@ 0x6c
 800656e:	bd30      	pop	{r4, r5, pc}
 8006570:	f44f 7302 	mov.w	r3, #520	@ 0x208
 8006574:	f8ad 300c 	strh.w	r3, [sp, #12]
 8006578:	f04f 0300 	mov.w	r3, #0
 800657c:	9319      	str	r3, [sp, #100]	@ 0x64
 800657e:	bf14      	ite	ne
 8006580:	f104 33ff 	addne.w	r3, r4, #4294967295
 8006584:	4623      	moveq	r3, r4
 8006586:	9302      	str	r3, [sp, #8]
 8006588:	9305      	str	r3, [sp, #20]
 800658a:	f64f 73ff 	movw	r3, #65535	@ 0xffff
 800658e:	9100      	str	r1, [sp, #0]
 8006590:	9104      	str	r1, [sp, #16]
 8006592:	f8ad 300e 	strh.w	r3, [sp, #14]
 8006596:	4669      	mov	r1, sp
 8006598:	9b1e      	ldr	r3, [sp, #120]	@ 0x78
 800659a:	f000 f9a1 	bl	80068e0 <_svfiprintf_r>
 800659e:	1c43      	adds	r3, r0, #1
 80065a0:	bfbc      	itt	lt
 80065a2:	238b      	movlt	r3, #139	@ 0x8b
 80065a4:	602b      	strlt	r3, [r5, #0]
 80065a6:	2c00      	cmp	r4, #0
 80065a8:	d0e0      	beq.n	800656c <_vsniprintf_r+0x16>
 80065aa:	9b00      	ldr	r3, [sp, #0]
 80065ac:	2200      	movs	r2, #0
 80065ae:	701a      	strb	r2, [r3, #0]
 80065b0:	e7dc      	b.n	800656c <_vsniprintf_r+0x16>
	...

080065b4 <vsniprintf>:
 80065b4:	b507      	push	{r0, r1, r2, lr}
 80065b6:	9300      	str	r3, [sp, #0]
 80065b8:	4613      	mov	r3, r2
 80065ba:	460a      	mov	r2, r1
 80065bc:	4601      	mov	r1, r0
 80065be:	4803      	ldr	r0, [pc, #12]	@ (80065cc <vsniprintf+0x18>)
 80065c0:	6800      	ldr	r0, [r0, #0]
 80065c2:	f7ff ffc8 	bl	8006556 <_vsniprintf_r>
 80065c6:	b003      	add	sp, #12
 80065c8:	f85d fb04 	ldr.w	pc, [sp], #4
 80065cc:	20000020 	.word	0x20000020

080065d0 <memset>:
 80065d0:	4402      	add	r2, r0
 80065d2:	4603      	mov	r3, r0
 80065d4:	4293      	cmp	r3, r2
 80065d6:	d100      	bne.n	80065da <memset+0xa>
 80065d8:	4770      	bx	lr
 80065da:	f803 1b01 	strb.w	r1, [r3], #1
 80065de:	e7f9      	b.n	80065d4 <memset+0x4>

080065e0 <__errno>:
 80065e0:	4b01      	ldr	r3, [pc, #4]	@ (80065e8 <__errno+0x8>)
 80065e2:	6818      	ldr	r0, [r3, #0]
 80065e4:	4770      	bx	lr
 80065e6:	bf00      	nop
 80065e8:	20000020 	.word	0x20000020

080065ec <__libc_init_array>:
 80065ec:	b570      	push	{r4, r5, r6, lr}
 80065ee:	4d0d      	ldr	r5, [pc, #52]	@ (8006624 <__libc_init_array+0x38>)
 80065f0:	4c0d      	ldr	r4, [pc, #52]	@ (8006628 <__libc_init_array+0x3c>)
 80065f2:	1b64      	subs	r4, r4, r5
 80065f4:	10a4      	asrs	r4, r4, #2
 80065f6:	2600      	movs	r6, #0
 80065f8:	42a6      	cmp	r6, r4
 80065fa:	d109      	bne.n	8006610 <__libc_init_array+0x24>
 80065fc:	4d0b      	ldr	r5, [pc, #44]	@ (800662c <__libc_init_array+0x40>)
 80065fe:	4c0c      	ldr	r4, [pc, #48]	@ (8006630 <__libc_init_array+0x44>)
 8006600:	f000 fc64 	bl	8006ecc <_init>
 8006604:	1b64      	subs	r4, r4, r5
 8006606:	10a4      	asrs	r4, r4, #2
 8006608:	2600      	movs	r6, #0
 800660a:	42a6      	cmp	r6, r4
 800660c:	d105      	bne.n	800661a <__libc_init_array+0x2e>
 800660e:	bd70      	pop	{r4, r5, r6, pc}
 8006610:	f855 3b04 	ldr.w	r3, [r5], #4
 8006614:	4798      	blx	r3
 8006616:	3601      	adds	r6, #1
 8006618:	e7ee      	b.n	80065f8 <__libc_init_array+0xc>
 800661a:	f855 3b04 	ldr.w	r3, [r5], #4
 800661e:	4798      	blx	r3
 8006620:	3601      	adds	r6, #1
 8006622:	e7f2      	b.n	800660a <__libc_init_array+0x1e>
 8006624:	08007fa0 	.word	0x08007fa0
 8006628:	08007fa0 	.word	0x08007fa0
 800662c:	08007fa0 	.word	0x08007fa0
 8006630:	08007fa4 	.word	0x08007fa4

08006634 <__retarget_lock_acquire_recursive>:
 8006634:	4770      	bx	lr

08006636 <__retarget_lock_release_recursive>:
 8006636:	4770      	bx	lr

08006638 <_free_r>:
 8006638:	b538      	push	{r3, r4, r5, lr}
 800663a:	4605      	mov	r5, r0
 800663c:	2900      	cmp	r1, #0
 800663e:	d041      	beq.n	80066c4 <_free_r+0x8c>
 8006640:	f851 3c04 	ldr.w	r3, [r1, #-4]
 8006644:	1f0c      	subs	r4, r1, #4
 8006646:	2b00      	cmp	r3, #0
 8006648:	bfb8      	it	lt
 800664a:	18e4      	addlt	r4, r4, r3
 800664c:	f000 f8e0 	bl	8006810 <__malloc_lock>
 8006650:	4a1d      	ldr	r2, [pc, #116]	@ (80066c8 <_free_r+0x90>)
 8006652:	6813      	ldr	r3, [r2, #0]
 8006654:	b933      	cbnz	r3, 8006664 <_free_r+0x2c>
 8006656:	6063      	str	r3, [r4, #4]
 8006658:	6014      	str	r4, [r2, #0]
 800665a:	4628      	mov	r0, r5
 800665c:	e8bd 4038 	ldmia.w	sp!, {r3, r4, r5, lr}
 8006660:	f000 b8dc 	b.w	800681c <__malloc_unlock>
 8006664:	42a3      	cmp	r3, r4
 8006666:	d908      	bls.n	800667a <_free_r+0x42>
 8006668:	6820      	ldr	r0, [r4, #0]
 800666a:	1821      	adds	r1, r4, r0
 800666c:	428b      	cmp	r3, r1
 800666e:	bf01      	itttt	eq
 8006670:	6819      	ldreq	r1, [r3, #0]
 8006672:	685b      	ldreq	r3, [r3, #4]
 8006674:	1809      	addeq	r1, r1, r0
 8006676:	6021      	streq	r1, [r4, #0]
 8006678:	e7ed      	b.n	8006656 <_free_r+0x1e>
 800667a:	461a      	mov	r2, r3
 800667c:	685b      	ldr	r3, [r3, #4]
 800667e:	b10b      	cbz	r3, 8006684 <_free_r+0x4c>
 8006680:	42a3      	cmp	r3, r4
 8006682:	d9fa      	bls.n	800667a <_free_r+0x42>
 8006684:	6811      	ldr	r1, [r2, #0]
 8006686:	1850      	adds	r0, r2, r1
 8006688:	42a0      	cmp	r0, r4
 800668a:	d10b      	bne.n	80066a4 <_free_r+0x6c>
 800668c:	6820      	ldr	r0, [r4, #0]
 800668e:	4401      	add	r1, r0
 8006690:	1850      	adds	r0, r2, r1
 8006692:	4283      	cmp	r3, r0
 8006694:	6011      	str	r1, [r2, #0]
 8006696:	d1e0      	bne.n	800665a <_free_r+0x22>
 8006698:	6818      	ldr	r0, [r3, #0]
 800669a:	685b      	ldr	r3, [r3, #4]
 800669c:	6053      	str	r3, [r2, #4]
 800669e:	4408      	add	r0, r1
 80066a0:	6010      	str	r0, [r2, #0]
 80066a2:	e7da      	b.n	800665a <_free_r+0x22>
 80066a4:	d902      	bls.n	80066ac <_free_r+0x74>
 80066a6:	230c      	movs	r3, #12
 80066a8:	602b      	str	r3, [r5, #0]
 80066aa:	e7d6      	b.n	800665a <_free_r+0x22>
 80066ac:	6820      	ldr	r0, [r4, #0]
 80066ae:	1821      	adds	r1, r4, r0
 80066b0:	428b      	cmp	r3, r1
 80066b2:	bf04      	itt	eq
 80066b4:	6819      	ldreq	r1, [r3, #0]
 80066b6:	685b      	ldreq	r3, [r3, #4]
 80066b8:	6063      	str	r3, [r4, #4]
 80066ba:	bf04      	itt	eq
 80066bc:	1809      	addeq	r1, r1, r0
 80066be:	6021      	streq	r1, [r4, #0]
 80066c0:	6054      	str	r4, [r2, #4]
 80066c2:	e7ca      	b.n	800665a <_free_r+0x22>
 80066c4:	bd38      	pop	{r3, r4, r5, pc}
 80066c6:	bf00      	nop
 80066c8:	20000394 	.word	0x20000394

080066cc <sbrk_aligned>:
 80066cc:	b570      	push	{r4, r5, r6, lr}
 80066ce:	4e0f      	ldr	r6, [pc, #60]	@ (800670c <sbrk_aligned+0x40>)
 80066d0:	460c      	mov	r4, r1
 80066d2:	6831      	ldr	r1, [r6, #0]
 80066d4:	4605      	mov	r5, r0
 80066d6:	b911      	cbnz	r1, 80066de <sbrk_aligned+0x12>
 80066d8:	f000 fba4 	bl	8006e24 <_sbrk_r>
 80066dc:	6030      	str	r0, [r6, #0]
 80066de:	4621      	mov	r1, r4
 80066e0:	4628      	mov	r0, r5
 80066e2:	f000 fb9f 	bl	8006e24 <_sbrk_r>
 80066e6:	1c43      	adds	r3, r0, #1
 80066e8:	d103      	bne.n	80066f2 <sbrk_aligned+0x26>
 80066ea:	f04f 34ff 	mov.w	r4, #4294967295
 80066ee:	4620      	mov	r0, r4
 80066f0:	bd70      	pop	{r4, r5, r6, pc}
 80066f2:	1cc4      	adds	r4, r0, #3
 80066f4:	f024 0403 	bic.w	r4, r4, #3
 80066f8:	42a0      	cmp	r0, r4
 80066fa:	d0f8      	beq.n	80066ee <sbrk_aligned+0x22>
 80066fc:	1a21      	subs	r1, r4, r0
 80066fe:	4628      	mov	r0, r5
 8006700:	f000 fb90 	bl	8006e24 <_sbrk_r>
 8006704:	3001      	adds	r0, #1
 8006706:	d1f2      	bne.n	80066ee <sbrk_aligned+0x22>
 8006708:	e7ef      	b.n	80066ea <sbrk_aligned+0x1e>
 800670a:	bf00      	nop
 800670c:	20000390 	.word	0x20000390

08006710 <_malloc_r>:
 8006710:	e92d 43f8 	stmdb	sp!, {r3, r4, r5, r6, r7, r8, r9, lr}
 8006714:	1ccd      	adds	r5, r1, #3
 8006716:	f025 0503 	bic.w	r5, r5, #3
 800671a:	3508      	adds	r5, #8
 800671c:	2d0c      	cmp	r5, #12
 800671e:	bf38      	it	cc
 8006720:	250c      	movcc	r5, #12
 8006722:	2d00      	cmp	r5, #0
 8006724:	4606      	mov	r6, r0
 8006726:	db01      	blt.n	800672c <_malloc_r+0x1c>
 8006728:	42a9      	cmp	r1, r5
 800672a:	d904      	bls.n	8006736 <_malloc_r+0x26>
 800672c:	230c      	movs	r3, #12
 800672e:	6033      	str	r3, [r6, #0]
 8006730:	2000      	movs	r0, #0
 8006732:	e8bd 83f8 	ldmia.w	sp!, {r3, r4, r5, r6, r7, r8, r9, pc}
 8006736:	f8df 80d4 	ldr.w	r8, [pc, #212]	@ 800680c <_malloc_r+0xfc>
 800673a:	f000 f869 	bl	8006810 <__malloc_lock>
 800673e:	f8d8 3000 	ldr.w	r3, [r8]
 8006742:	461c      	mov	r4, r3
 8006744:	bb44      	cbnz	r4, 8006798 <_malloc_r+0x88>
 8006746:	4629      	mov	r1, r5
 8006748:	4630      	mov	r0, r6
 800674a:	f7ff ffbf 	bl	80066cc <sbrk_aligned>
 800674e:	1c43      	adds	r3, r0, #1
 8006750:	4604      	mov	r4, r0
 8006752:	d158      	bne.n	8006806 <_malloc_r+0xf6>
 8006754:	f8d8 4000 	ldr.w	r4, [r8]
 8006758:	4627      	mov	r7, r4
 800675a:	2f00      	cmp	r7, #0
 800675c:	d143      	bne.n	80067e6 <_malloc_r+0xd6>
 800675e:	2c00      	cmp	r4, #0
 8006760:	d04b      	beq.n	80067fa <_malloc_r+0xea>
 8006762:	6823      	ldr	r3, [r4, #0]
 8006764:	4639      	mov	r1, r7
 8006766:	4630      	mov	r0, r6
 8006768:	eb04 0903 	add.w	r9, r4, r3
 800676c:	f000 fb5a 	bl	8006e24 <_sbrk_r>
 8006770:	4581      	cmp	r9, r0
 8006772:	d142      	bne.n	80067fa <_malloc_r+0xea>
 8006774:	6821      	ldr	r1, [r4, #0]
 8006776:	1a6d      	subs	r5, r5, r1
 8006778:	4629      	mov	r1, r5
 800677a:	4630      	mov	r0, r6
 800677c:	f7ff ffa6 	bl	80066cc <sbrk_aligned>
 8006780:	3001      	adds	r0, #1
 8006782:	d03a      	beq.n	80067fa <_malloc_r+0xea>
 8006784:	6823      	ldr	r3, [r4, #0]
 8006786:	442b      	add	r3, r5
 8006788:	6023      	str	r3, [r4, #0]
 800678a:	f8d8 3000 	ldr.w	r3, [r8]
 800678e:	685a      	ldr	r2, [r3, #4]
 8006790:	bb62      	cbnz	r2, 80067ec <_malloc_r+0xdc>
 8006792:	f8c8 7000 	str.w	r7, [r8]
 8006796:	e00f      	b.n	80067b8 <_malloc_r+0xa8>
 8006798:	6822      	ldr	r2, [r4, #0]
 800679a:	1b52      	subs	r2, r2, r5
 800679c:	d420      	bmi.n	80067e0 <_malloc_r+0xd0>
 800679e:	2a0b      	cmp	r2, #11
 80067a0:	d917      	bls.n	80067d2 <_malloc_r+0xc2>
 80067a2:	1961      	adds	r1, r4, r5
 80067a4:	42a3      	cmp	r3, r4
 80067a6:	6025      	str	r5, [r4, #0]
 80067a8:	bf18      	it	ne
 80067aa:	6059      	strne	r1, [r3, #4]
 80067ac:	6863      	ldr	r3, [r4, #4]
 80067ae:	bf08      	it	eq
 80067b0:	f8c8 1000 	streq.w	r1, [r8]
 80067b4:	5162      	str	r2, [r4, r5]
 80067b6:	604b      	str	r3, [r1, #4]
 80067b8:	4630      	mov	r0, r6
 80067ba:	f000 f82f 	bl	800681c <__malloc_unlock>
 80067be:	f104 000b 	add.w	r0, r4, #11
 80067c2:	1d23      	adds	r3, r4, #4
 80067c4:	f020 0007 	bic.w	r0, r0, #7
 80067c8:	1ac2      	subs	r2, r0, r3
 80067ca:	bf1c      	itt	ne
 80067cc:	1a1b      	subne	r3, r3, r0
 80067ce:	50a3      	strne	r3, [r4, r2]
 80067d0:	e7af      	b.n	8006732 <_malloc_r+0x22>
 80067d2:	6862      	ldr	r2, [r4, #4]
 80067d4:	42a3      	cmp	r3, r4
 80067d6:	bf0c      	ite	eq
 80067d8:	f8c8 2000 	streq.w	r2, [r8]
 80067dc:	605a      	strne	r2, [r3, #4]
 80067de:	e7eb      	b.n	80067b8 <_malloc_r+0xa8>
 80067e0:	4623      	mov	r3, r4
 80067e2:	6864      	ldr	r4, [r4, #4]
 80067e4:	e7ae      	b.n	8006744 <_malloc_r+0x34>
 80067e6:	463c      	mov	r4, r7
 80067e8:	687f      	ldr	r7, [r7, #4]
 80067ea:	e7b6      	b.n	800675a <_malloc_r+0x4a>
 80067ec:	461a      	mov	r2, r3
 80067ee:	685b      	ldr	r3, [r3, #4]
 80067f0:	42a3      	cmp	r3, r4
 80067f2:	d1fb      	bne.n	80067ec <_malloc_r+0xdc>
 80067f4:	2300      	movs	r3, #0
 80067f6:	6053      	str	r3, [r2, #4]
 80067f8:	e7de      	b.n	80067b8 <_malloc_r+0xa8>
 80067fa:	230c      	movs	r3, #12
 80067fc:	6033      	str	r3, [r6, #0]
 80067fe:	4630      	mov	r0, r6
 8006800:	f000 f80c 	bl	800681c <__malloc_unlock>
 8006804:	e794      	b.n	8006730 <_malloc_r+0x20>
 8006806:	6005      	str	r5, [r0, #0]
 8006808:	e7d6      	b.n	80067b8 <_malloc_r+0xa8>
 800680a:	bf00      	nop
 800680c:	20000394 	.word	0x20000394

08006810 <__malloc_lock>:
 8006810:	4801      	ldr	r0, [pc, #4]	@ (8006818 <__malloc_lock+0x8>)
 8006812:	f7ff bf0f 	b.w	8006634 <__retarget_lock_acquire_recursive>
 8006816:	bf00      	nop
 8006818:	2000038c 	.word	0x2000038c

0800681c <__malloc_unlock>:
 800681c:	4801      	ldr	r0, [pc, #4]	@ (8006824 <__malloc_unlock+0x8>)
 800681e:	f7ff bf0a 	b.w	8006636 <__retarget_lock_release_recursive>
 8006822:	bf00      	nop
 8006824:	2000038c 	.word	0x2000038c

08006828 <__ssputs_r>:
 8006828:	e92d 47f0 	stmdb	sp!, {r4, r5, r6, r7, r8, r9, sl, lr}
 800682c:	688e      	ldr	r6, [r1, #8]
 800682e:	461f      	mov	r7, r3
 8006830:	42be      	cmp	r6, r7
 8006832:	680b      	ldr	r3, [r1, #0]
 8006834:	4682      	mov	sl, r0
 8006836:	460c      	mov	r4, r1
 8006838:	4690      	mov	r8, r2
 800683a:	d82d      	bhi.n	8006898 <__ssputs_r+0x70>
 800683c:	f9b1 200c 	ldrsh.w	r2, [r1, #12]
 8006840:	f412 6f90 	tst.w	r2, #1152	@ 0x480
 8006844:	d026      	beq.n	8006894 <__ssputs_r+0x6c>
 8006846:	6965      	ldr	r5, [r4, #20]
 8006848:	6909      	ldr	r1, [r1, #16]
 800684a:	eb05 0545 	add.w	r5, r5, r5, lsl #1
 800684e:	eba3 0901 	sub.w	r9, r3, r1
 8006852:	eb05 75d5 	add.w	r5, r5, r5, lsr #31
 8006856:	1c7b      	adds	r3, r7, #1
 8006858:	444b      	add	r3, r9
 800685a:	106d      	asrs	r5, r5, #1
 800685c:	429d      	cmp	r5, r3
 800685e:	bf38      	it	cc
 8006860:	461d      	movcc	r5, r3
 8006862:	0553      	lsls	r3, r2, #21
 8006864:	d527      	bpl.n	80068b6 <__ssputs_r+0x8e>
 8006866:	4629      	mov	r1, r5
 8006868:	f7ff ff52 	bl	8006710 <_malloc_r>
 800686c:	4606      	mov	r6, r0
 800686e:	b360      	cbz	r0, 80068ca <__ssputs_r+0xa2>
 8006870:	6921      	ldr	r1, [r4, #16]
 8006872:	464a      	mov	r2, r9
 8006874:	f000 fae6 	bl	8006e44 <memcpy>
 8006878:	89a3      	ldrh	r3, [r4, #12]
 800687a:	f423 6390 	bic.w	r3, r3, #1152	@ 0x480
 800687e:	f043 0380 	orr.w	r3, r3, #128	@ 0x80
 8006882:	81a3      	strh	r3, [r4, #12]
 8006884:	6126      	str	r6, [r4, #16]
 8006886:	6165      	str	r5, [r4, #20]
 8006888:	444e      	add	r6, r9
 800688a:	eba5 0509 	sub.w	r5, r5, r9
 800688e:	6026      	str	r6, [r4, #0]
 8006890:	60a5      	str	r5, [r4, #8]
 8006892:	463e      	mov	r6, r7
 8006894:	42be      	cmp	r6, r7
 8006896:	d900      	bls.n	800689a <__ssputs_r+0x72>
 8006898:	463e      	mov	r6, r7
 800689a:	6820      	ldr	r0, [r4, #0]
 800689c:	4632      	mov	r2, r6
 800689e:	4641      	mov	r1, r8
 80068a0:	f000 faa6 	bl	8006df0 <memmove>
 80068a4:	68a3      	ldr	r3, [r4, #8]
 80068a6:	1b9b      	subs	r3, r3, r6
 80068a8:	60a3      	str	r3, [r4, #8]
 80068aa:	6823      	ldr	r3, [r4, #0]
 80068ac:	4433      	add	r3, r6
 80068ae:	6023      	str	r3, [r4, #0]
 80068b0:	2000      	movs	r0, #0
 80068b2:	e8bd 87f0 	ldmia.w	sp!, {r4, r5, r6, r7, r8, r9, sl, pc}
 80068b6:	462a      	mov	r2, r5
 80068b8:	f000 fad2 	bl	8006e60 <_realloc_r>
 80068bc:	4606      	mov	r6, r0
 80068be:	2800      	cmp	r0, #0
 80068c0:	d1e0      	bne.n	8006884 <__ssputs_r+0x5c>
 80068c2:	6921      	ldr	r1, [r4, #16]
 80068c4:	4650      	mov	r0, sl
 80068c6:	f7ff feb7 	bl	8006638 <_free_r>
 80068ca:	230c      	movs	r3, #12
 80068cc:	f8ca 3000 	str.w	r3, [sl]
 80068d0:	89a3      	ldrh	r3, [r4, #12]
 80068d2:	f043 0340 	orr.w	r3, r3, #64	@ 0x40
 80068d6:	81a3      	strh	r3, [r4, #12]
 80068d8:	f04f 30ff 	mov.w	r0, #4294967295
 80068dc:	e7e9      	b.n	80068b2 <__ssputs_r+0x8a>
	...

080068e0 <_svfiprintf_r>:
 80068e0:	e92d 4ff0 	stmdb	sp!, {r4, r5, r6, r7, r8, r9, sl, fp, lr}
 80068e4:	4698      	mov	r8, r3
 80068e6:	898b      	ldrh	r3, [r1, #12]
 80068e8:	061b      	lsls	r3, r3, #24
 80068ea:	b09d      	sub	sp, #116	@ 0x74
 80068ec:	4607      	mov	r7, r0
 80068ee:	460d      	mov	r5, r1
 80068f0:	4614      	mov	r4, r2
 80068f2:	d510      	bpl.n	8006916 <_svfiprintf_r+0x36>
 80068f4:	690b      	ldr	r3, [r1, #16]
 80068f6:	b973      	cbnz	r3, 8006916 <_svfiprintf_r+0x36>
 80068f8:	2140      	movs	r1, #64	@ 0x40
 80068fa:	f7ff ff09 	bl	8006710 <_malloc_r>
 80068fe:	6028      	str	r0, [r5, #0]
 8006900:	6128      	str	r0, [r5, #16]
 8006902:	b930      	cbnz	r0, 8006912 <_svfiprintf_r+0x32>
 8006904:	230c      	movs	r3, #12
 8006906:	603b      	str	r3, [r7, #0]
 8006908:	f04f 30ff 	mov.w	r0, #4294967295
 800690c:	b01d      	add	sp, #116	@ 0x74
 800690e:	e8bd 8ff0 	ldmia.w	sp!, {r4, r5, r6, r7, r8, r9, sl, fp, pc}
 8006912:	2340      	movs	r3, #64	@ 0x40
 8006914:	616b      	str	r3, [r5, #20]
 8006916:	2300      	movs	r3, #0
 8006918:	9309      	str	r3, [sp, #36]	@ 0x24
 800691a:	2320      	movs	r3, #32
 800691c:	f88d 3029 	strb.w	r3, [sp, #41]	@ 0x29
 8006920:	f8cd 800c 	str.w	r8, [sp, #12]
 8006924:	2330      	movs	r3, #48	@ 0x30
 8006926:	f8df 819c 	ldr.w	r8, [pc, #412]	@ 8006ac4 <_svfiprintf_r+0x1e4>
 800692a:	f88d 302a 	strb.w	r3, [sp, #42]	@ 0x2a
 800692e:	f04f 0901 	mov.w	r9, #1
 8006932:	4623      	mov	r3, r4
 8006934:	469a      	mov	sl, r3
 8006936:	f813 2b01 	ldrb.w	r2, [r3], #1
 800693a:	b10a      	cbz	r2, 8006940 <_svfiprintf_r+0x60>
 800693c:	2a25      	cmp	r2, #37	@ 0x25
 800693e:	d1f9      	bne.n	8006934 <_svfiprintf_r+0x54>
 8006940:	ebba 0b04 	subs.w	fp, sl, r4
 8006944:	d00b      	beq.n	800695e <_svfiprintf_r+0x7e>
 8006946:	465b      	mov	r3, fp
 8006948:	4622      	mov	r2, r4
 800694a:	4629      	mov	r1, r5
 800694c:	4638      	mov	r0, r7
 800694e:	f7ff ff6b 	bl	8006828 <__ssputs_r>
 8006952:	3001      	adds	r0, #1
 8006954:	f000 80a7 	beq.w	8006aa6 <_svfiprintf_r+0x1c6>
 8006958:	9a09      	ldr	r2, [sp, #36]	@ 0x24
 800695a:	445a      	add	r2, fp
 800695c:	9209      	str	r2, [sp, #36]	@ 0x24
 800695e:	f89a 3000 	ldrb.w	r3, [sl]
 8006962:	2b00      	cmp	r3, #0
 8006964:	f000 809f 	beq.w	8006aa6 <_svfiprintf_r+0x1c6>
 8006968:	2300      	movs	r3, #0
 800696a:	f04f 32ff 	mov.w	r2, #4294967295
 800696e:	e9cd 2305 	strd	r2, r3, [sp, #20]
 8006972:	f10a 0a01 	add.w	sl, sl, #1
 8006976:	9304      	str	r3, [sp, #16]
 8006978:	9307      	str	r3, [sp, #28]
 800697a:	f88d 3053 	strb.w	r3, [sp, #83]	@ 0x53
 800697e:	931a      	str	r3, [sp, #104]	@ 0x68
 8006980:	4654      	mov	r4, sl
 8006982:	2205      	movs	r2, #5
 8006984:	f814 1b01 	ldrb.w	r1, [r4], #1
 8006988:	484e      	ldr	r0, [pc, #312]	@ (8006ac4 <_svfiprintf_r+0x1e4>)
 800698a:	f7f9 fc61 	bl	8000250 <memchr>
 800698e:	9a04      	ldr	r2, [sp, #16]
 8006990:	b9d8      	cbnz	r0, 80069ca <_svfiprintf_r+0xea>
 8006992:	06d0      	lsls	r0, r2, #27
 8006994:	bf44      	itt	mi
 8006996:	2320      	movmi	r3, #32
 8006998:	f88d 3053 	strbmi.w	r3, [sp, #83]	@ 0x53
 800699c:	0711      	lsls	r1, r2, #28
 800699e:	bf44      	itt	mi
 80069a0:	232b      	movmi	r3, #43	@ 0x2b
 80069a2:	f88d 3053 	strbmi.w	r3, [sp, #83]	@ 0x53
 80069a6:	f89a 3000 	ldrb.w	r3, [sl]
 80069aa:	2b2a      	cmp	r3, #42	@ 0x2a
 80069ac:	d015      	beq.n	80069da <_svfiprintf_r+0xfa>
 80069ae:	9a07      	ldr	r2, [sp, #28]
 80069b0:	4654      	mov	r4, sl
 80069b2:	2000      	movs	r0, #0
 80069b4:	f04f 0c0a 	mov.w	ip, #10
 80069b8:	4621      	mov	r1, r4
 80069ba:	f811 3b01 	ldrb.w	r3, [r1], #1
 80069be:	3b30      	subs	r3, #48	@ 0x30
 80069c0:	2b09      	cmp	r3, #9
 80069c2:	d94b      	bls.n	8006a5c <_svfiprintf_r+0x17c>
 80069c4:	b1b0      	cbz	r0, 80069f4 <_svfiprintf_r+0x114>
 80069c6:	9207      	str	r2, [sp, #28]
 80069c8:	e014      	b.n	80069f4 <_svfiprintf_r+0x114>
 80069ca:	eba0 0308 	sub.w	r3, r0, r8
 80069ce:	fa09 f303 	lsl.w	r3, r9, r3
 80069d2:	4313      	orrs	r3, r2
 80069d4:	9304      	str	r3, [sp, #16]
 80069d6:	46a2      	mov	sl, r4
 80069d8:	e7d2      	b.n	8006980 <_svfiprintf_r+0xa0>
 80069da:	9b03      	ldr	r3, [sp, #12]
 80069dc:	1d19      	adds	r1, r3, #4
 80069de:	681b      	ldr	r3, [r3, #0]
 80069e0:	9103      	str	r1, [sp, #12]
 80069e2:	2b00      	cmp	r3, #0
 80069e4:	bfbb      	ittet	lt
 80069e6:	425b      	neglt	r3, r3
 80069e8:	f042 0202 	orrlt.w	r2, r2, #2
 80069ec:	9307      	strge	r3, [sp, #28]
 80069ee:	9307      	strlt	r3, [sp, #28]
 80069f0:	bfb8      	it	lt
 80069f2:	9204      	strlt	r2, [sp, #16]
 80069f4:	7823      	ldrb	r3, [r4, #0]
 80069f6:	2b2e      	cmp	r3, #46	@ 0x2e
 80069f8:	d10a      	bne.n	8006a10 <_svfiprintf_r+0x130>
 80069fa:	7863      	ldrb	r3, [r4, #1]
 80069fc:	2b2a      	cmp	r3, #42	@ 0x2a
 80069fe:	d132      	bne.n	8006a66 <_svfiprintf_r+0x186>
 8006a00:	9b03      	ldr	r3, [sp, #12]
 8006a02:	1d1a      	adds	r2, r3, #4
 8006a04:	681b      	ldr	r3, [r3, #0]
 8006a06:	9203      	str	r2, [sp, #12]
 8006a08:	ea43 73e3 	orr.w	r3, r3, r3, asr #31
 8006a0c:	3402      	adds	r4, #2
 8006a0e:	9305      	str	r3, [sp, #20]
 8006a10:	f8df a0c0 	ldr.w	sl, [pc, #192]	@ 8006ad4 <_svfiprintf_r+0x1f4>
 8006a14:	7821      	ldrb	r1, [r4, #0]
 8006a16:	2203      	movs	r2, #3
 8006a18:	4650      	mov	r0, sl
 8006a1a:	f7f9 fc19 	bl	8000250 <memchr>
 8006a1e:	b138      	cbz	r0, 8006a30 <_svfiprintf_r+0x150>
 8006a20:	9b04      	ldr	r3, [sp, #16]
 8006a22:	eba0 000a 	sub.w	r0, r0, sl
 8006a26:	2240      	movs	r2, #64	@ 0x40
 8006a28:	4082      	lsls	r2, r0
 8006a2a:	4313      	orrs	r3, r2
 8006a2c:	3401      	adds	r4, #1
 8006a2e:	9304      	str	r3, [sp, #16]
 8006a30:	f814 1b01 	ldrb.w	r1, [r4], #1
 8006a34:	4824      	ldr	r0, [pc, #144]	@ (8006ac8 <_svfiprintf_r+0x1e8>)
 8006a36:	f88d 1028 	strb.w	r1, [sp, #40]	@ 0x28
 8006a3a:	2206      	movs	r2, #6
 8006a3c:	f7f9 fc08 	bl	8000250 <memchr>
 8006a40:	2800      	cmp	r0, #0
 8006a42:	d036      	beq.n	8006ab2 <_svfiprintf_r+0x1d2>
 8006a44:	4b21      	ldr	r3, [pc, #132]	@ (8006acc <_svfiprintf_r+0x1ec>)
 8006a46:	bb1b      	cbnz	r3, 8006a90 <_svfiprintf_r+0x1b0>
 8006a48:	9b03      	ldr	r3, [sp, #12]
 8006a4a:	3307      	adds	r3, #7
 8006a4c:	f023 0307 	bic.w	r3, r3, #7
 8006a50:	3308      	adds	r3, #8
 8006a52:	9303      	str	r3, [sp, #12]
 8006a54:	9b09      	ldr	r3, [sp, #36]	@ 0x24
 8006a56:	4433      	add	r3, r6
 8006a58:	9309      	str	r3, [sp, #36]	@ 0x24
 8006a5a:	e76a      	b.n	8006932 <_svfiprintf_r+0x52>
 8006a5c:	fb0c 3202 	mla	r2, ip, r2, r3
 8006a60:	460c      	mov	r4, r1
 8006a62:	2001      	movs	r0, #1
 8006a64:	e7a8      	b.n	80069b8 <_svfiprintf_r+0xd8>
 8006a66:	2300      	movs	r3, #0
 8006a68:	3401      	adds	r4, #1
 8006a6a:	9305      	str	r3, [sp, #20]
 8006a6c:	4619      	mov	r1, r3
 8006a6e:	f04f 0c0a 	mov.w	ip, #10
 8006a72:	4620      	mov	r0, r4
 8006a74:	f810 2b01 	ldrb.w	r2, [r0], #1
 8006a78:	3a30      	subs	r2, #48	@ 0x30
 8006a7a:	2a09      	cmp	r2, #9
 8006a7c:	d903      	bls.n	8006a86 <_svfiprintf_r+0x1a6>
 8006a7e:	2b00      	cmp	r3, #0
 8006a80:	d0c6      	beq.n	8006a10 <_svfiprintf_r+0x130>
 8006a82:	9105      	str	r1, [sp, #20]
 8006a84:	e7c4      	b.n	8006a10 <_svfiprintf_r+0x130>
 8006a86:	fb0c 2101 	mla	r1, ip, r1, r2
 8006a8a:	4604      	mov	r4, r0
 8006a8c:	2301      	movs	r3, #1
 8006a8e:	e7f0      	b.n	8006a72 <_svfiprintf_r+0x192>
 8006a90:	ab03      	add	r3, sp, #12
 8006a92:	9300      	str	r3, [sp, #0]
 8006a94:	462a      	mov	r2, r5
 8006a96:	4b0e      	ldr	r3, [pc, #56]	@ (8006ad0 <_svfiprintf_r+0x1f0>)
 8006a98:	a904      	add	r1, sp, #16
 8006a9a:	4638      	mov	r0, r7
 8006a9c:	f3af 8000 	nop.w
 8006aa0:	1c42      	adds	r2, r0, #1
 8006aa2:	4606      	mov	r6, r0
 8006aa4:	d1d6      	bne.n	8006a54 <_svfiprintf_r+0x174>
 8006aa6:	89ab      	ldrh	r3, [r5, #12]
 8006aa8:	065b      	lsls	r3, r3, #25
 8006aaa:	f53f af2d 	bmi.w	8006908 <_svfiprintf_r+0x28>
 8006aae:	9809      	ldr	r0, [sp, #36]	@ 0x24
 8006ab0:	e72c      	b.n	800690c <_svfiprintf_r+0x2c>
 8006ab2:	ab03      	add	r3, sp, #12
 8006ab4:	9300      	str	r3, [sp, #0]
 8006ab6:	462a      	mov	r2, r5
 8006ab8:	4b05      	ldr	r3, [pc, #20]	@ (8006ad0 <_svfiprintf_r+0x1f0>)
 8006aba:	a904      	add	r1, sp, #16
 8006abc:	4638      	mov	r0, r7
 8006abe:	f000 f879 	bl	8006bb4 <_printf_i>
 8006ac2:	e7ed      	b.n	8006aa0 <_svfiprintf_r+0x1c0>
 8006ac4:	08007f64 	.word	0x08007f64
 8006ac8:	08007f6e 	.word	0x08007f6e
 8006acc:	00000000 	.word	0x00000000
 8006ad0:	08006829 	.word	0x08006829
 8006ad4:	08007f6a 	.word	0x08007f6a

08006ad8 <_printf_common>:
 8006ad8:	e92d 47f0 	stmdb	sp!, {r4, r5, r6, r7, r8, r9, sl, lr}
 8006adc:	4616      	mov	r6, r2
 8006ade:	4698      	mov	r8, r3
 8006ae0:	688a      	ldr	r2, [r1, #8]
 8006ae2:	690b      	ldr	r3, [r1, #16]
 8006ae4:	f8dd 9020 	ldr.w	r9, [sp, #32]
 8006ae8:	4293      	cmp	r3, r2
 8006aea:	bfb8      	it	lt
 8006aec:	4613      	movlt	r3, r2
 8006aee:	6033      	str	r3, [r6, #0]
 8006af0:	f891 2043 	ldrb.w	r2, [r1, #67]	@ 0x43
 8006af4:	4607      	mov	r7, r0
 8006af6:	460c      	mov	r4, r1
 8006af8:	b10a      	cbz	r2, 8006afe <_printf_common+0x26>
 8006afa:	3301      	adds	r3, #1
 8006afc:	6033      	str	r3, [r6, #0]
 8006afe:	6823      	ldr	r3, [r4, #0]
 8006b00:	0699      	lsls	r1, r3, #26
 8006b02:	bf42      	ittt	mi
 8006b04:	6833      	ldrmi	r3, [r6, #0]
 8006b06:	3302      	addmi	r3, #2
 8006b08:	6033      	strmi	r3, [r6, #0]
 8006b0a:	6825      	ldr	r5, [r4, #0]
 8006b0c:	f015 0506 	ands.w	r5, r5, #6
 8006b10:	d106      	bne.n	8006b20 <_printf_common+0x48>
 8006b12:	f104 0a19 	add.w	sl, r4, #25
 8006b16:	68e3      	ldr	r3, [r4, #12]
 8006b18:	6832      	ldr	r2, [r6, #0]
 8006b1a:	1a9b      	subs	r3, r3, r2
 8006b1c:	42ab      	cmp	r3, r5
 8006b1e:	dc26      	bgt.n	8006b6e <_printf_common+0x96>
 8006b20:	f894 3043 	ldrb.w	r3, [r4, #67]	@ 0x43
 8006b24:	6822      	ldr	r2, [r4, #0]
 8006b26:	3b00      	subs	r3, #0
 8006b28:	bf18      	it	ne
 8006b2a:	2301      	movne	r3, #1
 8006b2c:	0692      	lsls	r2, r2, #26
 8006b2e:	d42b      	bmi.n	8006b88 <_printf_common+0xb0>
 8006b30:	f104 0243 	add.w	r2, r4, #67	@ 0x43
 8006b34:	4641      	mov	r1, r8
 8006b36:	4638      	mov	r0, r7
 8006b38:	47c8      	blx	r9
 8006b3a:	3001      	adds	r0, #1
 8006b3c:	d01e      	beq.n	8006b7c <_printf_common+0xa4>
 8006b3e:	6823      	ldr	r3, [r4, #0]
 8006b40:	6922      	ldr	r2, [r4, #16]
 8006b42:	f003 0306 	and.w	r3, r3, #6
 8006b46:	2b04      	cmp	r3, #4
 8006b48:	bf02      	ittt	eq
 8006b4a:	68e5      	ldreq	r5, [r4, #12]
 8006b4c:	6833      	ldreq	r3, [r6, #0]
 8006b4e:	1aed      	subeq	r5, r5, r3
 8006b50:	68a3      	ldr	r3, [r4, #8]
 8006b52:	bf0c      	ite	eq
 8006b54:	ea25 75e5 	biceq.w	r5, r5, r5, asr #31
 8006b58:	2500      	movne	r5, #0
 8006b5a:	4293      	cmp	r3, r2
 8006b5c:	bfc4      	itt	gt
 8006b5e:	1a9b      	subgt	r3, r3, r2
 8006b60:	18ed      	addgt	r5, r5, r3
 8006b62:	2600      	movs	r6, #0
 8006b64:	341a      	adds	r4, #26
 8006b66:	42b5      	cmp	r5, r6
 8006b68:	d11a      	bne.n	8006ba0 <_printf_common+0xc8>
 8006b6a:	2000      	movs	r0, #0
 8006b6c:	e008      	b.n	8006b80 <_printf_common+0xa8>
 8006b6e:	2301      	movs	r3, #1
 8006b70:	4652      	mov	r2, sl
 8006b72:	4641      	mov	r1, r8
 8006b74:	4638      	mov	r0, r7
 8006b76:	47c8      	blx	r9
 8006b78:	3001      	adds	r0, #1
 8006b7a:	d103      	bne.n	8006b84 <_printf_common+0xac>
 8006b7c:	f04f 30ff 	mov.w	r0, #4294967295
 8006b80:	e8bd 87f0 	ldmia.w	sp!, {r4, r5, r6, r7, r8, r9, sl, pc}
 8006b84:	3501      	adds	r5, #1
 8006b86:	e7c6      	b.n	8006b16 <_printf_common+0x3e>
 8006b88:	18e1      	adds	r1, r4, r3
 8006b8a:	1c5a      	adds	r2, r3, #1
 8006b8c:	2030      	movs	r0, #48	@ 0x30
 8006b8e:	f881 0043 	strb.w	r0, [r1, #67]	@ 0x43
 8006b92:	4422      	add	r2, r4
 8006b94:	f894 1045 	ldrb.w	r1, [r4, #69]	@ 0x45
 8006b98:	f882 1043 	strb.w	r1, [r2, #67]	@ 0x43
 8006b9c:	3302      	adds	r3, #2
 8006b9e:	e7c7      	b.n	8006b30 <_printf_common+0x58>
 8006ba0:	2301      	movs	r3, #1
 8006ba2:	4622      	mov	r2, r4
 8006ba4:	4641      	mov	r1, r8
 8006ba6:	4638      	mov	r0, r7
 8006ba8:	47c8      	blx	r9
 8006baa:	3001      	adds	r0, #1
 8006bac:	d0e6      	beq.n	8006b7c <_printf_common+0xa4>
 8006bae:	3601      	adds	r6, #1
 8006bb0:	e7d9      	b.n	8006b66 <_printf_common+0x8e>
	...

08006bb4 <_printf_i>:
 8006bb4:	e92d 47ff 	stmdb	sp!, {r0, r1, r2, r3, r4, r5, r6, r7, r8, r9, sl, lr}
 8006bb8:	7e0f      	ldrb	r7, [r1, #24]
 8006bba:	9e0c      	ldr	r6, [sp, #48]	@ 0x30
 8006bbc:	2f78      	cmp	r7, #120	@ 0x78
 8006bbe:	4691      	mov	r9, r2
 8006bc0:	4680      	mov	r8, r0
 8006bc2:	460c      	mov	r4, r1
 8006bc4:	469a      	mov	sl, r3
 8006bc6:	f101 0243 	add.w	r2, r1, #67	@ 0x43
 8006bca:	d807      	bhi.n	8006bdc <_printf_i+0x28>
 8006bcc:	2f62      	cmp	r7, #98	@ 0x62
 8006bce:	d80a      	bhi.n	8006be6 <_printf_i+0x32>
 8006bd0:	2f00      	cmp	r7, #0
 8006bd2:	f000 80d1 	beq.w	8006d78 <_printf_i+0x1c4>
 8006bd6:	2f58      	cmp	r7, #88	@ 0x58
 8006bd8:	f000 80b8 	beq.w	8006d4c <_printf_i+0x198>
 8006bdc:	f104 0642 	add.w	r6, r4, #66	@ 0x42
 8006be0:	f884 7042 	strb.w	r7, [r4, #66]	@ 0x42
 8006be4:	e03a      	b.n	8006c5c <_printf_i+0xa8>
 8006be6:	f1a7 0363 	sub.w	r3, r7, #99	@ 0x63
 8006bea:	2b15      	cmp	r3, #21
 8006bec:	d8f6      	bhi.n	8006bdc <_printf_i+0x28>
 8006bee:	a101      	add	r1, pc, #4	@ (adr r1, 8006bf4 <_printf_i+0x40>)
 8006bf0:	f851 f023 	ldr.w	pc, [r1, r3, lsl #2]
 8006bf4:	08006c4d 	.word	0x08006c4d
 8006bf8:	08006c61 	.word	0x08006c61
 8006bfc:	08006bdd 	.word	0x08006bdd
 8006c00:	08006bdd 	.word	0x08006bdd
 8006c04:	08006bdd 	.word	0x08006bdd
 8006c08:	08006bdd 	.word	0x08006bdd
 8006c0c:	08006c61 	.word	0x08006c61
 8006c10:	08006bdd 	.word	0x08006bdd
 8006c14:	08006bdd 	.word	0x08006bdd
 8006c18:	08006bdd 	.word	0x08006bdd
 8006c1c:	08006bdd 	.word	0x08006bdd
 8006c20:	08006d5f 	.word	0x08006d5f
 8006c24:	08006c8b 	.word	0x08006c8b
 8006c28:	08006d19 	.word	0x08006d19
 8006c2c:	08006bdd 	.word	0x08006bdd
 8006c30:	08006bdd 	.word	0x08006bdd
 8006c34:	08006d81 	.word	0x08006d81
 8006c38:	08006bdd 	.word	0x08006bdd
 8006c3c:	08006c8b 	.word	0x08006c8b
 8006c40:	08006bdd 	.word	0x08006bdd
 8006c44:	08006bdd 	.word	0x08006bdd
 8006c48:	08006d21 	.word	0x08006d21
 8006c4c:	6833      	ldr	r3, [r6, #0]
 8006c4e:	1d1a      	adds	r2, r3, #4
 8006c50:	681b      	ldr	r3, [r3, #0]
 8006c52:	6032      	str	r2, [r6, #0]
 8006c54:	f104 0642 	add.w	r6, r4, #66	@ 0x42
 8006c58:	f884 3042 	strb.w	r3, [r4, #66]	@ 0x42
 8006c5c:	2301      	movs	r3, #1
 8006c5e:	e09c      	b.n	8006d9a <_printf_i+0x1e6>
 8006c60:	6833      	ldr	r3, [r6, #0]
 8006c62:	6820      	ldr	r0, [r4, #0]
 8006c64:	1d19      	adds	r1, r3, #4
 8006c66:	6031      	str	r1, [r6, #0]
 8006c68:	0606      	lsls	r6, r0, #24
 8006c6a:	d501      	bpl.n	8006c70 <_printf_i+0xbc>
 8006c6c:	681d      	ldr	r5, [r3, #0]
 8006c6e:	e003      	b.n	8006c78 <_printf_i+0xc4>
 8006c70:	0645      	lsls	r5, r0, #25
 8006c72:	d5fb      	bpl.n	8006c6c <_printf_i+0xb8>
 8006c74:	f9b3 5000 	ldrsh.w	r5, [r3]
 8006c78:	2d00      	cmp	r5, #0
 8006c7a:	da03      	bge.n	8006c84 <_printf_i+0xd0>
 8006c7c:	232d      	movs	r3, #45	@ 0x2d
 8006c7e:	426d      	negs	r5, r5
 8006c80:	f884 3043 	strb.w	r3, [r4, #67]	@ 0x43
 8006c84:	4858      	ldr	r0, [pc, #352]	@ (8006de8 <_printf_i+0x234>)
 8006c86:	230a      	movs	r3, #10
 8006c88:	e011      	b.n	8006cae <_printf_i+0xfa>
 8006c8a:	6821      	ldr	r1, [r4, #0]
 8006c8c:	6833      	ldr	r3, [r6, #0]
 8006c8e:	0608      	lsls	r0, r1, #24
 8006c90:	f853 5b04 	ldr.w	r5, [r3], #4
 8006c94:	d402      	bmi.n	8006c9c <_printf_i+0xe8>
 8006c96:	0649      	lsls	r1, r1, #25
 8006c98:	bf48      	it	mi
 8006c9a:	b2ad      	uxthmi	r5, r5
 8006c9c:	2f6f      	cmp	r7, #111	@ 0x6f
 8006c9e:	4852      	ldr	r0, [pc, #328]	@ (8006de8 <_printf_i+0x234>)
 8006ca0:	6033      	str	r3, [r6, #0]
 8006ca2:	bf14      	ite	ne
 8006ca4:	230a      	movne	r3, #10
 8006ca6:	2308      	moveq	r3, #8
 8006ca8:	2100      	movs	r1, #0
 8006caa:	f884 1043 	strb.w	r1, [r4, #67]	@ 0x43
 8006cae:	6866      	ldr	r6, [r4, #4]
 8006cb0:	60a6      	str	r6, [r4, #8]
 8006cb2:	2e00      	cmp	r6, #0
 8006cb4:	db05      	blt.n	8006cc2 <_printf_i+0x10e>
 8006cb6:	6821      	ldr	r1, [r4, #0]
 8006cb8:	432e      	orrs	r6, r5
 8006cba:	f021 0104 	bic.w	r1, r1, #4
 8006cbe:	6021      	str	r1, [r4, #0]
 8006cc0:	d04b      	beq.n	8006d5a <_printf_i+0x1a6>
 8006cc2:	4616      	mov	r6, r2
 8006cc4:	fbb5 f1f3 	udiv	r1, r5, r3
 8006cc8:	fb03 5711 	mls	r7, r3, r1, r5
 8006ccc:	5dc7      	ldrb	r7, [r0, r7]
 8006cce:	f806 7d01 	strb.w	r7, [r6, #-1]!
 8006cd2:	462f      	mov	r7, r5
 8006cd4:	42bb      	cmp	r3, r7
 8006cd6:	460d      	mov	r5, r1
 8006cd8:	d9f4      	bls.n	8006cc4 <_printf_i+0x110>
 8006cda:	2b08      	cmp	r3, #8
 8006cdc:	d10b      	bne.n	8006cf6 <_printf_i+0x142>
 8006cde:	6823      	ldr	r3, [r4, #0]
 8006ce0:	07df      	lsls	r7, r3, #31
 8006ce2:	d508      	bpl.n	8006cf6 <_printf_i+0x142>
 8006ce4:	6923      	ldr	r3, [r4, #16]
 8006ce6:	6861      	ldr	r1, [r4, #4]
 8006ce8:	4299      	cmp	r1, r3
 8006cea:	bfde      	ittt	le
 8006cec:	2330      	movle	r3, #48	@ 0x30
 8006cee:	f806 3c01 	strble.w	r3, [r6, #-1]
 8006cf2:	f106 36ff 	addle.w	r6, r6, #4294967295
 8006cf6:	1b92      	subs	r2, r2, r6
 8006cf8:	6122      	str	r2, [r4, #16]
 8006cfa:	f8cd a000 	str.w	sl, [sp]
 8006cfe:	464b      	mov	r3, r9
 8006d00:	aa03      	add	r2, sp, #12
 8006d02:	4621      	mov	r1, r4
 8006d04:	4640      	mov	r0, r8
 8006d06:	f7ff fee7 	bl	8006ad8 <_printf_common>
 8006d0a:	3001      	adds	r0, #1
 8006d0c:	d14a      	bne.n	8006da4 <_printf_i+0x1f0>
 8006d0e:	f04f 30ff 	mov.w	r0, #4294967295
 8006d12:	b004      	add	sp, #16
 8006d14:	e8bd 87f0 	ldmia.w	sp!, {r4, r5, r6, r7, r8, r9, sl, pc}
 8006d18:	6823      	ldr	r3, [r4, #0]
 8006d1a:	f043 0320 	orr.w	r3, r3, #32
 8006d1e:	6023      	str	r3, [r4, #0]
 8006d20:	4832      	ldr	r0, [pc, #200]	@ (8006dec <_printf_i+0x238>)
 8006d22:	2778      	movs	r7, #120	@ 0x78
 8006d24:	f884 7045 	strb.w	r7, [r4, #69]	@ 0x45
 8006d28:	6823      	ldr	r3, [r4, #0]
 8006d2a:	6831      	ldr	r1, [r6, #0]
 8006d2c:	061f      	lsls	r7, r3, #24
 8006d2e:	f851 5b04 	ldr.w	r5, [r1], #4
 8006d32:	d402      	bmi.n	8006d3a <_printf_i+0x186>
 8006d34:	065f      	lsls	r7, r3, #25
 8006d36:	bf48      	it	mi
 8006d38:	b2ad      	uxthmi	r5, r5
 8006d3a:	6031      	str	r1, [r6, #0]
 8006d3c:	07d9      	lsls	r1, r3, #31
 8006d3e:	bf44      	itt	mi
 8006d40:	f043 0320 	orrmi.w	r3, r3, #32
 8006d44:	6023      	strmi	r3, [r4, #0]
 8006d46:	b11d      	cbz	r5, 8006d50 <_printf_i+0x19c>
 8006d48:	2310      	movs	r3, #16
 8006d4a:	e7ad      	b.n	8006ca8 <_printf_i+0xf4>
 8006d4c:	4826      	ldr	r0, [pc, #152]	@ (8006de8 <_printf_i+0x234>)
 8006d4e:	e7e9      	b.n	8006d24 <_printf_i+0x170>
 8006d50:	6823      	ldr	r3, [r4, #0]
 8006d52:	f023 0320 	bic.w	r3, r3, #32
 8006d56:	6023      	str	r3, [r4, #0]
 8006d58:	e7f6      	b.n	8006d48 <_printf_i+0x194>
 8006d5a:	4616      	mov	r6, r2
 8006d5c:	e7bd      	b.n	8006cda <_printf_i+0x126>
 8006d5e:	6833      	ldr	r3, [r6, #0]
 8006d60:	6825      	ldr	r5, [r4, #0]
 8006d62:	6961      	ldr	r1, [r4, #20]
 8006d64:	1d18      	adds	r0, r3, #4
 8006d66:	6030      	str	r0, [r6, #0]
 8006d68:	062e      	lsls	r6, r5, #24
 8006d6a:	681b      	ldr	r3, [r3, #0]
 8006d6c:	d501      	bpl.n	8006d72 <_printf_i+0x1be>
 8006d6e:	6019      	str	r1, [r3, #0]
 8006d70:	e002      	b.n	8006d78 <_printf_i+0x1c4>
 8006d72:	0668      	lsls	r0, r5, #25
 8006d74:	d5fb      	bpl.n	8006d6e <_printf_i+0x1ba>
 8006d76:	8019      	strh	r1, [r3, #0]
 8006d78:	2300      	movs	r3, #0
 8006d7a:	6123      	str	r3, [r4, #16]
 8006d7c:	4616      	mov	r6, r2
 8006d7e:	e7bc      	b.n	8006cfa <_printf_i+0x146>
 8006d80:	6833      	ldr	r3, [r6, #0]
 8006d82:	1d1a      	adds	r2, r3, #4
 8006d84:	6032      	str	r2, [r6, #0]
 8006d86:	681e      	ldr	r6, [r3, #0]
 8006d88:	6862      	ldr	r2, [r4, #4]
 8006d8a:	2100      	movs	r1, #0
 8006d8c:	4630      	mov	r0, r6
 8006d8e:	f7f9 fa5f 	bl	8000250 <memchr>
 8006d92:	b108      	cbz	r0, 8006d98 <_printf_i+0x1e4>
 8006d94:	1b80      	subs	r0, r0, r6
 8006d96:	6060      	str	r0, [r4, #4]
 8006d98:	6863      	ldr	r3, [r4, #4]
 8006d9a:	6123      	str	r3, [r4, #16]
 8006d9c:	2300      	movs	r3, #0
 8006d9e:	f884 3043 	strb.w	r3, [r4, #67]	@ 0x43
 8006da2:	e7aa      	b.n	8006cfa <_printf_i+0x146>
 8006da4:	6923      	ldr	r3, [r4, #16]
 8006da6:	4632      	mov	r2, r6
 8006da8:	4649      	mov	r1, r9
 8006daa:	4640      	mov	r0, r8
 8006dac:	47d0      	blx	sl
 8006dae:	3001      	adds	r0, #1
 8006db0:	d0ad      	beq.n	8006d0e <_printf_i+0x15a>
 8006db2:	6823      	ldr	r3, [r4, #0]
 8006db4:	079b      	lsls	r3, r3, #30
 8006db6:	d413      	bmi.n	8006de0 <_printf_i+0x22c>
 8006db8:	68e0      	ldr	r0, [r4, #12]
 8006dba:	9b03      	ldr	r3, [sp, #12]
 8006dbc:	4298      	cmp	r0, r3
 8006dbe:	bfb8      	it	lt
 8006dc0:	4618      	movlt	r0, r3
 8006dc2:	e7a6      	b.n	8006d12 <_printf_i+0x15e>
 8006dc4:	2301      	movs	r3, #1
 8006dc6:	4632      	mov	r2, r6
 8006dc8:	4649      	mov	r1, r9
 8006dca:	4640      	mov	r0, r8
 8006dcc:	47d0      	blx	sl
 8006dce:	3001      	adds	r0, #1
 8006dd0:	d09d      	beq.n	8006d0e <_printf_i+0x15a>
 8006dd2:	3501      	adds	r5, #1
 8006dd4:	68e3      	ldr	r3, [r4, #12]
 8006dd6:	9903      	ldr	r1, [sp, #12]
 8006dd8:	1a5b      	subs	r3, r3, r1
 8006dda:	42ab      	cmp	r3, r5
 8006ddc:	dcf2      	bgt.n	8006dc4 <_printf_i+0x210>
 8006dde:	e7eb      	b.n	8006db8 <_printf_i+0x204>
 8006de0:	2500      	movs	r5, #0
 8006de2:	f104 0619 	add.w	r6, r4, #25
 8006de6:	e7f5      	b.n	8006dd4 <_printf_i+0x220>
 8006de8:	08007f75 	.word	0x08007f75
 8006dec:	08007f86 	.word	0x08007f86

08006df0 <memmove>:
 8006df0:	4288      	cmp	r0, r1
 8006df2:	b510      	push	{r4, lr}
 8006df4:	eb01 0402 	add.w	r4, r1, r2
 8006df8:	d902      	bls.n	8006e00 <memmove+0x10>
 8006dfa:	4284      	cmp	r4, r0
 8006dfc:	4623      	mov	r3, r4
 8006dfe:	d807      	bhi.n	8006e10 <memmove+0x20>
 8006e00:	1e43      	subs	r3, r0, #1
 8006e02:	42a1      	cmp	r1, r4
 8006e04:	d008      	beq.n	8006e18 <memmove+0x28>
 8006e06:	f811 2b01 	ldrb.w	r2, [r1], #1
 8006e0a:	f803 2f01 	strb.w	r2, [r3, #1]!
 8006e0e:	e7f8      	b.n	8006e02 <memmove+0x12>
 8006e10:	4402      	add	r2, r0
 8006e12:	4601      	mov	r1, r0
 8006e14:	428a      	cmp	r2, r1
 8006e16:	d100      	bne.n	8006e1a <memmove+0x2a>
 8006e18:	bd10      	pop	{r4, pc}
 8006e1a:	f813 4d01 	ldrb.w	r4, [r3, #-1]!
 8006e1e:	f802 4d01 	strb.w	r4, [r2, #-1]!
 8006e22:	e7f7      	b.n	8006e14 <memmove+0x24>

08006e24 <_sbrk_r>:
 8006e24:	b538      	push	{r3, r4, r5, lr}
 8006e26:	4d06      	ldr	r5, [pc, #24]	@ (8006e40 <_sbrk_r+0x1c>)
 8006e28:	2300      	movs	r3, #0
 8006e2a:	4604      	mov	r4, r0
 8006e2c:	4608      	mov	r0, r1
 8006e2e:	602b      	str	r3, [r5, #0]
 8006e30:	f7fb f9f0 	bl	8002214 <_sbrk>
 8006e34:	1c43      	adds	r3, r0, #1
 8006e36:	d102      	bne.n	8006e3e <_sbrk_r+0x1a>
 8006e38:	682b      	ldr	r3, [r5, #0]
 8006e3a:	b103      	cbz	r3, 8006e3e <_sbrk_r+0x1a>
 8006e3c:	6023      	str	r3, [r4, #0]
 8006e3e:	bd38      	pop	{r3, r4, r5, pc}
 8006e40:	20000388 	.word	0x20000388

08006e44 <memcpy>:
 8006e44:	440a      	add	r2, r1
 8006e46:	4291      	cmp	r1, r2
 8006e48:	f100 33ff 	add.w	r3, r0, #4294967295
 8006e4c:	d100      	bne.n	8006e50 <memcpy+0xc>
 8006e4e:	4770      	bx	lr
 8006e50:	b510      	push	{r4, lr}
 8006e52:	f811 4b01 	ldrb.w	r4, [r1], #1
 8006e56:	f803 4f01 	strb.w	r4, [r3, #1]!
 8006e5a:	4291      	cmp	r1, r2
 8006e5c:	d1f9      	bne.n	8006e52 <memcpy+0xe>
 8006e5e:	bd10      	pop	{r4, pc}

08006e60 <_realloc_r>:
 8006e60:	e92d 41f0 	stmdb	sp!, {r4, r5, r6, r7, r8, lr}
 8006e64:	4607      	mov	r7, r0
 8006e66:	4614      	mov	r4, r2
 8006e68:	460d      	mov	r5, r1
 8006e6a:	b921      	cbnz	r1, 8006e76 <_realloc_r+0x16>
 8006e6c:	e8bd 41f0 	ldmia.w	sp!, {r4, r5, r6, r7, r8, lr}
 8006e70:	4611      	mov	r1, r2
 8006e72:	f7ff bc4d 	b.w	8006710 <_malloc_r>
 8006e76:	b92a      	cbnz	r2, 8006e84 <_realloc_r+0x24>
 8006e78:	f7ff fbde 	bl	8006638 <_free_r>
 8006e7c:	4625      	mov	r5, r4
 8006e7e:	4628      	mov	r0, r5
 8006e80:	e8bd 81f0 	ldmia.w	sp!, {r4, r5, r6, r7, r8, pc}
 8006e84:	f000 f81a 	bl	8006ebc <_malloc_usable_size_r>
 8006e88:	4284      	cmp	r4, r0
 8006e8a:	4606      	mov	r6, r0
 8006e8c:	d802      	bhi.n	8006e94 <_realloc_r+0x34>
 8006e8e:	ebb4 0f50 	cmp.w	r4, r0, lsr #1
 8006e92:	d8f4      	bhi.n	8006e7e <_realloc_r+0x1e>
 8006e94:	4621      	mov	r1, r4
 8006e96:	4638      	mov	r0, r7
 8006e98:	f7ff fc3a 	bl	8006710 <_malloc_r>
 8006e9c:	4680      	mov	r8, r0
 8006e9e:	b908      	cbnz	r0, 8006ea4 <_realloc_r+0x44>
 8006ea0:	4645      	mov	r5, r8
 8006ea2:	e7ec      	b.n	8006e7e <_realloc_r+0x1e>
 8006ea4:	42b4      	cmp	r4, r6
 8006ea6:	4622      	mov	r2, r4
 8006ea8:	4629      	mov	r1, r5
 8006eaa:	bf28      	it	cs
 8006eac:	4632      	movcs	r2, r6
 8006eae:	f7ff ffc9 	bl	8006e44 <memcpy>
 8006eb2:	4629      	mov	r1, r5
 8006eb4:	4638      	mov	r0, r7
 8006eb6:	f7ff fbbf 	bl	8006638 <_free_r>
 8006eba:	e7f1      	b.n	8006ea0 <_realloc_r+0x40>

08006ebc <_malloc_usable_size_r>:
 8006ebc:	f851 3c04 	ldr.w	r3, [r1, #-4]
 8006ec0:	1f18      	subs	r0, r3, #4
 8006ec2:	2b00      	cmp	r3, #0
 8006ec4:	bfbc      	itt	lt
 8006ec6:	580b      	ldrlt	r3, [r1, r0]
 8006ec8:	18c0      	addlt	r0, r0, r3
 8006eca:	4770      	bx	lr

08006ecc <_init>:
 8006ecc:	b5f8      	push	{r3, r4, r5, r6, r7, lr}
 8006ece:	bf00      	nop
 8006ed0:	bcf8      	pop	{r3, r4, r5, r6, r7}
 8006ed2:	bc08      	pop	{r3}
 8006ed4:	469e      	mov	lr, r3
 8006ed6:	4770      	bx	lr

08006ed8 <_fini>:
 8006ed8:	b5f8      	push	{r3, r4, r5, r6, r7, lr}
 8006eda:	bf00      	nop
 8006edc:	bcf8      	pop	{r3, r4, r5, r6, r7}
 8006ede:	bc08      	pop	{r3}
 8006ee0:	469e      	mov	lr, r3
 8006ee2:	4770      	bx	lr
